///////////////////////////////////////////////////////////////////////////////
//                                                                            /
// IAR C/C++ Compiler V7.51A/W32 for 8051               25/Mar/2015  21:06:18 /
// Copyright 2004-2009 IAR Systems AB.                                        /
//                                                                            /
//    Core               =  plain                                             /
//    Code model         =  banked                                            /
//    Data model         =  large                                             /
//    Calling convention =  xdata reentrant                                   /
//    Constant location  =  data_rom                                          /
//    Dptr setup         =  1,16                                              /
//    Source file        =  C:\Texas Instruments\ZStack-CC2530-2.3.0-1.4.0\Pr /
//                          ojects\zstack\Samples\ZigBee_FAN_PRO1\Source\DHT1 /
//                          1.C                                               /
//    Command line       =  -f "C:\Texas Instruments\ZStack-CC2530-2.3.0-1.4. /
//                          0\Projects\zstack\Samples\ZigBee_FAN_PRO1\CC2530D /
//                          B\..\..\..\Tools\CC2530DB\f8wCoord.cfg"           /
//                          (-DCPU32MHZ -DROOT=__near_func                    /
//                          -DMAC_CFG_APP_PENDING_QUEUE=TRUE                  /
//                          -DZDO_COORDINATOR -DRTR_NWK -DBLINK_LEDS) -f      /
//                          "C:\Texas Instruments\ZStack-CC2530-2.3.0-1.4.0\P /
//                          rojects\zstack\Samples\ZigBee_FAN_PRO1\CC2530DB\. /
//                          .\..\..\Tools\CC2530DB\f8wConfig.cfg"             /
//                          (-DSECURE=0 -DZG_SECURE_DYNAMIC=0 -DREFLECTOR     /
//                          -DDEFAULT_CHANLIST=0x00000800                     /
//                          -DZDAPP_CONFIG_PAN_ID=0xFFFF                      /
//                          -DNWK_START_DELAY=100 -DEXTENDED_JOINING_RANDOM_M /
//                          ASK=0x007F -DBEACON_REQUEST_DELAY=100             /
//                          -DBEACON_REQ_DELAY_MASK=0x00FF                    /
//                          -DROUTE_EXPIRY_TIME=30 -DAPSC_ACK_WAIT_DURATION_P /
//                          OLLED=3000 -DNWK_INDIRECT_MSG_TIMEOUT=7           /
//                          -DMAX_RREQ_ENTRIES=8 -DAPSC_MAX_FRAME_RETRIES=3   /
//                          -DNWK_MAX_DATA_RETRIES=2                          /
//                          -DMAX_POLL_FAILURE_RETRIES=2 -DMAX_BCAST=9        /
//                          -DAPS_MAX_GROUPS=16 -DMAX_RTG_ENTRIES=40          /
//                          -DNWK_MAX_BINDING_ENTRIES=4                       /
//                          -DMAX_BINDING_CLUSTER_IDS=4                       /
//                          "-DDEFAULT_KEY={0x01, 0x03, 0x05, 0x07, 0x09,     /
//                          0x0B, 0x0D, 0x0F, 0x00, 0x02, 0x04, 0x06, 0x08,   /
//                          0x0A, 0x0C, 0x0D}" -DMAC_MAX_FRAME_SIZE=116       /
//                          "-DCONST=const __code" -DGENERIC=__generic        /
//                          -DRFD_RCVC_ALWAYS_ON=FALSE -DPOLL_RATE=1000       /
//                          -DQUEUED_POLL_RATE=100 -DRESPONSE_POLL_RATE=100)  /
//                          -DREJOIN_POLL_RATE=440 "C:\Texas                  /
//                          Instruments\ZStack-CC2530-2.3.0-1.4.0\Projects\zs /
//                          tack\Samples\ZigBee_FAN_PRO1\Source\DHT11.C" -D   /
//                          ZTOOL_P1 -D COORDINATOR -D MT_TASK -D             /
//                          MT_SYS_FUNC -D MT_ZDO_FUNC -D                     /
//                          xLCD_SUPPORTED=DEBUG -lC "C:\Texas                /
//                          Instruments\ZStack-CC2530-2.3.0-1.4.0\Projects\zs /
//                          tack\Samples\ZigBee_FAN_PRO1\CC2530DB\Coordinator /
//                          EB\List\" -lA "C:\Texas                           /
//                          Instruments\ZStack-CC2530-2.3.0-1.4.0\Projects\zs /
//                          tack\Samples\ZigBee_FAN_PRO1\CC2530DB\Coordinator /
//                          EB\List\" --diag_suppress Pe001,Pa010 -o          /
//                          "C:\Texas Instruments\ZStack-CC2530-2.3.0-1.4.0\P /
//                          rojects\zstack\Samples\ZigBee_FAN_PRO1\CC2530DB\C /
//                          oordinatorEB\Obj\" -e --require_prototypes        /
//                          --debug --core=plain --dptr=16,1                  /
//                          --data_model=large --code_model=banked            /
//                          --calling_convention=xdata_reentrant              /
//                          --place_constants=data_rom --nr_virtual_regs 16   /
//                          -I "C:\Texas Instruments\ZStack-CC2530-2.3.0-1.4. /
//                          0\Projects\zstack\Samples\ZigBee_FAN_PRO1\CC2530D /
//                          B\" -I "C:\Texas Instruments\ZStack-CC2530-2.3.0- /
//                          1.4.0\Projects\zstack\Samples\ZigBee_FAN_PRO1\CC2 /
//                          530DB\..\SOURCE\" -I "C:\Texas                    /
//                          Instruments\ZStack-CC2530-2.3.0-1.4.0\Projects\zs /
//                          tack\Samples\ZigBee_FAN_PRO1\CC2530DB\..\..\..\ZM /
//                          AIN\TI2530DB\" -I "C:\Texas                       /
//                          Instruments\ZStack-CC2530-2.3.0-1.4.0\Projects\zs /
//                          tack\Samples\ZigBee_FAN_PRO1\CC2530DB\..\..\..\.. /
//                          \..\COMPONENTS\MT\" -I "C:\Texas                  /
//                          Instruments\ZStack-CC2530-2.3.0-1.4.0\Projects\zs /
//                          tack\Samples\ZigBee_FAN_PRO1\CC2530DB\..\..\..\.. /
//                          \..\COMPONENTS\HAL\INCLUDE\" -I "C:\Texas         /
//                          Instruments\ZStack-CC2530-2.3.0-1.4.0\Projects\zs /
//                          tack\Samples\ZigBee_FAN_PRO1\CC2530DB\..\..\..\.. /
//                          \..\COMPONENTS\HAL\TARGET\CC2530EB\" -I           /
//                          "C:\Texas Instruments\ZStack-CC2530-2.3.0-1.4.0\P /
//                          rojects\zstack\Samples\ZigBee_FAN_PRO1\CC2530DB\. /
//                          .\..\..\..\..\COMPONENTS\OSAL\MCU\CCSOC\" -I      /
//                          "C:\Texas Instruments\ZStack-CC2530-2.3.0-1.4.0\P /
//                          rojects\zstack\Samples\ZigBee_FAN_PRO1\CC2530DB\. /
//                          .\..\..\..\..\COMPONENTS\OSAL\INCLUDE\" -I        /
//                          "C:\Texas Instruments\ZStack-CC2530-2.3.0-1.4.0\P /
//                          rojects\zstack\Samples\ZigBee_FAN_PRO1\CC2530DB\. /
//                          .\..\..\..\..\COMPONENTS\STACK\AF\" -I "C:\Texas  /
//                          Instruments\ZStack-CC2530-2.3.0-1.4.0\Projects\zs /
//                          tack\Samples\ZigBee_FAN_PRO1\CC2530DB\..\..\..\.. /
//                          \..\COMPONENTS\STACK\NWK\" -I "C:\Texas           /
//                          Instruments\ZStack-CC2530-2.3.0-1.4.0\Projects\zs /
//                          tack\Samples\ZigBee_FAN_PRO1\CC2530DB\..\..\..\.. /
//                          \..\COMPONENTS\STACK\SEC\" -I "C:\Texas           /
//                          Instruments\ZStack-CC2530-2.3.0-1.4.0\Projects\zs /
//                          tack\Samples\ZigBee_FAN_PRO1\CC2530DB\..\..\..\.. /
//                          \..\COMPONENTS\STACK\SAPI\" -I "C:\Texas          /
//                          Instruments\ZStack-CC2530-2.3.0-1.4.0\Projects\zs /
//                          tack\Samples\ZigBee_FAN_PRO1\CC2530DB\..\..\..\.. /
//                          \..\COMPONENTS\STACK\SYS\" -I "C:\Texas           /
//                          Instruments\ZStack-CC2530-2.3.0-1.4.0\Projects\zs /
//                          tack\Samples\ZigBee_FAN_PRO1\CC2530DB\..\..\..\.. /
//                          \..\COMPONENTS\STACK\ZDO\" -I "C:\Texas           /
//                          Instruments\ZStack-CC2530-2.3.0-1.4.0\Projects\zs /
//                          tack\Samples\ZigBee_FAN_PRO1\CC2530DB\..\..\..\.. /
//                          \..\COMPONENTS\ZMAC\F8W\" -I "C:\Texas            /
//                          Instruments\ZStack-CC2530-2.3.0-1.4.0\Projects\zs /
//                          tack\Samples\ZigBee_FAN_PRO1\CC2530DB\..\..\..\.. /
//                          \..\COMPONENTS\ZMAC\" -I "C:\Texas                /
//                          Instruments\ZStack-CC2530-2.3.0-1.4.0\Projects\zs /
//                          tack\Samples\ZigBee_FAN_PRO1\CC2530DB\..\..\..\.. /
//                          \..\COMPONENTS\SERVICES\SADDR\" -I "C:\Texas      /
//                          Instruments\ZStack-CC2530-2.3.0-1.4.0\Projects\zs /
//                          tack\Samples\ZigBee_FAN_PRO1\CC2530DB\..\..\..\.. /
//                          \..\COMPONENTS\SERVICES\SDATA\" -I "C:\Texas      /
//                          Instruments\ZStack-CC2530-2.3.0-1.4.0\Projects\zs /
//                          tack\Samples\ZigBee_FAN_PRO1\CC2530DB\..\..\..\.. /
//                          \..\COMPONENTS\MAC\INCLUDE\" -I "C:\Texas         /
//                          Instruments\ZStack-CC2530-2.3.0-1.4.0\Projects\zs /
//                          tack\Samples\ZigBee_FAN_PRO1\CC2530DB\..\..\..\.. /
//                          \..\COMPONENTS\MAC\HIGH_LEVEL\" -I "C:\Texas      /
//                          Instruments\ZStack-CC2530-2.3.0-1.4.0\Projects\zs /
//                          tack\Samples\ZigBee_FAN_PRO1\CC2530DB\..\..\..\.. /
//                          \..\COMPONENTS\MAC\LOW_LEVEL\srf04\" -I           /
//                          "C:\Texas Instruments\ZStack-CC2530-2.3.0-1.4.0\P /
//                          rojects\zstack\Samples\ZigBee_FAN_PRO1\CC2530DB\. /
//                          .\..\..\..\..\COMPONENTS\MAC\LOW_LEVEL\srf04\SING /
//                          LE_CHIP\" -I "C:\Program Files\IAR                /
//                          Systems\Embedded Workbench 5.3\8051\INC\" -I      /
//                          "C:\Program Files\IAR Systems\Embedded Workbench  /
//                          5.3\8051\INC\CLIB\" -Ohz                          /
//    List file          =  C:\Texas Instruments\ZStack-CC2530-2.3.0-1.4.0\Pr /
//                          ojects\zstack\Samples\ZigBee_FAN_PRO1\CC2530DB\Co /
//                          ordinatorEB\List\DHT11.s51                        /
//                                                                            /
//                                                                            /
///////////////////////////////////////////////////////////////////////////////

        NAME DHT11

        RTMODEL "__calling_convention", "xdata_reentrant"
        RTMODEL "__code_model", "banked"
        RTMODEL "__core", "plain"
        RTMODEL "__data_model", "large"
        RTMODEL "__dptr_size", "16"
        RTMODEL "__extended_stack", "disabled"
        RTMODEL "__location_for_constants", "data"
        RTMODEL "__number_of_dptrs", "1"
        RTMODEL "__rt_version", "1"

        RSEG DOVERLAY:DATA:NOROOT(0)
        RSEG IOVERLAY:IDATA:NOROOT(0)
        RSEG ISTACK:IDATA:NOROOT(0)
        RSEG PSTACK:XDATA:NOROOT(0)
        RSEG XSTACK:XDATA:NOROOT(0)

        EXTERN ??init?relay
        EXTERN ?BDISPATCH
        EXTERN ?BRET
        EXTERN __INIT_XDATA_I
        EXTERN __INIT_XDATA_Z

        PUBLIC ??PARKING?relay
        FUNCTION ??PARKING?relay,0203H
        PUBLIC ??init?relay
        FUNCTION ??init?relay,0203H
        PUBLIC PARKING
        FUNCTION PARKING,021203H
        ARGFRAME XSTACK, 0, STACK
        LOCFRAME ISTACK, 2, STACK
        PUBLIC S001
        PUBLIC S002
        PUBLIC S003
        PUBLIC S004
        PUBWEAK _A_P0
        PUBLIC init
        FUNCTION init,0203H
        ARGFRAME XSTACK, 0, STACK
        ARGFRAME IOVERLAY, 0, STATIC
        ARGFRAME DOVERLAY, 0, STATIC
        
        CFI Names cfiNames0
        CFI StackFrame CFA_SP SP IDATA
        CFI StackFrame CFA_PSP16 PSP16 XDATA
        CFI StackFrame CFA_XSP16 XSP16 XDATA
        CFI StaticOverlayFrame CFA_IOVERLAY IOVERLAY
        CFI StaticOverlayFrame CFA_DOVERLAY DOVERLAY
        CFI Resource `PSW.CY`:1, `B.BR0`:1, `B.BR1`:1, `B.BR2`:1, `B.BR3`:1
        CFI Resource `B.BR4`:1, `B.BR5`:1, `B.BR6`:1, `B.BR7`:1, `VB.BR8`:1
        CFI Resource `VB.BR9`:1, `VB.BR10`:1, `VB.BR11`:1, `VB.BR12`:1
        CFI Resource `VB.BR13`:1, `VB.BR14`:1, `VB.BR15`:1, VB:8, B:8, A:8
        CFI Resource PSW:8, DPL0:8, DPH0:8, R0:8, R1:8, R2:8, R3:8, R4:8, R5:8
        CFI Resource R6:8, R7:8, V0:8, V1:8, V2:8, V3:8, V4:8, V5:8, V6:8, V7:8
        CFI Resource V8:8, V9:8, V10:8, V11:8, V12:8, V13:8, V14:8, V15:8, SP:8
        CFI Resource PSPH:8, PSPL:8, PSP16:16, XSPH:8, XSPL:8, XSP16:16
        CFI VirtualResource ?RET:24
        CFI Resource ?BRET_EXT:8
        CFI VirtualResource ?RET_HIGH:8, ?RET_LOW:8
        CFI ResourceParts PSP16 PSPH, PSPL
        CFI ResourceParts XSP16 XSPH, XSPL
        CFI ResourceParts ?RET ?BRET_EXT, ?RET_HIGH, ?RET_LOW
        CFI EndNames cfiNames0
        
        CFI Common cfiCommon0 Using cfiNames0
        CFI CodeAlign 1
        CFI DataAlign -1
        CFI ReturnAddress ?RET CODE
        CFI CFA_DOVERLAY Used
        CFI CFA_IOVERLAY Used
        CFI CFA_SP SP+-3
        CFI CFA_PSP16 PSP16+0
        CFI CFA_XSP16 XSP16+0
        CFI `PSW.CY` SameValue
        CFI `B.BR0` SameValue
        CFI `B.BR1` SameValue
        CFI `B.BR2` SameValue
        CFI `B.BR3` SameValue
        CFI `B.BR4` SameValue
        CFI `B.BR5` SameValue
        CFI `B.BR6` SameValue
        CFI `B.BR7` SameValue
        CFI `VB.BR8` SameValue
        CFI `VB.BR9` SameValue
        CFI `VB.BR10` SameValue
        CFI `VB.BR11` SameValue
        CFI `VB.BR12` SameValue
        CFI `VB.BR13` SameValue
        CFI `VB.BR14` SameValue
        CFI `VB.BR15` SameValue
        CFI VB SameValue
        CFI B Undefined
        CFI A Undefined
        CFI PSW SameValue
        CFI DPL0 SameValue
        CFI DPH0 SameValue
        CFI R0 Undefined
        CFI R1 Undefined
        CFI R2 Undefined
        CFI R3 Undefined
        CFI R4 Undefined
        CFI R5 Undefined
        CFI R6 SameValue
        CFI R7 SameValue
        CFI V0 SameValue
        CFI V1 SameValue
        CFI V2 SameValue
        CFI V3 SameValue
        CFI V4 SameValue
        CFI V5 SameValue
        CFI V6 SameValue
        CFI V7 SameValue
        CFI V8 SameValue
        CFI V9 SameValue
        CFI V10 SameValue
        CFI V11 SameValue
        CFI V12 SameValue
        CFI V13 SameValue
        CFI V14 SameValue
        CFI V15 SameValue
        CFI PSPH Undefined
        CFI PSPL Undefined
        CFI XSPH Undefined
        CFI XSPL Undefined
        CFI ?RET Concat
        CFI ?BRET_EXT Frame(CFA_SP, 3)
        CFI ?RET_HIGH Frame(CFA_SP, 2)
        CFI ?RET_LOW Frame(CFA_SP, 1)
        CFI EndCommon cfiCommon0
        
PARKING             SYMBOL "PARKING"
??PARKING?relay     SYMBOL "?relay", PARKING
init                SYMBOL "init"
??init?relay        SYMBOL "?relay", init

// C:\Texas Instruments\ZStack-CC2530-2.3.0-1.4.0\Projects\zstack\Samples\ZigBee_FAN_PRO1\Source\DHT11.C
//    1 #include <ioCC2530.h>

        ASEGN SFR_AN:DATA:NOROOT,080H
// union <unnamed> volatile __sfr _A_P0
_A_P0:
        DS 1
//    2 #include "OnBoard.h"
//    3 
//    4 #define uint unsigned int
//    5 #define uchar unsigned char
//    6 
//    7 #define P001 P0_0
//    8 #define P002 P0_1
//    9 #define P003 P0_2
//   10 #define P004 P0_3
//   11 #define P005 P0_4
//   12 
//   13 /*******函数声明*********/
//   14 void Delay_us(void); //1 us延时
//   15 
//   16 void PARKING(void) ;  //温湿传感启动
//   17 
//   18 void init(void);
//   19 

        RSEG XDATA_Z:XDATA:NOROOT(0)
//   20 uchar S001,S002,S003,S004=4;
S001:
        DS 1
        REQUIRE __INIT_XDATA_Z

        RSEG XDATA_Z:XDATA:NOROOT(0)
S002:
        DS 1
        REQUIRE __INIT_XDATA_Z

        RSEG XDATA_Z:XDATA:NOROOT(0)
S003:
        DS 1
        REQUIRE __INIT_XDATA_Z

        RSEG XDATA_I:XDATA:NOROOT(0)
        DATA
S004:
        DS 1
        REQUIRE `?<Initializer for S004>`
        REQUIRE __INIT_XDATA_I
//   21 

        RSEG BANKED_CODE:CODE:NOROOT(0)
//   22 void init(void)
init:
        CFI Block cfiBlock0 Using cfiCommon0
        CFI Function init
//   23 {
        ; Saved register size: 0
        ; Auto size: 0
//   24   P001 = 1;
        SETB    0x80.0
//   25   P002 = 1;
        SETB    0x80.1
//   26   P003 = 1;
        SETB    0x80.2
//   27   P004 = 1;
        SETB    0x80.3
//   28 }
        LJMP    ?BRET
        CFI EndBlock cfiBlock0
        REQUIRE _A_P0
//   29 
//   30 

        RSEG BANKED_CODE:CODE:NOROOT(0)
//   31 void PARKING()   //温湿传感启动
PARKING:
        CFI Block cfiBlock1 Using cfiCommon0
        CFI Function PARKING
//   32 {
        FUNCALL PARKING, init
        LOCFRAME ISTACK, 2, STACK
        LOCFRAME PSTACK, 0, STACK
        LOCFRAME XSTACK, 0, STACK
        LOCFRAME IOVERLAY, 0, STATIC
        LOCFRAME DOVERLAY, 0, STATIC
        ARGFRAME ISTACK, 2, STACK
        ARGFRAME PSTACK, 0, STACK
        ARGFRAME XSTACK, 0, STACK
        ARGFRAME IOVERLAY, 0, STATIC
        ARGFRAME DOVERLAY, 0, STATIC
        PUSH    DPL
        CFI DPL0 Frame(CFA_SP, 4)
        CFI CFA_SP SP+-4
        PUSH    DPH
        CFI DPH0 Frame(CFA_SP, 5)
        CFI CFA_SP SP+-5
        ; Saved register size: 2
        ; Auto size: 0
//   33   init();
        ; Setup parameters for call to function init
        LCALL   ??init?relay
//   34   
//   35   S001 = P001==0?1:0;
        MOV     C,0x80.0
        CPL     C
        CLR     A
        MOV     0xE0 /* A   */.0,C
        MOV     DPTR,#S001
        MOVX    @DPTR,A
//   36   S002 = P002==0?1:0;
        MOV     C,0x80.1
        JC      ??PARKING_0
        SETB    B.0
        SJMP    ??PARKING_1
??PARKING_0:
        CLR     B.0
??PARKING_1:
        MOV     C,B.0
        CLR     A
        MOV     0xE0 /* A   */.0,C
        MOV     DPTR,#S002
        MOVX    @DPTR,A
//   37   S003 = P003==0?1:0;
        MOV     C,0x80.2
        JC      ??PARKING_2
        SETB    B.0
        SJMP    ??PARKING_3
??PARKING_2:
        CLR     B.0
??PARKING_3:
        MOV     C,B.0
        CLR     A
        MOV     0xE0 /* A   */.0,C
        MOV     DPTR,#S003
        MOVX    @DPTR,A
//   38   S004 = P004==0?1:0;
        MOV     C,0x80.3
        JC      ??PARKING_4
        SETB    B.0
        SJMP    ??PARKING_5
??PARKING_4:
        CLR     B.0
??PARKING_5:
        MOV     C,B.0
        CLR     A
        MOV     0xE0 /* A   */.0,C
        MOV     DPTR,#S004
        MOVX    @DPTR,A
//   39   
//   40 }
        POP     DPH
        CFI DPH0 SameValue
        CFI CFA_SP SP+-4
        POP     DPL
        CFI DPL0 SameValue
        CFI CFA_SP SP+-3
        LJMP    ?BRET
        CFI EndBlock cfiBlock1
        REQUIRE _A_P0

        RSEG XDATA_ID:CODE:NOROOT(0)
        DATA
`?<Initializer for S004>`:
        DB 4

        RSEG BANK_RELAYS:CODE:REORDER:NOROOT(0)
??init?relay:
        LCALL   ?BDISPATCH
        DATA
        DC24    init

        RSEG BANK_RELAYS:CODE:REORDER:NOROOT(0)
??PARKING?relay:
        LCALL   ?BDISPATCH
        DATA
        DC24    PARKING

        END
// 
// 92 bytes in segment BANKED_CODE
// 12 bytes in segment BANK_RELAYS
//  1 byte  in segment SFR_AN
//  1 byte  in segment XDATA_I
//  1 byte  in segment XDATA_ID
//  3 bytes in segment XDATA_Z
// 
// 105 bytes of CODE  memory
//   0 bytes of DATA  memory (+ 1 byte shared)
//   4 bytes of XDATA memory
//
//Errors: none
//Warnings: none
