///////////////////////////////////////////////////////////////////////////////
//                                                                            /
// IAR C/C++ Compiler V7.51A/W32 for 8051               25/May/2015  20:56:19 /
// Copyright 2004-2009 IAR Systems AB.                                        /
//                                                                            /
//    Core               =  plain                                             /
//    Code model         =  banked                                            /
//    Data model         =  large                                             /
//    Calling convention =  xdata reentrant                                   /
//    Constant location  =  data_rom                                          /
//    Dptr setup         =  1,16                                              /
//    Source file        =  C:\Texas Instruments\ZStack-CC2530-2.3.0-1.4.0\Co /
//                          mponents\mt\MT_TASK.c                             /
//    Command line       =  -f "C:\Texas Instruments\ZStack-CC2530-2.3.0-1.4. /
//                          0\Projects\zstack\Samples\ParkingS\CC2530DB\..\.. /
//                          \..\Tools\CC2530DB\f8wCoord.cfg" (-DCPU32MHZ      /
//                          -DROOT=__near_func -DMAC_CFG_APP_PENDING_QUEUE=TR /
//                          UE -DZDO_COORDINATOR -DRTR_NWK -DBLINK_LEDS) -f   /
//                          "C:\Texas Instruments\ZStack-CC2530-2.3.0-1.4.0\P /
//                          rojects\zstack\Samples\ParkingS\CC2530DB\..\..\.. /
//                          \Tools\CC2530DB\f8wConfig.cfg" (-DSECURE=0        /
//                          -DZG_SECURE_DYNAMIC=0 -DREFLECTOR                 /
//                          -DDEFAULT_CHANLIST=0x00000800                     /
//                          -DZDAPP_CONFIG_PAN_ID=0xFFFF                      /
//                          -DNWK_START_DELAY=100 -DEXTENDED_JOINING_RANDOM_M /
//                          ASK=0x007F -DBEACON_REQUEST_DELAY=100             /
//                          -DBEACON_REQ_DELAY_MASK=0x00FF                    /
//                          -DROUTE_EXPIRY_TIME=30 -DAPSC_ACK_WAIT_DURATION_P /
//                          OLLED=3000 -DNWK_INDIRECT_MSG_TIMEOUT=7           /
//                          -DMAX_RREQ_ENTRIES=8 -DAPSC_MAX_FRAME_RETRIES=3   /
//                          -DNWK_MAX_DATA_RETRIES=2                          /
//                          -DMAX_POLL_FAILURE_RETRIES=2 -DMAX_BCAST=9        /
//                          -DAPS_MAX_GROUPS=16 -DMAX_RTG_ENTRIES=40          /
//                          -DNWK_MAX_BINDING_ENTRIES=4                       /
//                          -DMAX_BINDING_CLUSTER_IDS=4                       /
//                          "-DDEFAULT_KEY={0x01, 0x03, 0x05, 0x07, 0x09,     /
//                          0x0B, 0x0D, 0x0F, 0x00, 0x02, 0x04, 0x06, 0x08,   /
//                          0x0A, 0x0C, 0x0D}" -DMAC_MAX_FRAME_SIZE=116       /
//                          "-DCONST=const __code" -DGENERIC=__generic        /
//                          -DRFD_RCVC_ALWAYS_ON=FALSE -DPOLL_RATE=1000       /
//                          -DQUEUED_POLL_RATE=100 -DRESPONSE_POLL_RATE=100)  /
//                          -DREJOIN_POLL_RATE=440 "C:\Texas                  /
//                          Instruments\ZStack-CC2530-2.3.0-1.4.0\Components\ /
//                          mt\MT_TASK.c" -D ZTOOL_P1 -D COORDINATOR -D       /
//                          MT_TASK -D MT_SYS_FUNC -D MT_ZDO_FUNC -D          /
//                          xLCD_SUPPORTED=DEBUG -lC "C:\Texas                /
//                          Instruments\ZStack-CC2530-2.3.0-1.4.0\Projects\zs /
//                          tack\Samples\ParkingS\CC2530DB\CoordinatorEB\List /
//                          \" -lA "C:\Texas Instruments\ZStack-CC2530-2.3.0- /
//                          1.4.0\Projects\zstack\Samples\ParkingS\CC2530DB\C /
//                          oordinatorEB\List\" --diag_suppress Pe001,Pa010   /
//                          -o "C:\Texas Instruments\ZStack-CC2530-2.3.0-1.4. /
//                          0\Projects\zstack\Samples\ParkingS\CC2530DB\Coord /
//                          inatorEB\Obj\" -e --require_prototypes --debug    /
//                          --core=plain --dptr=16,1 --data_model=large       /
//                          --code_model=banked --calling_convention=xdata_re /
//                          entrant --place_constants=data_rom                /
//                          --nr_virtual_regs 16 -I "C:\Texas                 /
//                          Instruments\ZStack-CC2530-2.3.0-1.4.0\Projects\zs /
//                          tack\Samples\ParkingS\CC2530DB\" -I "C:\Texas     /
//                          Instruments\ZStack-CC2530-2.3.0-1.4.0\Projects\zs /
//                          tack\Samples\ParkingS\CC2530DB\..\SOURCE\" -I     /
//                          "C:\Texas Instruments\ZStack-CC2530-2.3.0-1.4.0\P /
//                          rojects\zstack\Samples\ParkingS\CC2530DB\..\..\.. /
//                          \ZMAIN\TI2530DB\" -I "C:\Texas                    /
//                          Instruments\ZStack-CC2530-2.3.0-1.4.0\Projects\zs /
//                          tack\Samples\ParkingS\CC2530DB\..\..\..\..\..\COM /
//                          PONENTS\MT\" -I "C:\Texas                         /
//                          Instruments\ZStack-CC2530-2.3.0-1.4.0\Projects\zs /
//                          tack\Samples\ParkingS\CC2530DB\..\..\..\..\..\COM /
//                          PONENTS\HAL\INCLUDE\" -I "C:\Texas                /
//                          Instruments\ZStack-CC2530-2.3.0-1.4.0\Projects\zs /
//                          tack\Samples\ParkingS\CC2530DB\..\..\..\..\..\COM /
//                          PONENTS\HAL\TARGET\CC2530EB\" -I "C:\Texas        /
//                          Instruments\ZStack-CC2530-2.3.0-1.4.0\Projects\zs /
//                          tack\Samples\ParkingS\CC2530DB\..\..\..\..\..\COM /
//                          PONENTS\OSAL\MCU\CCSOC\" -I "C:\Texas             /
//                          Instruments\ZStack-CC2530-2.3.0-1.4.0\Projects\zs /
//                          tack\Samples\ParkingS\CC2530DB\..\..\..\..\..\COM /
//                          PONENTS\OSAL\INCLUDE\" -I "C:\Texas               /
//                          Instruments\ZStack-CC2530-2.3.0-1.4.0\Projects\zs /
//                          tack\Samples\ParkingS\CC2530DB\..\..\..\..\..\COM /
//                          PONENTS\STACK\AF\" -I "C:\Texas                   /
//                          Instruments\ZStack-CC2530-2.3.0-1.4.0\Projects\zs /
//                          tack\Samples\ParkingS\CC2530DB\..\..\..\..\..\COM /
//                          PONENTS\STACK\NWK\" -I "C:\Texas                  /
//                          Instruments\ZStack-CC2530-2.3.0-1.4.0\Projects\zs /
//                          tack\Samples\ParkingS\CC2530DB\..\..\..\..\..\COM /
//                          PONENTS\STACK\SEC\" -I "C:\Texas                  /
//                          Instruments\ZStack-CC2530-2.3.0-1.4.0\Projects\zs /
//                          tack\Samples\ParkingS\CC2530DB\..\..\..\..\..\COM /
//                          PONENTS\STACK\SAPI\" -I "C:\Texas                 /
//                          Instruments\ZStack-CC2530-2.3.0-1.4.0\Projects\zs /
//                          tack\Samples\ParkingS\CC2530DB\..\..\..\..\..\COM /
//                          PONENTS\STACK\SYS\" -I "C:\Texas                  /
//                          Instruments\ZStack-CC2530-2.3.0-1.4.0\Projects\zs /
//                          tack\Samples\ParkingS\CC2530DB\..\..\..\..\..\COM /
//                          PONENTS\STACK\ZDO\" -I "C:\Texas                  /
//                          Instruments\ZStack-CC2530-2.3.0-1.4.0\Projects\zs /
//                          tack\Samples\ParkingS\CC2530DB\..\..\..\..\..\COM /
//                          PONENTS\ZMAC\F8W\" -I "C:\Texas                   /
//                          Instruments\ZStack-CC2530-2.3.0-1.4.0\Projects\zs /
//                          tack\Samples\ParkingS\CC2530DB\..\..\..\..\..\COM /
//                          PONENTS\ZMAC\" -I "C:\Texas                       /
//                          Instruments\ZStack-CC2530-2.3.0-1.4.0\Projects\zs /
//                          tack\Samples\ParkingS\CC2530DB\..\..\..\..\..\COM /
//                          PONENTS\SERVICES\SADDR\" -I "C:\Texas             /
//                          Instruments\ZStack-CC2530-2.3.0-1.4.0\Projects\zs /
//                          tack\Samples\ParkingS\CC2530DB\..\..\..\..\..\COM /
//                          PONENTS\SERVICES\SDATA\" -I "C:\Texas             /
//                          Instruments\ZStack-CC2530-2.3.0-1.4.0\Projects\zs /
//                          tack\Samples\ParkingS\CC2530DB\..\..\..\..\..\COM /
//                          PONENTS\MAC\INCLUDE\" -I "C:\Texas                /
//                          Instruments\ZStack-CC2530-2.3.0-1.4.0\Projects\zs /
//                          tack\Samples\ParkingS\CC2530DB\..\..\..\..\..\COM /
//                          PONENTS\MAC\HIGH_LEVEL\" -I "C:\Texas             /
//                          Instruments\ZStack-CC2530-2.3.0-1.4.0\Projects\zs /
//                          tack\Samples\ParkingS\CC2530DB\..\..\..\..\..\COM /
//                          PONENTS\MAC\LOW_LEVEL\srf04\" -I "C:\Texas        /
//                          Instruments\ZStack-CC2530-2.3.0-1.4.0\Projects\zs /
//                          tack\Samples\ParkingS\CC2530DB\..\..\..\..\..\COM /
//                          PONENTS\MAC\LOW_LEVEL\srf04\SINGLE_CHIP\" -I      /
//                          "C:\Program Files\IAR Systems\Embedded Workbench  /
//                          5.3\8051\INC\" -I "C:\Program Files\IAR           /
//                          Systems\Embedded Workbench 5.3\8051\INC\CLIB\"    /
//                          -Ohz                                              /
//    List file          =  C:\Texas Instruments\ZStack-CC2530-2.3.0-1.4.0\Pr /
//                          ojects\zstack\Samples\ParkingS\CC2530DB\Coordinat /
//                          orEB\List\MT_TASK.s51                             /
//                                                                            /
//                                                                            /
///////////////////////////////////////////////////////////////////////////////

        NAME MT_TASK

        RTMODEL "__calling_convention", "xdata_reentrant"
        RTMODEL "__code_model", "banked"
        RTMODEL "__core", "plain"
        RTMODEL "__data_model", "large"
        RTMODEL "__dptr_size", "16"
        RTMODEL "__extended_stack", "disabled"
        RTMODEL "__location_for_constants", "data"
        RTMODEL "__number_of_dptrs", "1"
        RTMODEL "__rt_version", "1"

        RSEG DOVERLAY:DATA:NOROOT(0)
        RSEG IOVERLAY:IDATA:NOROOT(0)
        RSEG ISTACK:IDATA:NOROOT(0)
        RSEG PSTACK:XDATA:NOROOT(0)
        RSEG XSTACK:XDATA:NOROOT(0)

        EXTERN ??MT_ProcessIncomingCommand?relay
        EXTERN ?BANKED_ENTER_XDATA
        EXTERN ?BANKED_LEAVE_XDATA
        EXTERN ?BDISPATCH
        EXTERN ?UC_SWITCH_SPARSE
        EXTERN ?V0

        PUBLIC ??MT_ProcessEvent?relay
        FUNCTION ??MT_ProcessEvent?relay,0203H
        PUBLIC ??MT_ProcessIncomingCommand?relay
        FUNCTION ??MT_ProcessIncomingCommand?relay,0203H
        PUBLIC ??MT_TaskInit?relay
        FUNCTION ??MT_TaskInit?relay,0203H
        PUBLIC ??MT_TransportAlloc?relay
        FUNCTION ??MT_TransportAlloc?relay,0203H
        PUBLIC ??MT_TransportSend?relay
        FUNCTION ??MT_TransportSend?relay,0203H
        PUBLIC MT_ProcessEvent
        FUNCTION MT_ProcessEvent,021203H
        ARGFRAME XSTACK, 0, STACK
        LOCFRAME XSTACK, 10, STACK
        PUBLIC MT_ProcessIncomingCommand
        FUNCTION MT_ProcessIncomingCommand,0a1203H
        ARGFRAME XSTACK, 10, STACK
        ARGFRAME IOVERLAY, 0, STATIC
        ARGFRAME DOVERLAY, 0, STATIC
        LOCFRAME ISTACK, 1, STACK
        LOCFRAME XSTACK, 14, STACK
        PUBLIC MT_TaskInit
        FUNCTION MT_TaskInit,021203H
        ARGFRAME XSTACK, 0, STACK
        LOCFRAME XSTACK, 9, STACK
        PUBLIC MT_TransportAlloc
        FUNCTION MT_TransportAlloc,021203H
        ARGFRAME XSTACK, 0, STACK
        LOCFRAME XSTACK, 10, STACK
        PUBLIC MT_TransportSend
        FUNCTION MT_TransportSend,021203H
        ARGFRAME XSTACK, 0, STACK
        LOCFRAME ISTACK, 1, STACK
        LOCFRAME XSTACK, 10, STACK
        
        CFI Names cfiNames0
        CFI StackFrame CFA_SP SP IDATA
        CFI StackFrame CFA_PSP16 PSP16 XDATA
        CFI StackFrame CFA_XSP16 XSP16 XDATA
        CFI StaticOverlayFrame CFA_IOVERLAY IOVERLAY
        CFI StaticOverlayFrame CFA_DOVERLAY DOVERLAY
        CFI Resource `PSW.CY`:1, `B.BR0`:1, `B.BR1`:1, `B.BR2`:1, `B.BR3`:1
        CFI Resource `B.BR4`:1, `B.BR5`:1, `B.BR6`:1, `B.BR7`:1, `VB.BR8`:1
        CFI Resource `VB.BR9`:1, `VB.BR10`:1, `VB.BR11`:1, `VB.BR12`:1
        CFI Resource `VB.BR13`:1, `VB.BR14`:1, `VB.BR15`:1, VB:8, B:8, A:8
        CFI Resource PSW:8, DPL0:8, DPH0:8, R0:8, R1:8, R2:8, R3:8, R4:8, R5:8
        CFI Resource R6:8, R7:8, V0:8, V1:8, V2:8, V3:8, V4:8, V5:8, V6:8, V7:8
        CFI Resource V8:8, V9:8, V10:8, V11:8, V12:8, V13:8, V14:8, V15:8, SP:8
        CFI Resource PSPH:8, PSPL:8, PSP16:16, XSPH:8, XSPL:8, XSP16:16
        CFI VirtualResource ?RET:24
        CFI Resource ?BRET_EXT:8
        CFI VirtualResource ?RET_HIGH:8, ?RET_LOW:8
        CFI ResourceParts PSP16 PSPH, PSPL
        CFI ResourceParts XSP16 XSPH, XSPL
        CFI ResourceParts ?RET ?BRET_EXT, ?RET_HIGH, ?RET_LOW
        CFI EndNames cfiNames0
        
        CFI Common cfiCommon0 Using cfiNames0
        CFI CodeAlign 1
        CFI DataAlign -1
        CFI ReturnAddress ?RET CODE
        CFI CFA_DOVERLAY Used
        CFI CFA_IOVERLAY Used
        CFI CFA_SP SP+-3
        CFI CFA_PSP16 PSP16+0
        CFI CFA_XSP16 XSP16+0
        CFI `PSW.CY` SameValue
        CFI `B.BR0` SameValue
        CFI `B.BR1` SameValue
        CFI `B.BR2` SameValue
        CFI `B.BR3` SameValue
        CFI `B.BR4` SameValue
        CFI `B.BR5` SameValue
        CFI `B.BR6` SameValue
        CFI `B.BR7` SameValue
        CFI `VB.BR8` SameValue
        CFI `VB.BR9` SameValue
        CFI `VB.BR10` SameValue
        CFI `VB.BR11` SameValue
        CFI `VB.BR12` SameValue
        CFI `VB.BR13` SameValue
        CFI `VB.BR14` SameValue
        CFI `VB.BR15` SameValue
        CFI VB SameValue
        CFI B Undefined
        CFI A Undefined
        CFI PSW SameValue
        CFI DPL0 SameValue
        CFI DPH0 SameValue
        CFI R0 Undefined
        CFI R1 Undefined
        CFI R2 Undefined
        CFI R3 Undefined
        CFI R4 Undefined
        CFI R5 Undefined
        CFI R6 SameValue
        CFI R7 SameValue
        CFI V0 SameValue
        CFI V1 SameValue
        CFI V2 SameValue
        CFI V3 SameValue
        CFI V4 SameValue
        CFI V5 SameValue
        CFI V6 SameValue
        CFI V7 SameValue
        CFI V8 SameValue
        CFI V9 SameValue
        CFI V10 SameValue
        CFI V11 SameValue
        CFI V12 SameValue
        CFI V13 SameValue
        CFI V14 SameValue
        CFI V15 SameValue
        CFI PSPH Undefined
        CFI PSPL Undefined
        CFI XSPH Undefined
        CFI XSPL Undefined
        CFI ?RET Concat
        CFI ?BRET_EXT Frame(CFA_SP, 3)
        CFI ?RET_HIGH Frame(CFA_SP, 2)
        CFI ?RET_LOW Frame(CFA_SP, 1)
        CFI EndCommon cfiCommon0
        
MT_UartInit         SYMBOL "MT_UartInit"
MT_UartRegisterTaskID SYMBOL "MT_UartRegisterTaskID"
MT_Init             SYMBOL "MT_Init"
osal_msg_receive    SYMBOL "osal_msg_receive"
MT_SysOsalTimerExpired SYMBOL "MT_SysOsalTimerExpired"
MT_ProcessIncoming  SYMBOL "MT_ProcessIncoming"
MT_ProcessDebugMsg  SYMBOL "MT_ProcessDebugMsg"
MT_UartCalcFCS      SYMBOL "MT_UartCalcFCS"
HalUARTWrite        SYMBOL "HalUARTWrite"
MT_ProcessDebugStr  SYMBOL "MT_ProcessDebugStr"
MTProcessAppRspMsg  SYMBOL "MTProcessAppRspMsg"
osal_msg_deallocate SYMBOL "osal_msg_deallocate"
osal_msg_allocate   SYMBOL "osal_msg_allocate"
??HalUARTWrite?relay SYMBOL "?relay", HalUARTWrite
??MTProcessAppRspMsg?relay SYMBOL "?relay", MTProcessAppRspMsg
??MT_Init?relay     SYMBOL "?relay", MT_Init
??MT_ProcessDebugMsg?relay SYMBOL "?relay", MT_ProcessDebugMsg
??MT_ProcessDebugStr?relay SYMBOL "?relay", MT_ProcessDebugStr
??MT_ProcessIncoming?relay SYMBOL "?relay", MT_ProcessIncoming
??MT_SysOsalTimerExpired?relay SYMBOL "?relay", MT_SysOsalTimerExpired
??MT_UartCalcFCS?relay SYMBOL "?relay", MT_UartCalcFCS
??MT_UartInit?relay SYMBOL "?relay", MT_UartInit
??MT_UartRegisterTaskID?relay SYMBOL "?relay", MT_UartRegisterTaskID
??osal_msg_allocate?relay SYMBOL "?relay", osal_msg_allocate
??osal_msg_deallocate?relay SYMBOL "?relay", osal_msg_deallocate
??osal_msg_receive?relay SYMBOL "?relay", osal_msg_receive
MT_ProcessEvent     SYMBOL "MT_ProcessEvent"
??MT_ProcessEvent?relay SYMBOL "?relay", MT_ProcessEvent
MT_ProcessIncomingCommand SYMBOL "MT_ProcessIncomingCommand"
??MT_ProcessIncomingCommand?relay SYMBOL "?relay", MT_ProcessIncomingCommand
MT_TaskInit         SYMBOL "MT_TaskInit"
??MT_TaskInit?relay SYMBOL "?relay", MT_TaskInit
MT_TransportAlloc   SYMBOL "MT_TransportAlloc"
??MT_TransportAlloc?relay SYMBOL "?relay", MT_TransportAlloc
MT_TransportSend    SYMBOL "MT_TransportSend"
??MT_TransportSend?relay SYMBOL "?relay", MT_TransportSend

        EXTERN MT_UartInit
        FUNCTION MT_UartInit,0202H
        ARGFRAME ISTACK, 0, STACK
        ARGFRAME PSTACK, 0, STACK
        ARGFRAME XSTACK, 9, STACK
        ARGFRAME IOVERLAY, 0, STATIC
        ARGFRAME DOVERLAY, 0, STATIC
        EXTERN MT_UartRegisterTaskID
        FUNCTION MT_UartRegisterTaskID,0202H
        ARGFRAME ISTACK, 0, STACK
        ARGFRAME PSTACK, 0, STACK
        ARGFRAME XSTACK, 9, STACK
        ARGFRAME IOVERLAY, 0, STATIC
        ARGFRAME DOVERLAY, 0, STATIC
        EXTERN MT_Init
        FUNCTION MT_Init,0202H
        ARGFRAME ISTACK, 0, STACK
        ARGFRAME PSTACK, 0, STACK
        ARGFRAME XSTACK, 9, STACK
        ARGFRAME IOVERLAY, 0, STATIC
        ARGFRAME DOVERLAY, 0, STATIC
        EXTERN osal_msg_receive
        FUNCTION osal_msg_receive,0202H
        ARGFRAME ISTACK, 0, STACK
        ARGFRAME PSTACK, 0, STACK
        ARGFRAME XSTACK, 10, STACK
        ARGFRAME IOVERLAY, 0, STATIC
        ARGFRAME DOVERLAY, 0, STATIC
        EXTERN MT_SysOsalTimerExpired
        FUNCTION MT_SysOsalTimerExpired,0202H
        ARGFRAME ISTACK, 0, STACK
        ARGFRAME PSTACK, 0, STACK
        ARGFRAME XSTACK, 10, STACK
        ARGFRAME IOVERLAY, 0, STATIC
        ARGFRAME DOVERLAY, 0, STATIC
        EXTERN MT_ProcessIncoming
        FUNCTION MT_ProcessIncoming,0202H
        ARGFRAME ISTACK, 0, STACK
        ARGFRAME PSTACK, 0, STACK
        ARGFRAME XSTACK, 14, STACK
        ARGFRAME IOVERLAY, 0, STATIC
        ARGFRAME DOVERLAY, 0, STATIC
        EXTERN MT_ProcessDebugMsg
        FUNCTION MT_ProcessDebugMsg,0202H
        ARGFRAME ISTACK, 0, STACK
        ARGFRAME PSTACK, 0, STACK
        ARGFRAME XSTACK, 14, STACK
        ARGFRAME IOVERLAY, 0, STATIC
        ARGFRAME DOVERLAY, 0, STATIC
        EXTERN MT_UartCalcFCS
        FUNCTION MT_UartCalcFCS,0202H
        ARGFRAME ISTACK, 0, STACK
        ARGFRAME PSTACK, 0, STACK
        ARGFRAME XSTACK, 14, STACK
        ARGFRAME IOVERLAY, 0, STATIC
        ARGFRAME DOVERLAY, 0, STATIC
        EXTERN HalUARTWrite
        FUNCTION HalUARTWrite,0202H
        ARGFRAME ISTACK, 0, STACK
        ARGFRAME PSTACK, 0, STACK
        ARGFRAME XSTACK, 14, STACK
        ARGFRAME IOVERLAY, 0, STATIC
        ARGFRAME DOVERLAY, 0, STATIC
        EXTERN MT_ProcessDebugStr
        FUNCTION MT_ProcessDebugStr,0202H
        ARGFRAME ISTACK, 0, STACK
        ARGFRAME PSTACK, 0, STACK
        ARGFRAME XSTACK, 14, STACK
        ARGFRAME IOVERLAY, 0, STATIC
        ARGFRAME DOVERLAY, 0, STATIC
        EXTERN MTProcessAppRspMsg
        FUNCTION MTProcessAppRspMsg,0202H
        ARGFRAME ISTACK, 0, STACK
        ARGFRAME PSTACK, 0, STACK
        ARGFRAME XSTACK, 14, STACK
        ARGFRAME IOVERLAY, 0, STATIC
        ARGFRAME DOVERLAY, 0, STATIC
        EXTERN osal_msg_deallocate
        FUNCTION osal_msg_deallocate,0202H
        ARGFRAME ISTACK, 0, STACK
        ARGFRAME PSTACK, 0, STACK
        ARGFRAME XSTACK, 14, STACK
        ARGFRAME IOVERLAY, 0, STATIC
        ARGFRAME DOVERLAY, 0, STATIC
        EXTERN osal_msg_allocate
        FUNCTION osal_msg_allocate,0202H
        ARGFRAME ISTACK, 0, STACK
        ARGFRAME PSTACK, 0, STACK
        ARGFRAME XSTACK, 10, STACK
        ARGFRAME IOVERLAY, 0, STATIC
        ARGFRAME DOVERLAY, 0, STATIC
        EXTERN ??HalUARTWrite?relay
        FUNCTION ??HalUARTWrite?relay,00H
        EXTERN ??MTProcessAppRspMsg?relay
        FUNCTION ??MTProcessAppRspMsg?relay,00H
        EXTERN ??MT_Init?relay
        FUNCTION ??MT_Init?relay,00H
        EXTERN ??MT_ProcessDebugMsg?relay
        FUNCTION ??MT_ProcessDebugMsg?relay,00H
        EXTERN ??MT_ProcessDebugStr?relay
        FUNCTION ??MT_ProcessDebugStr?relay,00H
        EXTERN ??MT_ProcessIncoming?relay
        FUNCTION ??MT_ProcessIncoming?relay,00H
        EXTERN ??MT_SysOsalTimerExpired?relay
        FUNCTION ??MT_SysOsalTimerExpired?relay,00H
        EXTERN ??MT_UartCalcFCS?relay
        FUNCTION ??MT_UartCalcFCS?relay,00H
        EXTERN ??MT_UartInit?relay
        FUNCTION ??MT_UartInit?relay,00H
        EXTERN ??MT_UartRegisterTaskID?relay
        FUNCTION ??MT_UartRegisterTaskID?relay,00H
        EXTERN ??osal_msg_allocate?relay
        FUNCTION ??osal_msg_allocate?relay,00H
        EXTERN ??osal_msg_deallocate?relay
        FUNCTION ??osal_msg_deallocate?relay,00H
        EXTERN ??osal_msg_receive?relay
        FUNCTION ??osal_msg_receive?relay,00H
        EXTERN MT_TaskID

// C:\Texas Instruments\ZStack-CC2530-2.3.0-1.4.0\Components\mt\MT_TASK.c
//    1 /***************************************************************************************************
//    2   Filename:       MT_TASK.c
//    3   Revised:        $Date: 2009-11-09 20:03:17 -0800 (Mon, 09 Nov 2009) $
//    4   Revision:       $Revision: 21106 $
//    5 
//    6   Description:    MonitorTest Task handling routines
//    7 
//    8   Copyright 2007 Texas Instruments Incorporated. All rights reserved.
//    9 
//   10   IMPORTANT: Your use of this Software is limited to those specific rights
//   11   granted under the terms of a software license agreement between the user
//   12   who downloaded the software, his/her employer (which must be your employer)
//   13   and Texas Instruments Incorporated (the "License").  You may not use this
//   14   Software unless you agree to abide by the terms of the License. The License
//   15   limits your use, and you acknowledge, that the Software may not be modified,
//   16   copied or distributed unless embedded on a Texas Instruments microcontroller
//   17   or used solely and exclusively in conjunction with a Texas Instruments radio
//   18   frequency transceiver, which is integrated into your product.  Other than for
//   19   the foregoing purpose, you may not use, reproduce, copy, prepare derivative
//   20   works of, modify, distribute, perform, display or sell this Software and/or
//   21   its documentation for any purpose.
//   22 
//   23   YOU FURTHER ACKNOWLEDGE AND AGREE THAT THE SOFTWARE AND DOCUMENTATION ARE
//   24   PROVIDED “AS IS” WITHOUT WARRANTY OF ANY KIND, EITHER EXPRESS OR IMPLIED,
//   25   INCLUDING WITHOUT LIMITATION, ANY WARRANTY OF MERCHANTABILITY, TITLE,
//   26   NON-INFRINGEMENT AND FITNESS FOR A PARTICULAR PURPOSE. IN NO EVENT SHALL
//   27   TEXAS INSTRUMENTS OR ITS LICENSORS BE LIABLE OR OBLIGATED UNDER CONTRACT,
//   28   NEGLIGENCE, STRICT LIABILITY, CONTRIBUTION, BREACH OF WARRANTY, OR OTHER
//   29   LEGAL EQUITABLE THEORY ANY DIRECT OR INDIRECT DAMAGES OR EXPENSES
//   30   INCLUDING BUT NOT LIMITED TO ANY INCIDENTAL, SPECIAL, INDIRECT, PUNITIVE
//   31   OR CONSEQUENTIAL DAMAGES, LOST PROFITS OR LOST DATA, COST OF PROCUREMENT
//   32   OF SUBSTITUTE GOODS, TECHNOLOGY, SERVICES, OR ANY CLAIMS BY THIRD PARTIES
//   33   (INCLUDING BUT NOT LIMITED TO ANY DEFENSE THEREOF), OR OTHER SIMILAR COSTS.
//   34 
//   35   Should you have any questions regarding your right to use this Software,
//   36   contact Texas Instruments Incorporated at www.TI.com.
//   37 
//   38  ***************************************************************************************************/
//   39 
//   40 /***************************************************************************************************
//   41  * INCLUDES
//   42  ***************************************************************************************************/
//   43 #include "ZComDef.h"
//   44 #include "MT_TASK.h"
//   45 #include "MT.h"
//   46 #include "MT_DEBUG.h"
//   47 #include "MT_UART.h"
//   48 #include "MT_UTIL.h"
//   49 #include "MT_SYS.h"
//   50 #include "MT_ZDO.h"
//   51 
//   52 #include "hal_uart.h"
//   53 
//   54 #include "OSAL_Memory.h"
//   55 
//   56 /***************************************************************************************************
//   57  * LOCAL FUNCTIONS
//   58  ***************************************************************************************************/
//   59 void MT_ProcessIncomingCommand( mtOSALSerialData_t *msg );
//   60 
//   61 /***************************************************************************************************
//   62  * GLOBALS
//   63  ***************************************************************************************************/
//   64 
//   65 /***************************************************************************************************
//   66  * @fn      MT_TaskInit
//   67  *
//   68  * @brief  MonitorTest Task Initialization.  This function is put into the
//   69  *         task table.
//   70  *
//   71  * @param   byte task_id - task ID of the MT Task
//   72  *
//   73  * @return  void
//   74  ***************************************************************************************************/

        RSEG BANKED_CODE:CODE:NOROOT(0)
//   75 void MT_TaskInit(uint8 task_id)
MT_TaskInit:
        CFI Block cfiBlock0 Using cfiCommon0
        CFI Function MT_TaskInit
//   76 {
        FUNCALL MT_TaskInit, MT_UartInit
        LOCFRAME ISTACK, 0, STACK
        LOCFRAME PSTACK, 0, STACK
        LOCFRAME XSTACK, 9, STACK
        LOCFRAME IOVERLAY, 0, STATIC
        LOCFRAME DOVERLAY, 0, STATIC
        ARGFRAME ISTACK, 0, STACK
        ARGFRAME PSTACK, 0, STACK
        ARGFRAME XSTACK, 9, STACK
        ARGFRAME IOVERLAY, 0, STATIC
        ARGFRAME DOVERLAY, 0, STATIC
        FUNCALL MT_TaskInit, MT_UartRegisterTaskID
        LOCFRAME ISTACK, 0, STACK
        LOCFRAME PSTACK, 0, STACK
        LOCFRAME XSTACK, 9, STACK
        LOCFRAME IOVERLAY, 0, STATIC
        LOCFRAME DOVERLAY, 0, STATIC
        ARGFRAME ISTACK, 0, STACK
        ARGFRAME PSTACK, 0, STACK
        ARGFRAME XSTACK, 9, STACK
        ARGFRAME IOVERLAY, 0, STATIC
        ARGFRAME DOVERLAY, 0, STATIC
        FUNCALL MT_TaskInit, MT_Init
        LOCFRAME ISTACK, 0, STACK
        LOCFRAME PSTACK, 0, STACK
        LOCFRAME XSTACK, 9, STACK
        LOCFRAME IOVERLAY, 0, STATIC
        LOCFRAME DOVERLAY, 0, STATIC
        ARGFRAME ISTACK, 0, STACK
        ARGFRAME PSTACK, 0, STACK
        ARGFRAME XSTACK, 9, STACK
        ARGFRAME IOVERLAY, 0, STATIC
        ARGFRAME DOVERLAY, 0, STATIC
        MOV     A,#-0x9
        LCALL   ?BANKED_ENTER_XDATA
        CFI DPH0 load(1, XDATA, add(CFA_XSP16, literal(-1)))
        CFI DPL0 load(1, XDATA, add(CFA_XSP16, literal(-2)))
        CFI ?BRET_EXT load(1, XDATA, add(CFA_XSP16, literal(-3)))
        CFI ?RET_HIGH load(1, XDATA, add(CFA_XSP16, literal(-4)))
        CFI ?RET_LOW load(1, XDATA, add(CFA_XSP16, literal(-5)))
        CFI R7 load(1, XDATA, add(CFA_XSP16, literal(-6)))
        CFI V0 load(1, XDATA, add(CFA_XSP16, literal(-7)))
        CFI VB load(1, XDATA, add(CFA_XSP16, literal(-8)))
        CFI R6 load(1, XDATA, add(CFA_XSP16, literal(-9)))
        CFI CFA_SP SP+0
        CFI CFA_XSP16 add(XSP16, 9)
        ; Saved register size: 9
        ; Auto size: 0
        MOV     A,R1
        MOV     R6,A
//   77   /* Initialize the Serial port */
//   78   MT_UartInit();
        ; Setup parameters for call to function MT_UartInit
        LCALL   ??MT_UartInit?relay
//   79 
//   80   /* Register taskID - Do this after UartInit() because it will reset the taskID */
//   81   MT_UartRegisterTaskID(task_id);
        ; Setup parameters for call to function MT_UartRegisterTaskID
        MOV     A,R6
        MOV     R1,A
        LCALL   ??MT_UartRegisterTaskID?relay
//   82 
//   83   /* Initialize MT */
//   84   MT_Init(task_id);
        ; Setup parameters for call to function MT_Init
        MOV     A,R6
        MOV     R1,A
        LCALL   ??MT_Init?relay
//   85 }
        MOV     R7,#0x1
        LJMP    ?BANKED_LEAVE_XDATA
        CFI EndBlock cfiBlock0
//   86 
//   87 /***************************************************************************************************
//   88  * @fn      MT_ProcessEvent
//   89  *
//   90  * @brief MonitorTest Task Event Processor.  This task is put into the task table.
//   91  *
//   92  * @param   byte task_id - task ID of the MT Task
//   93  * @param   UINT16 events - event(s) for the MT Task
//   94  *
//   95  * @return  void
//   96  ***************************************************************************************************/

        RSEG BANKED_CODE:CODE:NOROOT(0)
//   97 UINT16 MT_ProcessEvent(uint8 task_id, uint16 events)
MT_ProcessEvent:
        CFI Block cfiBlock1 Using cfiCommon0
        CFI Function MT_ProcessEvent
//   98 {
        FUNCALL MT_ProcessEvent, MT_ProcessIncomingCommand
        LOCFRAME ISTACK, 0, STACK
        LOCFRAME PSTACK, 0, STACK
        LOCFRAME XSTACK, 10, STACK
        LOCFRAME IOVERLAY, 0, STATIC
        LOCFRAME DOVERLAY, 0, STATIC
        ARGFRAME ISTACK, 0, STACK
        ARGFRAME PSTACK, 0, STACK
        ARGFRAME XSTACK, 10, STACK
        ARGFRAME IOVERLAY, 0, STATIC
        ARGFRAME DOVERLAY, 0, STATIC
        FUNCALL MT_ProcessEvent, osal_msg_receive
        LOCFRAME ISTACK, 0, STACK
        LOCFRAME PSTACK, 0, STACK
        LOCFRAME XSTACK, 10, STACK
        LOCFRAME IOVERLAY, 0, STATIC
        LOCFRAME DOVERLAY, 0, STATIC
        ARGFRAME ISTACK, 0, STACK
        ARGFRAME PSTACK, 0, STACK
        ARGFRAME XSTACK, 10, STACK
        ARGFRAME IOVERLAY, 0, STATIC
        ARGFRAME DOVERLAY, 0, STATIC
        FUNCALL MT_ProcessEvent, MT_SysOsalTimerExpired
        LOCFRAME ISTACK, 0, STACK
        LOCFRAME PSTACK, 0, STACK
        LOCFRAME XSTACK, 10, STACK
        LOCFRAME IOVERLAY, 0, STATIC
        LOCFRAME DOVERLAY, 0, STATIC
        ARGFRAME ISTACK, 0, STACK
        ARGFRAME PSTACK, 0, STACK
        ARGFRAME XSTACK, 10, STACK
        ARGFRAME IOVERLAY, 0, STATIC
        ARGFRAME DOVERLAY, 0, STATIC
        FUNCALL MT_ProcessEvent, MT_SysOsalTimerExpired
        LOCFRAME ISTACK, 0, STACK
        LOCFRAME PSTACK, 0, STACK
        LOCFRAME XSTACK, 10, STACK
        LOCFRAME IOVERLAY, 0, STATIC
        LOCFRAME DOVERLAY, 0, STATIC
        ARGFRAME ISTACK, 0, STACK
        ARGFRAME PSTACK, 0, STACK
        ARGFRAME XSTACK, 10, STACK
        ARGFRAME IOVERLAY, 0, STATIC
        ARGFRAME DOVERLAY, 0, STATIC
        FUNCALL MT_ProcessEvent, MT_SysOsalTimerExpired
        LOCFRAME ISTACK, 0, STACK
        LOCFRAME PSTACK, 0, STACK
        LOCFRAME XSTACK, 10, STACK
        LOCFRAME IOVERLAY, 0, STATIC
        LOCFRAME DOVERLAY, 0, STATIC
        ARGFRAME ISTACK, 0, STACK
        ARGFRAME PSTACK, 0, STACK
        ARGFRAME XSTACK, 10, STACK
        ARGFRAME IOVERLAY, 0, STATIC
        ARGFRAME DOVERLAY, 0, STATIC
        FUNCALL MT_ProcessEvent, MT_SysOsalTimerExpired
        LOCFRAME ISTACK, 0, STACK
        LOCFRAME PSTACK, 0, STACK
        LOCFRAME XSTACK, 10, STACK
        LOCFRAME IOVERLAY, 0, STATIC
        LOCFRAME DOVERLAY, 0, STATIC
        ARGFRAME ISTACK, 0, STACK
        ARGFRAME PSTACK, 0, STACK
        ARGFRAME XSTACK, 10, STACK
        ARGFRAME IOVERLAY, 0, STATIC
        ARGFRAME DOVERLAY, 0, STATIC
        MOV     A,#-0xa
        LCALL   ?BANKED_ENTER_XDATA
        CFI DPH0 load(1, XDATA, add(CFA_XSP16, literal(-1)))
        CFI DPL0 load(1, XDATA, add(CFA_XSP16, literal(-2)))
        CFI ?BRET_EXT load(1, XDATA, add(CFA_XSP16, literal(-3)))
        CFI ?RET_HIGH load(1, XDATA, add(CFA_XSP16, literal(-4)))
        CFI ?RET_LOW load(1, XDATA, add(CFA_XSP16, literal(-5)))
        CFI R7 load(1, XDATA, add(CFA_XSP16, literal(-6)))
        CFI V1 load(1, XDATA, add(CFA_XSP16, literal(-7)))
        CFI V0 load(1, XDATA, add(CFA_XSP16, literal(-8)))
        CFI VB load(1, XDATA, add(CFA_XSP16, literal(-9)))
        CFI R6 load(1, XDATA, add(CFA_XSP16, literal(-10)))
        CFI CFA_SP SP+0
        CFI CFA_XSP16 add(XSP16, 10)
        ; Saved register size: 10
        ; Auto size: 0
        MOV     A,R2
        MOV     R6,A
        MOV     A,R3
        MOV     R7,A
//   99   uint8 *msg_ptr;
//  100   
//  101   (void)task_id;  // Intentionally unreferenced parameter
//  102 
//  103   /* Could be multiple events, so switch won't work */
//  104   if ( events & SYS_EVENT_MSG )
        MOV     A,#-0x80
        ANL     A,R7
        MOV     R1,A
        CLR     A
        JNZ     ??MT_ProcessEvent_0
        MOV     A,R1
??MT_ProcessEvent_0:
        JNZ     ??MT_ProcessEvent_1
//  105   {
//  106     while ( (msg_ptr = osal_msg_receive( MT_TaskID )) )
//  107     {
//  108       MT_ProcessIncomingCommand((mtOSALSerialData_t *)msg_ptr);
//  109     }
//  110 
//  111     /* Return unproccessed events */
//  112     return (events ^ SYS_EVENT_MSG);
//  113   }
//  114 
//  115   if ( events & MT_ZTOOL_SERIAL_RCV_BUFFER_FULL )
        MOV     A,R6
        ANL     A,#0x4
        JZ      ??MT_ProcessEvent_2
//  116   {
//  117     /* Return unproccessed events */
//  118     return (events ^ MT_ZTOOL_SERIAL_RCV_BUFFER_FULL);
        MOV     A,#0x4
        XRL     A,R6
        MOV     R2,A
        SJMP    ??MT_ProcessEvent_3
//  119   }
??MT_ProcessEvent_4:
        ; Setup parameters for call to function MT_ProcessIncomingCommand
        LCALL   ??MT_ProcessIncomingCommand?relay
??MT_ProcessEvent_1:
        ; Setup parameters for call to function osal_msg_receive
        MOV     DPTR,#MT_TaskID
        MOVX    A,@DPTR
        MOV     R1,A
        LCALL   ??osal_msg_receive?relay
        MOV     A,R2
        JNZ     ??MT_ProcessEvent_5
        MOV     A,R3
??MT_ProcessEvent_5:
        JNZ     ??MT_ProcessEvent_4
        MOV     A,R6
        MOV     R2,A
        MOV     A,#-0x80
        XRL     A,R7
??MT_ProcessEvent_6:
        MOV     R3,A
        SJMP    ??MT_ProcessEvent_3
//  120 
//  121   /* Handle MT_SYS_OSAL_START_TIMER callbacks */
//  122 #if defined MT_SYS_FUNC
//  123   if ( events & (MT_SYS_OSAL_EVENT_MASK))
??MT_ProcessEvent_2:
        MOV     A,#0xf
        ANL     A,R7
        MOV     R1,A
        CLR     A
        JNZ     ??MT_ProcessEvent_7
        MOV     A,R1
??MT_ProcessEvent_7:
        JZ      ??MT_ProcessEvent_8
//  124   {
//  125     if (events & MT_SYS_OSAL_EVENT_0)
        MOV     A,#0x8
        ANL     A,R7
        MOV     R1,A
        CLR     A
        JNZ     ??MT_ProcessEvent_9
        MOV     A,R1
??MT_ProcessEvent_9:
        JZ      ??MT_ProcessEvent_10
//  126     {
//  127       MT_SysOsalTimerExpired(0x00);
        ; Setup parameters for call to function MT_SysOsalTimerExpired
        MOV     R1,#0x0
        LCALL   ??MT_SysOsalTimerExpired?relay
//  128       events ^= MT_SYS_OSAL_EVENT_0;
        MOV     A,#0x8
        XRL     A,R7
        MOV     R7,A
//  129     }
//  130 
//  131     if (events & MT_SYS_OSAL_EVENT_1)
??MT_ProcessEvent_10:
        MOV     A,#0x4
        ANL     A,R7
        MOV     R1,A
        CLR     A
        JNZ     ??MT_ProcessEvent_11
        MOV     A,R1
??MT_ProcessEvent_11:
        JZ      ??MT_ProcessEvent_12
//  132     {
//  133       MT_SysOsalTimerExpired(0x01);
        ; Setup parameters for call to function MT_SysOsalTimerExpired
        MOV     R1,#0x1
        LCALL   ??MT_SysOsalTimerExpired?relay
//  134       events ^= MT_SYS_OSAL_EVENT_1;
        MOV     A,#0x4
        XRL     A,R7
        MOV     R7,A
//  135     }
//  136 
//  137     if (events & MT_SYS_OSAL_EVENT_2)
??MT_ProcessEvent_12:
        MOV     A,#0x2
        ANL     A,R7
        MOV     R1,A
        CLR     A
        JNZ     ??MT_ProcessEvent_13
        MOV     A,R1
??MT_ProcessEvent_13:
        JZ      ??MT_ProcessEvent_14
//  138     {
//  139       MT_SysOsalTimerExpired(0x02);
        ; Setup parameters for call to function MT_SysOsalTimerExpired
        MOV     R1,#0x2
        LCALL   ??MT_SysOsalTimerExpired?relay
//  140       events ^= MT_SYS_OSAL_EVENT_2;
        MOV     A,#0x2
        XRL     A,R7
        MOV     R7,A
//  141     }
//  142 
//  143     if (events & MT_SYS_OSAL_EVENT_3)
??MT_ProcessEvent_14:
        MOV     A,#0x1
        ANL     A,R7
        MOV     R1,A
        CLR     A
        JNZ     ??MT_ProcessEvent_15
        MOV     A,R1
??MT_ProcessEvent_15:
        JZ      ??MT_ProcessEvent_16
//  144     {
//  145       MT_SysOsalTimerExpired(0x03);
        ; Setup parameters for call to function MT_SysOsalTimerExpired
        MOV     R1,#0x3
        LCALL   ??MT_SysOsalTimerExpired?relay
//  146       events ^= MT_SYS_OSAL_EVENT_3;
        MOV     A,#0x1
        XRL     A,R7
        MOV     R7,A
//  147     }
//  148 
//  149     return events;
??MT_ProcessEvent_16:
        MOV     A,R6
        MOV     R2,A
        MOV     A,R7
        SJMP    ??MT_ProcessEvent_6
//  150   }
//  151 #endif
//  152 
//  153   /* Discard or make more handlers */
//  154   return 0;
??MT_ProcessEvent_8:
        MOV     R2,#0x0
        MOV     R3,#0x0
        CFI EndBlock cfiBlock1
??MT_ProcessEvent_3:
        REQUIRE ?Subroutine0
        ; // Fall through to label ?Subroutine0
//  155 
//  156 } /* MT_ProcessEvent() */

        RSEG BANKED_CODE:CODE:NOROOT(0)
?Subroutine0:
        CFI Block cfiBlock2 Using cfiCommon0
        CFI NoFunction
        CFI CFA_SP SP+0
        CFI CFA_XSP16 add(XSP16, 10)
        CFI VB load(1, XDATA, add(CFA_XSP16, literal(-9)))
        CFI DPL0 load(1, XDATA, add(CFA_XSP16, literal(-2)))
        CFI DPH0 load(1, XDATA, add(CFA_XSP16, literal(-1)))
        CFI R6 load(1, XDATA, add(CFA_XSP16, literal(-10)))
        CFI R7 load(1, XDATA, add(CFA_XSP16, literal(-6)))
        CFI V0 load(1, XDATA, add(CFA_XSP16, literal(-8)))
        CFI V1 load(1, XDATA, add(CFA_XSP16, literal(-7)))
        CFI ?BRET_EXT load(1, XDATA, add(CFA_XSP16, literal(-3)))
        CFI ?RET_HIGH load(1, XDATA, add(CFA_XSP16, literal(-4)))
        CFI ?RET_LOW load(1, XDATA, add(CFA_XSP16, literal(-5)))
        MOV     R7,#0x2
        LJMP    ?BANKED_LEAVE_XDATA
        CFI EndBlock cfiBlock2
//  157 
//  158 /***************************************************************************************************
//  159  * @fn      MT_ProcessIncomingCommand
//  160  *
//  161  * @brief
//  162  *
//  163  *   Process Event Messages.
//  164  *
//  165  * @param   byte *msg - pointer to event message
//  166  *
//  167  * @return
//  168  ***************************************************************************************************/

        RSEG BANKED_CODE:CODE:NOROOT(0)
//  169 void MT_ProcessIncomingCommand( mtOSALSerialData_t *msg )
MT_ProcessIncomingCommand:
        CFI Block cfiBlock3 Using cfiCommon0
        CFI Function MT_ProcessIncomingCommand
//  170 {
        FUNCALL MT_ProcessIncomingCommand, MT_ProcessIncoming
        LOCFRAME ISTACK, 0, STACK
        LOCFRAME PSTACK, 0, STACK
        LOCFRAME XSTACK, 14, STACK
        LOCFRAME IOVERLAY, 0, STATIC
        LOCFRAME DOVERLAY, 0, STATIC
        ARGFRAME ISTACK, 0, STACK
        ARGFRAME PSTACK, 0, STACK
        ARGFRAME XSTACK, 14, STACK
        ARGFRAME IOVERLAY, 0, STATIC
        ARGFRAME DOVERLAY, 0, STATIC
        FUNCALL MT_ProcessIncomingCommand, MT_ProcessDebugMsg
        LOCFRAME ISTACK, 0, STACK
        LOCFRAME PSTACK, 0, STACK
        LOCFRAME XSTACK, 14, STACK
        LOCFRAME IOVERLAY, 0, STATIC
        LOCFRAME DOVERLAY, 0, STATIC
        ARGFRAME ISTACK, 0, STACK
        ARGFRAME PSTACK, 0, STACK
        ARGFRAME XSTACK, 14, STACK
        ARGFRAME IOVERLAY, 0, STATIC
        ARGFRAME DOVERLAY, 0, STATIC
        FUNCALL MT_ProcessIncomingCommand, MT_UartCalcFCS
        LOCFRAME ISTACK, 0, STACK
        LOCFRAME PSTACK, 0, STACK
        LOCFRAME XSTACK, 14, STACK
        LOCFRAME IOVERLAY, 0, STATIC
        LOCFRAME DOVERLAY, 0, STATIC
        ARGFRAME ISTACK, 0, STACK
        ARGFRAME PSTACK, 0, STACK
        ARGFRAME XSTACK, 14, STACK
        ARGFRAME IOVERLAY, 0, STATIC
        ARGFRAME DOVERLAY, 0, STATIC
        FUNCALL MT_ProcessIncomingCommand, HalUARTWrite
        LOCFRAME ISTACK, 0, STACK
        LOCFRAME PSTACK, 0, STACK
        LOCFRAME XSTACK, 14, STACK
        LOCFRAME IOVERLAY, 0, STATIC
        LOCFRAME DOVERLAY, 0, STATIC
        ARGFRAME ISTACK, 0, STACK
        ARGFRAME PSTACK, 0, STACK
        ARGFRAME XSTACK, 14, STACK
        ARGFRAME IOVERLAY, 0, STATIC
        ARGFRAME DOVERLAY, 0, STATIC
        FUNCALL MT_ProcessIncomingCommand, MT_ProcessDebugStr
        LOCFRAME ISTACK, 0, STACK
        LOCFRAME PSTACK, 0, STACK
        LOCFRAME XSTACK, 14, STACK
        LOCFRAME IOVERLAY, 0, STATIC
        LOCFRAME DOVERLAY, 0, STATIC
        ARGFRAME ISTACK, 0, STACK
        ARGFRAME PSTACK, 0, STACK
        ARGFRAME XSTACK, 14, STACK
        ARGFRAME IOVERLAY, 0, STATIC
        ARGFRAME DOVERLAY, 0, STATIC
        FUNCALL MT_ProcessIncomingCommand, MTProcessAppRspMsg
        LOCFRAME ISTACK, 0, STACK
        LOCFRAME PSTACK, 0, STACK
        LOCFRAME XSTACK, 14, STACK
        LOCFRAME IOVERLAY, 0, STATIC
        LOCFRAME DOVERLAY, 0, STATIC
        ARGFRAME ISTACK, 0, STACK
        ARGFRAME PSTACK, 0, STACK
        ARGFRAME XSTACK, 14, STACK
        ARGFRAME IOVERLAY, 0, STATIC
        ARGFRAME DOVERLAY, 0, STATIC
        FUNCALL MT_ProcessIncomingCommand, osal_msg_deallocate
        LOCFRAME ISTACK, 0, STACK
        LOCFRAME PSTACK, 0, STACK
        LOCFRAME XSTACK, 14, STACK
        LOCFRAME IOVERLAY, 0, STATIC
        LOCFRAME DOVERLAY, 0, STATIC
        ARGFRAME ISTACK, 0, STACK
        ARGFRAME PSTACK, 0, STACK
        ARGFRAME XSTACK, 14, STACK
        ARGFRAME IOVERLAY, 0, STATIC
        ARGFRAME DOVERLAY, 0, STATIC
        MOV     A,#-0xe
        LCALL   ?BANKED_ENTER_XDATA
        CFI DPH0 load(1, XDATA, add(CFA_XSP16, literal(-1)))
        CFI DPL0 load(1, XDATA, add(CFA_XSP16, literal(-2)))
        CFI ?BRET_EXT load(1, XDATA, add(CFA_XSP16, literal(-3)))
        CFI ?RET_HIGH load(1, XDATA, add(CFA_XSP16, literal(-4)))
        CFI ?RET_LOW load(1, XDATA, add(CFA_XSP16, literal(-5)))
        CFI R7 load(1, XDATA, add(CFA_XSP16, literal(-6)))
        CFI V5 load(1, XDATA, add(CFA_XSP16, literal(-7)))
        CFI V4 load(1, XDATA, add(CFA_XSP16, literal(-8)))
        CFI V3 load(1, XDATA, add(CFA_XSP16, literal(-9)))
        CFI V2 load(1, XDATA, add(CFA_XSP16, literal(-10)))
        CFI V1 load(1, XDATA, add(CFA_XSP16, literal(-11)))
        CFI V0 load(1, XDATA, add(CFA_XSP16, literal(-12)))
        CFI VB load(1, XDATA, add(CFA_XSP16, literal(-13)))
        CFI R6 load(1, XDATA, add(CFA_XSP16, literal(-14)))
        CFI CFA_SP SP+0
        CFI CFA_XSP16 add(XSP16, 14)
        ; Saved register size: 14
        ; Auto size: 0
        MOV     A,R2
        MOV     R6,A
        MOV     A,R3
        MOV     R7,A
//  171   byte deallocate;
//  172   byte *msg_ptr;
//  173   byte len;
//  174 
//  175   /* A little setup for AF, CB_FUNC and MT_SYS_APP_RSP_MSG */
//  176   msg_ptr = msg->msg;
        MOV     DPL,R6
        MOV     DPH,R7
        INC     DPTR
        INC     DPTR
        MOVX    A,@DPTR
        MOV     R2,A
        INC     DPTR
        MOVX    A,@DPTR
        MOV     R3,A
        MOV     ?V0 + 0,R2
        MOV     ?V0 + 1,R3
//  177 
//  178   deallocate = true;
//  179 
//  180   /* Use the first byte of the message as the command ID */
//  181   switch ( msg->hdr.event )
        MOV     A,R2
        ADD     A,#0x3
        MOV     R0,A
        MOV     A,R3
        ADDC    A,#0x0
        MOV     R1,A
        MOV     DPL,R6
        MOV     DPH,R7
        MOVX    A,@DPTR
        LCALL   ?UC_SWITCH_SPARSE
`?<Jumptable for MT_ProcessIncomingCommand>_0`:
        DATA
        DB        0
        DB        5
        DB        1
        DW        ??MT_ProcessIncomingCommand_0
        DB        2
        DW        ??MT_ProcessIncomingCommand_1
        DB        4
        DW        ??MT_ProcessIncomingCommand_2
        DB        6
        DW        ??MT_ProcessIncomingCommand_3
        DB        36
        DW        ??MT_ProcessIncomingCommand_4
        DW        ??MT_ProcessIncomingCommand_5
        CODE
//  182   {
//  183     case CMD_SERIAL_MSG:
//  184       MT_ProcessIncoming(msg->msg);
??MT_ProcessIncomingCommand_0:
        ; Setup parameters for call to function MT_ProcessIncoming
        LCALL   ??MT_ProcessIncoming?relay
        SJMP    ??MT_ProcessIncomingCommand_5
//  185       break;
//  186 
//  187     case CMD_DEBUG_MSG:
//  188       MT_ProcessDebugMsg( (mtDebugMsg_t *)msg );
??MT_ProcessIncomingCommand_1:
        ; Setup parameters for call to function MT_ProcessDebugMsg
        MOV     A,R6
        MOV     R2,A
        MOV     A,R7
        MOV     R3,A
        LCALL   ??MT_ProcessDebugMsg?relay
        SJMP    ??MT_ProcessIncomingCommand_5
//  189       break;
//  190 
//  191     case CB_FUNC:
//  192       /*
//  193         Build SPI message here instead of redundantly calling MT_BuildSPIMsg
//  194         because we have copied data already in the allocated message
//  195       */
//  196 
//  197       /* msg_ptr is the beginning of the intended SPI message */
//  198       len = SPI_0DATA_MSG_LEN + msg_ptr[DATALEN_FIELD];
??MT_ProcessIncomingCommand_2:
        MOV     DPL,R0
        MOV     DPH,R1
        MOVX    A,@DPTR
        ADD     A,#0x5
        MOV     ?V0 + 2,A
//  199 
//  200       /*
//  201         FCS goes to the last byte in the message and is calculated over all
//  202         the bytes except FCS and SOP
//  203       */
//  204       msg_ptr[len-1] = MT_UartCalcFCS(msg_ptr + 1, (byte)(len-2));
        ; Setup parameters for call to function MT_UartCalcFCS
        MOV     A,#-0x2
        ADD     A,?V0 + 2
        MOV     R1,A
        MOV     DPL,R2
        MOV     DPH,R3
        INC     DPTR
        MOV     R2,DPL
        MOV     R3,DPH
        LCALL   ??MT_UartCalcFCS?relay
        MOV     A,R1
        PUSH    A
        CFI CFA_SP SP+-1
        MOV     ?V0 + 4,?V0 + 2
        MOV     A,?V0 + 0
        ADD     A,?V0 + 4
        MOV     R0,A
        MOV     A,?V0 + 1
        ADDC    A,#0x0
        MOV     R1,A
        MOV     A,#-0x1
        ADD     A,R0
        MOV     DPL,A
        MOV     A,#-0x1
        ADDC    A,R1
        MOV     DPH,A
        POP     A
        CFI CFA_SP SP+0
        MOVX    @DPTR,A
//  205 
//  206 #ifdef MT_UART_DEFAULT_PORT
//  207       HalUARTWrite ( MT_UART_DEFAULT_PORT, msg_ptr, len );
        ; Setup parameters for call to function HalUARTWrite
        MOV     R4,?V0 + 2
        MOV     R5,#0x0
        MOV     R2,?V0 + 0
        MOV     R3,?V0 + 1
        MOV     R1,#0x0
        LCALL   ??HalUARTWrite?relay
        SJMP    ??MT_ProcessIncomingCommand_5
//  208 #endif
//  209       break;
//  210 
//  211     case CMD_DEBUG_STR:
//  212       MT_ProcessDebugStr( (mtDebugStr_t *)msg );
??MT_ProcessIncomingCommand_3:
        ; Setup parameters for call to function MT_ProcessDebugStr
        MOV     A,R6
        MOV     R2,A
        MOV     A,R7
        MOV     R3,A
        LCALL   ??MT_ProcessDebugStr?relay
        SJMP    ??MT_ProcessIncomingCommand_5
//  213       break;
//  214 
//  215 #if !defined ( NONWK )
//  216     case MT_SYS_APP_RSP_MSG:
//  217       len = SPI_0DATA_MSG_LEN + msg_ptr[DATALEN_FIELD];
//  218       MTProcessAppRspMsg( msg_ptr, len );
??MT_ProcessIncomingCommand_4:
        ; Setup parameters for call to function MTProcessAppRspMsg
        MOV     DPL,R0
        MOV     DPH,R1
        MOVX    A,@DPTR
        ADD     A,#0x5
        MOV     R1,A
        LCALL   ??MTProcessAppRspMsg?relay
//  219       break;
//  220 #endif  // NONWK
//  221 
//  222 #if defined (MT_UTIL_FUNC)
//  223 #if defined ZCL_KEY_ESTABLISH
//  224     case ZCL_KEY_ESTABLISH_IND:
//  225       MT_UtilKeyEstablishInd((keyEstablishmentInd_t *)msg);
//  226       break;
//  227 #endif        
//  228 #endif        
//  229 #ifdef MT_ZDO_CB_FUNC
//  230     case ZDO_STATE_CHANGE:
//  231       MT_ZdoStateChangeCB((osal_event_hdr_t *)msg);
//  232       break;
//  233 #endif
//  234 
//  235     default:
//  236       break;
//  237   }
//  238 
//  239   if ( deallocate )
//  240   {
//  241     osal_msg_deallocate( (uint8 *)msg );
??MT_ProcessIncomingCommand_5:
        ; Setup parameters for call to function osal_msg_deallocate
        MOV     A,R6
        MOV     R2,A
        MOV     A,R7
        MOV     R3,A
        LCALL   ??osal_msg_deallocate?relay
//  242   }
//  243 }
        MOV     R7,#0x6
        LJMP    ?BANKED_LEAVE_XDATA
        CFI EndBlock cfiBlock3
//  244 
//  245 #ifdef MT_TASK
//  246 /***************************************************************************************************
//  247  * @fn      MT_TransportAlloc
//  248  *
//  249  * @brief   Allocate memory for transport msg
//  250  *
//  251  * @param   uint8 cmd0 - The first byte of the MT command id containing the command type and subsystem.
//  252  *          uint8 len - length
//  253  *
//  254  * @return  pointer the allocated memory or NULL if fail to allocate the memory
//  255  ***************************************************************************************************/

        RSEG BANKED_CODE:CODE:NOROOT(0)
//  256 uint8 *MT_TransportAlloc(uint8 cmd0, uint8 len)
MT_TransportAlloc:
        CFI Block cfiBlock4 Using cfiCommon0
        CFI Function MT_TransportAlloc
//  257 {
        FUNCALL MT_TransportAlloc, osal_msg_allocate
        LOCFRAME ISTACK, 0, STACK
        LOCFRAME PSTACK, 0, STACK
        LOCFRAME XSTACK, 10, STACK
        LOCFRAME IOVERLAY, 0, STATIC
        LOCFRAME DOVERLAY, 0, STATIC
        ARGFRAME ISTACK, 0, STACK
        ARGFRAME PSTACK, 0, STACK
        ARGFRAME XSTACK, 10, STACK
        ARGFRAME IOVERLAY, 0, STATIC
        ARGFRAME DOVERLAY, 0, STATIC
        MOV     A,#-0xa
        LCALL   ?BANKED_ENTER_XDATA
        CFI DPH0 load(1, XDATA, add(CFA_XSP16, literal(-1)))
        CFI DPL0 load(1, XDATA, add(CFA_XSP16, literal(-2)))
        CFI ?BRET_EXT load(1, XDATA, add(CFA_XSP16, literal(-3)))
        CFI ?RET_HIGH load(1, XDATA, add(CFA_XSP16, literal(-4)))
        CFI ?RET_LOW load(1, XDATA, add(CFA_XSP16, literal(-5)))
        CFI R7 load(1, XDATA, add(CFA_XSP16, literal(-6)))
        CFI V1 load(1, XDATA, add(CFA_XSP16, literal(-7)))
        CFI V0 load(1, XDATA, add(CFA_XSP16, literal(-8)))
        CFI VB load(1, XDATA, add(CFA_XSP16, literal(-9)))
        CFI R6 load(1, XDATA, add(CFA_XSP16, literal(-10)))
        CFI CFA_SP SP+0
        CFI CFA_XSP16 add(XSP16, 10)
        ; Saved register size: 10
        ; Auto size: 0
//  258   uint8 *p;
//  259 
//  260   (void)cmd0;  // Intentionally unreferenced parameter
//  261   
//  262   /* Allocate a buffer of data length + SOP+CMD+FCS (5bytes) */
//  263   p = osal_msg_allocate(len + SPI_0DATA_MSG_LEN);
        ; Setup parameters for call to function osal_msg_allocate
        MOV     ?V0 + 0,R2
        MOV     A,#0x5
        ADD     A,?V0 + 0
        MOV     R2,A
        CLR     A
        ADDC    A,#0x0
        MOV     R3,A
        LCALL   ??osal_msg_allocate?relay
        MOV     DPL,R2
        MOV     DPH,R3
//  264 
//  265   if (p)
        MOV     A,DPL
        JNZ     ??MT_TransportAlloc_0
        MOV     A,DPH
??MT_TransportAlloc_0:
        JZ      ??MT_TransportAlloc_1
//  266   {
//  267     p++; /* Save space for SOP_VALUE, msg structure */
//  268     return p;
        INC     DPTR
        MOV     R2,DPL
        MOV     R3,DPH
        SJMP    ??MT_TransportAlloc_2
//  269   }
//  270   else
//  271   {
//  272     return NULL;
??MT_TransportAlloc_1:
        MOV     R2,#0x0
        MOV     R3,#0x0
//  273   }
??MT_TransportAlloc_2:
        LJMP    ?Subroutine0 & 0xFFFF
        CFI EndBlock cfiBlock4
//  274 }
//  275 
//  276 /***************************************************************************************************
//  277  * @fn      MT_TransportSend
//  278  *
//  279  * @brief   Fill in SOP and FCS then send out the msg
//  280  *
//  281  * @param   uint8 *pBuf - pointer to the message that contains CMD, length, data and FCS
//  282  *
//  283  * @return  None
//  284  ***************************************************************************************************/

        RSEG BANKED_CODE:CODE:NOROOT(0)
//  285 void MT_TransportSend(uint8 *pBuf)
MT_TransportSend:
        CFI Block cfiBlock5 Using cfiCommon0
        CFI Function MT_TransportSend
//  286 {
        FUNCALL MT_TransportSend, MT_UartCalcFCS
        LOCFRAME ISTACK, 0, STACK
        LOCFRAME PSTACK, 0, STACK
        LOCFRAME XSTACK, 10, STACK
        LOCFRAME IOVERLAY, 0, STATIC
        LOCFRAME DOVERLAY, 0, STATIC
        ARGFRAME ISTACK, 0, STACK
        ARGFRAME PSTACK, 0, STACK
        ARGFRAME XSTACK, 10, STACK
        ARGFRAME IOVERLAY, 0, STATIC
        ARGFRAME DOVERLAY, 0, STATIC
        FUNCALL MT_TransportSend, HalUARTWrite
        LOCFRAME ISTACK, 0, STACK
        LOCFRAME PSTACK, 0, STACK
        LOCFRAME XSTACK, 10, STACK
        LOCFRAME IOVERLAY, 0, STATIC
        LOCFRAME DOVERLAY, 0, STATIC
        ARGFRAME ISTACK, 0, STACK
        ARGFRAME PSTACK, 0, STACK
        ARGFRAME XSTACK, 10, STACK
        ARGFRAME IOVERLAY, 0, STATIC
        ARGFRAME DOVERLAY, 0, STATIC
        FUNCALL MT_TransportSend, osal_msg_deallocate
        LOCFRAME ISTACK, 0, STACK
        LOCFRAME PSTACK, 0, STACK
        LOCFRAME XSTACK, 10, STACK
        LOCFRAME IOVERLAY, 0, STATIC
        LOCFRAME DOVERLAY, 0, STATIC
        ARGFRAME ISTACK, 0, STACK
        ARGFRAME PSTACK, 0, STACK
        ARGFRAME XSTACK, 10, STACK
        ARGFRAME IOVERLAY, 0, STATIC
        ARGFRAME DOVERLAY, 0, STATIC
        MOV     A,#-0xa
        LCALL   ?BANKED_ENTER_XDATA
        CFI DPH0 load(1, XDATA, add(CFA_XSP16, literal(-1)))
        CFI DPL0 load(1, XDATA, add(CFA_XSP16, literal(-2)))
        CFI ?BRET_EXT load(1, XDATA, add(CFA_XSP16, literal(-3)))
        CFI ?RET_HIGH load(1, XDATA, add(CFA_XSP16, literal(-4)))
        CFI ?RET_LOW load(1, XDATA, add(CFA_XSP16, literal(-5)))
        CFI R7 load(1, XDATA, add(CFA_XSP16, literal(-6)))
        CFI V1 load(1, XDATA, add(CFA_XSP16, literal(-7)))
        CFI V0 load(1, XDATA, add(CFA_XSP16, literal(-8)))
        CFI VB load(1, XDATA, add(CFA_XSP16, literal(-9)))
        CFI R6 load(1, XDATA, add(CFA_XSP16, literal(-10)))
        CFI CFA_SP SP+0
        CFI CFA_XSP16 add(XSP16, 10)
        ; Saved register size: 10
        ; Auto size: 0
//  287   uint8 *msgPtr;
//  288   uint8 dataLen = pBuf[0]; /* Data length is on byte #1 from the pointer */
        MOV     DPL,R2
        MOV     DPH,R3
        MOVX    A,@DPTR
        MOV     R4,A
//  289 
//  290   /* Move back to the SOP */
//  291   msgPtr = pBuf-1;
        MOV     A,R2
        ADD     A,#-0x1
        MOV     R6,A
        MOV     A,R3
        ADDC    A,#-0x1
        MOV     R7,A
//  292 
//  293   /* Insert SOP */
//  294   msgPtr[0] = MT_UART_SOF;
        MOV     A,#-0x2
        MOV     DPL,R6
        MOV     DPH,R7
        MOVX    @DPTR,A
//  295 
//  296   /* Insert FCS */
//  297   msgPtr[SPI_0DATA_MSG_LEN - 1 + dataLen] = MT_UartCalcFCS (pBuf, (3 + dataLen));
        MOV     DPL,R4
        MOV     ?V0 + 0,DPL
        ; Setup parameters for call to function MT_UartCalcFCS
        MOV     A,#0x3
        ADD     A,R4
        MOV     R1,A
        LCALL   ??MT_UartCalcFCS?relay
        MOV     A,R6
        ADD     A,?V0 + 0
        MOV     DPL,A
        MOV     A,R7
        ADDC    A,#0x0
        MOV     DPH,A
        INC     DPTR
        INC     DPTR
        INC     DPTR
        INC     DPTR
        MOV     A,R1
        MOVX    @DPTR,A
//  298 
//  299   /* Send to UART */
//  300 #ifdef MT_UART_DEFAULT_PORT
//  301   HalUARTWrite(MT_UART_DEFAULT_PORT, msgPtr, dataLen + SPI_0DATA_MSG_LEN);
        ; Setup parameters for call to function HalUARTWrite
        MOV     A,#0x5
        ADD     A,?V0 + 0
        MOV     R4,A
        CLR     A
        ADDC    A,#0x0
        MOV     R5,A
        MOV     A,R6
        MOV     R2,A
        MOV     A,R7
        MOV     R3,A
        MOV     R1,#0x0
        LCALL   ??HalUARTWrite?relay
//  302 #endif
//  303 
//  304   /* Deallocate */
//  305   osal_msg_deallocate(msgPtr);
        ; Setup parameters for call to function osal_msg_deallocate
        MOV     A,R6
        MOV     R2,A
        MOV     A,R7
        MOV     R3,A
        LCALL   ??osal_msg_deallocate?relay
//  306 }
        LJMP    ?Subroutine0 & 0xFFFF
        CFI EndBlock cfiBlock5

        RSEG BANK_RELAYS:CODE:REORDER:NOROOT(0)
??MT_TaskInit?relay:
        LCALL   ?BDISPATCH
        DATA
        DC24    MT_TaskInit

        RSEG BANK_RELAYS:CODE:REORDER:NOROOT(0)
??MT_ProcessEvent?relay:
        LCALL   ?BDISPATCH
        DATA
        DC24    MT_ProcessEvent

        RSEG BANK_RELAYS:CODE:REORDER:NOROOT(0)
??MT_ProcessIncomingCommand?relay:
        LCALL   ?BDISPATCH
        DATA
        DC24    MT_ProcessIncomingCommand

        RSEG BANK_RELAYS:CODE:REORDER:NOROOT(0)
??MT_TransportAlloc?relay:
        LCALL   ?BDISPATCH
        DATA
        DC24    MT_TransportAlloc

        RSEG BANK_RELAYS:CODE:REORDER:NOROOT(0)
??MT_TransportSend?relay:
        LCALL   ?BDISPATCH
        DATA
        DC24    MT_TransportSend

        END
//  307 #endif /* MT_TASK */
//  308 /***************************************************************************************************
//  309  ***************************************************************************************************/
// 
// 482 bytes in segment BANKED_CODE
//  30 bytes in segment BANK_RELAYS
// 
// 512 bytes of CODE memory
//
//Errors: none
//Warnings: none
