///////////////////////////////////////////////////////////////////////////////
//                                                                            /
// IAR C/C++ Compiler V7.51A/W32 for 8051               07/May/2015  10:56:04 /
// Copyright 2004-2009 IAR Systems AB.                                        /
//                                                                            /
//    Core               =  plain                                             /
//    Code model         =  banked                                            /
//    Data model         =  large                                             /
//    Calling convention =  xdata reentrant                                   /
//    Constant location  =  data_rom                                          /
//    Dptr setup         =  1,16                                              /
//    Source file        =  C:\Texas Instruments\ZStack-CC2530-2.3.0-1.4.0\Pr /
//                          ojects\zstack\Samples\ParkingS\Source\LightContro /
//                          l.c                                               /
//    Command line       =  -f "C:\Texas Instruments\ZStack-CC2530-2.3.0-1.4. /
//                          0\Projects\zstack\Samples\ParkingS\CC2530DB\..\.. /
//                          \..\Tools\CC2530DB\f8wEndev.cfg" (-DCPU32MHZ      /
//                          -DROOT=__near_func -DBLINK_LEDS) -f "C:\Texas     /
//                          Instruments\ZStack-CC2530-2.3.0-1.4.0\Projects\zs /
//                          tack\Samples\ParkingS\CC2530DB\..\..\..\Tools\CC2 /
//                          530DB\f8wConfig.cfg" (-DSECURE=0                  /
//                          -DZG_SECURE_DYNAMIC=0 -DREFLECTOR                 /
//                          -DDEFAULT_CHANLIST=0x00000800                     /
//                          -DZDAPP_CONFIG_PAN_ID=0xFFFF                      /
//                          -DNWK_START_DELAY=100 -DEXTENDED_JOINING_RANDOM_M /
//                          ASK=0x007F -DBEACON_REQUEST_DELAY=100             /
//                          -DBEACON_REQ_DELAY_MASK=0x00FF                    /
//                          -DROUTE_EXPIRY_TIME=30 -DAPSC_ACK_WAIT_DURATION_P /
//                          OLLED=3000 -DNWK_INDIRECT_MSG_TIMEOUT=7           /
//                          -DMAX_RREQ_ENTRIES=8 -DAPSC_MAX_FRAME_RETRIES=3   /
//                          -DNWK_MAX_DATA_RETRIES=2                          /
//                          -DMAX_POLL_FAILURE_RETRIES=2 -DMAX_BCAST=9        /
//                          -DAPS_MAX_GROUPS=16 -DMAX_RTG_ENTRIES=40          /
//                          -DNWK_MAX_BINDING_ENTRIES=4                       /
//                          -DMAX_BINDING_CLUSTER_IDS=4                       /
//                          "-DDEFAULT_KEY={0x01, 0x03, 0x05, 0x07, 0x09,     /
//                          0x0B, 0x0D, 0x0F, 0x00, 0x02, 0x04, 0x06, 0x08,   /
//                          0x0A, 0x0C, 0x0D}" -DMAC_MAX_FRAME_SIZE=116       /
//                          "-DCONST=const __code" -DGENERIC=__generic        /
//                          -DRFD_RCVC_ALWAYS_ON=FALSE -DPOLL_RATE=1000       /
//                          -DQUEUED_POLL_RATE=100 -DRESPONSE_POLL_RATE=100)  /
//                          -DREJOIN_POLL_RATE=440 "C:\Texas                  /
//                          Instruments\ZStack-CC2530-2.3.0-1.4.0\Projects\zs /
//                          tack\Samples\ParkingS\Source\LightControl.c" -D   /
//                          ZIGBEEPRO -D NWK_AUTO_POLL -D ZTOOL_P1 -D         /
//                          MT_TASK -D MT_SYS_FUNC -D MT_ZDO_FUNC -D          /
//                          LCD_SUPPORTED=DEBUG -lC "C:\Texas                 /
//                          Instruments\ZStack-CC2530-2.3.0-1.4.0\Projects\zs /
//                          tack\Samples\ParkingS\CC2530DB\EndDeviceEB-Pro\Li /
//                          st\" -lA "C:\Texas Instruments\ZStack-CC2530-2.3. /
//                          0-1.4.0\Projects\zstack\Samples\ParkingS\CC2530DB /
//                          \EndDeviceEB-Pro\List\" --diag_suppress           /
//                          Pe001,Pa010 -o "C:\Texas                          /
//                          Instruments\ZStack-CC2530-2.3.0-1.4.0\Projects\zs /
//                          tack\Samples\ParkingS\CC2530DB\EndDeviceEB-Pro\Ob /
//                          j\" -e --require_prototypes --debug --core=plain  /
//                          --dptr=16,1 --data_model=large                    /
//                          --code_model=banked --calling_convention=xdata_re /
//                          entrant --place_constants=data_rom                /
//                          --nr_virtual_regs 16 -I "C:\Texas                 /
//                          Instruments\ZStack-CC2530-2.3.0-1.4.0\Projects\zs /
//                          tack\Samples\ParkingS\CC2530DB\" -I "C:\Texas     /
//                          Instruments\ZStack-CC2530-2.3.0-1.4.0\Projects\zs /
//                          tack\Samples\ParkingS\CC2530DB\..\SOURCE\" -I     /
//                          "C:\Texas Instruments\ZStack-CC2530-2.3.0-1.4.0\P /
//                          rojects\zstack\Samples\ParkingS\CC2530DB\..\..\.. /
//                          \ZMAIN\TI2530DB\" -I "C:\Texas                    /
//                          Instruments\ZStack-CC2530-2.3.0-1.4.0\Projects\zs /
//                          tack\Samples\ParkingS\CC2530DB\..\..\..\..\..\COM /
//                          PONENTS\MT\" -I "C:\Texas                         /
//                          Instruments\ZStack-CC2530-2.3.0-1.4.0\Projects\zs /
//                          tack\Samples\ParkingS\CC2530DB\..\..\..\..\..\COM /
//                          PONENTS\HAL\INCLUDE\" -I "C:\Texas                /
//                          Instruments\ZStack-CC2530-2.3.0-1.4.0\Projects\zs /
//                          tack\Samples\ParkingS\CC2530DB\..\..\..\..\..\COM /
//                          PONENTS\HAL\TARGET\CC2530EB\" -I "C:\Texas        /
//                          Instruments\ZStack-CC2530-2.3.0-1.4.0\Projects\zs /
//                          tack\Samples\ParkingS\CC2530DB\..\..\..\..\..\COM /
//                          PONENTS\OSAL\MCU\CCSOC\" -I "C:\Texas             /
//                          Instruments\ZStack-CC2530-2.3.0-1.4.0\Projects\zs /
//                          tack\Samples\ParkingS\CC2530DB\..\..\..\..\..\COM /
//                          PONENTS\OSAL\INCLUDE\" -I "C:\Texas               /
//                          Instruments\ZStack-CC2530-2.3.0-1.4.0\Projects\zs /
//                          tack\Samples\ParkingS\CC2530DB\..\..\..\..\..\COM /
//                          PONENTS\STACK\AF\" -I "C:\Texas                   /
//                          Instruments\ZStack-CC2530-2.3.0-1.4.0\Projects\zs /
//                          tack\Samples\ParkingS\CC2530DB\..\..\..\..\..\COM /
//                          PONENTS\STACK\NWK\" -I "C:\Texas                  /
//                          Instruments\ZStack-CC2530-2.3.0-1.4.0\Projects\zs /
//                          tack\Samples\ParkingS\CC2530DB\..\..\..\..\..\COM /
//                          PONENTS\STACK\SEC\" -I "C:\Texas                  /
//                          Instruments\ZStack-CC2530-2.3.0-1.4.0\Projects\zs /
//                          tack\Samples\ParkingS\CC2530DB\..\..\..\..\..\COM /
//                          PONENTS\STACK\SAPI\" -I "C:\Texas                 /
//                          Instruments\ZStack-CC2530-2.3.0-1.4.0\Projects\zs /
//                          tack\Samples\ParkingS\CC2530DB\..\..\..\..\..\COM /
//                          PONENTS\STACK\SYS\" -I "C:\Texas                  /
//                          Instruments\ZStack-CC2530-2.3.0-1.4.0\Projects\zs /
//                          tack\Samples\ParkingS\CC2530DB\..\..\..\..\..\COM /
//                          PONENTS\STACK\ZDO\" -I "C:\Texas                  /
//                          Instruments\ZStack-CC2530-2.3.0-1.4.0\Projects\zs /
//                          tack\Samples\ParkingS\CC2530DB\..\..\..\..\..\COM /
//                          PONENTS\ZMAC\F8W\" -I "C:\Texas                   /
//                          Instruments\ZStack-CC2530-2.3.0-1.4.0\Projects\zs /
//                          tack\Samples\ParkingS\CC2530DB\..\..\..\..\..\COM /
//                          PONENTS\ZMAC\" -I "C:\Texas                       /
//                          Instruments\ZStack-CC2530-2.3.0-1.4.0\Projects\zs /
//                          tack\Samples\ParkingS\CC2530DB\..\..\..\..\..\COM /
//                          PONENTS\SERVICES\SADDR\" -I "C:\Texas             /
//                          Instruments\ZStack-CC2530-2.3.0-1.4.0\Projects\zs /
//                          tack\Samples\ParkingS\CC2530DB\..\..\..\..\..\COM /
//                          PONENTS\SERVICES\SDATA\" -I "C:\Texas             /
//                          Instruments\ZStack-CC2530-2.3.0-1.4.0\Projects\zs /
//                          tack\Samples\ParkingS\CC2530DB\..\..\..\..\..\COM /
//                          PONENTS\MAC\INCLUDE\" -I "C:\Texas                /
//                          Instruments\ZStack-CC2530-2.3.0-1.4.0\Projects\zs /
//                          tack\Samples\ParkingS\CC2530DB\..\..\..\..\..\COM /
//                          PONENTS\MAC\HIGH_LEVEL\" -I "C:\Texas             /
//                          Instruments\ZStack-CC2530-2.3.0-1.4.0\Projects\zs /
//                          tack\Samples\ParkingS\CC2530DB\..\..\..\..\..\COM /
//                          PONENTS\MAC\LOW_LEVEL\srf04\" -I "C:\Texas        /
//                          Instruments\ZStack-CC2530-2.3.0-1.4.0\Projects\zs /
//                          tack\Samples\ParkingS\CC2530DB\..\..\..\..\..\COM /
//                          PONENTS\MAC\LOW_LEVEL\srf04\SINGLE_CHIP\" -I      /
//                          "C:\Program Files\IAR Systems\Embedded Workbench  /
//                          5.3\8051\INC\" -I "C:\Program Files\IAR           /
//                          Systems\Embedded Workbench 5.3\8051\INC\CLIB\"    /
//                          -Ohz                                              /
//    List file          =  C:\Texas Instruments\ZStack-CC2530-2.3.0-1.4.0\Pr /
//                          ojects\zstack\Samples\ParkingS\CC2530DB\EndDevice /
//                          EB-Pro\List\LightControl.s51                      /
//                                                                            /
//                                                                            /
///////////////////////////////////////////////////////////////////////////////

        NAME LightControl

        RTMODEL "__calling_convention", "xdata_reentrant"
        RTMODEL "__code_model", "banked"
        RTMODEL "__core", "plain"
        RTMODEL "__data_model", "large"
        RTMODEL "__dptr_size", "16"
        RTMODEL "__extended_stack", "disabled"
        RTMODEL "__location_for_constants", "data"
        RTMODEL "__number_of_dptrs", "1"
        RTMODEL "__rt_version", "1"

        RSEG DOVERLAY:DATA:NOROOT(0)
        RSEG IOVERLAY:IDATA:NOROOT(0)
        RSEG ISTACK:IDATA:NOROOT(0)
        RSEG PSTACK:XDATA:NOROOT(0)
        RSEG XSTACK:XDATA:NOROOT(0)

        EXTERN ??BH1750_RecvACK?relay
        EXTERN ??BH1750_RecvByte?relay
        EXTERN ??BH1750_SendACK?relay
        EXTERN ??BH1750_SendByte?relay
        EXTERN ??BH1750_Start?relay
        EXTERN ??BH1750_Stop?relay
        EXTERN ??Delay_1ms?relay
        EXTERN ??Delay_1u?relay
        EXTERN ??Read_BH1750?relay
        EXTERN ??SEND_0_1?relay
        EXTERN ??SEND_1_1?relay
        EXTERN ??WriteSCL0?relay
        EXTERN ??WriteSCL1?relay
        EXTERN ??WriteSDA0?relay
        EXTERN ??WriteSDA1?relay
        EXTERN ??conversion?relay
        EXTERN ?BANKED_ENTER_XDATA
        EXTERN ?BANKED_LEAVE_XDATA
        EXTERN ?BDISPATCH
        EXTERN ?BRET
        EXTERN ?FLT_DIV
        EXTERN ?FLT_TO_L
        EXTERN ?L_MOV_X
        EXTERN ?L_TO_FLT
        EXTERN ?S_SHL
        EXTERN ?UL_TO_FLT
        EXTERN ?US_DIV_MOD
        EXTERN ?V0
        EXTERN __INIT_XDATA_Z

        PUBLIC ??BH1750_RecvACK?relay
        FUNCTION ??BH1750_RecvACK?relay,0203H
        PUBLIC ??BH1750_RecvByte?relay
        FUNCTION ??BH1750_RecvByte?relay,0203H
        PUBLIC ??BH1750_SendACK?relay
        FUNCTION ??BH1750_SendACK?relay,0203H
        PUBLIC ??BH1750_SendByte?relay
        FUNCTION ??BH1750_SendByte?relay,0203H
        PUBLIC ??BH1750_Start?relay
        FUNCTION ??BH1750_Start?relay,0203H
        PUBLIC ??BH1750_Stop?relay
        FUNCTION ??BH1750_Stop?relay,0203H
        PUBLIC ??Delay_1ms?relay
        FUNCTION ??Delay_1ms?relay,0203H
        PUBLIC ??Delay_1u?relay
        FUNCTION ??Delay_1u?relay,0203H
        PUBLIC ??Init_BH1750?relay
        FUNCTION ??Init_BH1750?relay,0203H
        PUBLIC ??LIGHT?relay
        FUNCTION ??LIGHT?relay,0203H
        PUBLIC ??ReadSDA?relay
        FUNCTION ??ReadSDA?relay,0203H
        PUBLIC ??Read_BH1750?relay
        FUNCTION ??Read_BH1750?relay,0203H
        PUBLIC ??SEND_0_1?relay
        FUNCTION ??SEND_0_1?relay,0203H
        PUBLIC ??SEND_1_1?relay
        FUNCTION ??SEND_1_1?relay,0203H
        PUBLIC ??Single_Write_BH1750?relay
        FUNCTION ??Single_Write_BH1750?relay,0203H
        PUBLIC ??WriteSCL0?relay
        FUNCTION ??WriteSCL0?relay,0203H
        PUBLIC ??WriteSCL1?relay
        FUNCTION ??WriteSCL1?relay,0203H
        PUBLIC ??WriteSDA0?relay
        FUNCTION ??WriteSDA0?relay,0203H
        PUBLIC ??WriteSDA1?relay
        FUNCTION ??WriteSDA1?relay,0203H
        PUBLIC ??conversion?relay
        FUNCTION ??conversion?relay,0203H
        PUBLIC BH1750_RecvACK
        FUNCTION BH1750_RecvACK,021203H
        ARGFRAME XSTACK, 10, STACK
        ARGFRAME IOVERLAY, 0, STATIC
        ARGFRAME DOVERLAY, 0, STATIC
        LOCFRAME ISTACK, 2, STACK
        PUBLIC BH1750_RecvByte
        FUNCTION BH1750_RecvByte,021203H
        ARGFRAME XSTACK, 16, STACK
        ARGFRAME IOVERLAY, 0, STATIC
        ARGFRAME DOVERLAY, 0, STATIC
        LOCFRAME XSTACK, 9, STACK
        PUBLIC BH1750_SendACK
        FUNCTION BH1750_SendACK,021203H
        ARGFRAME XSTACK, 16, STACK
        ARGFRAME IOVERLAY, 0, STATIC
        ARGFRAME DOVERLAY, 0, STATIC
        LOCFRAME ISTACK, 2, STACK
        PUBLIC BH1750_SendByte
        FUNCTION BH1750_SendByte,021203H
        ARGFRAME XSTACK, 16, STACK
        ARGFRAME IOVERLAY, 0, STATIC
        ARGFRAME DOVERLAY, 0, STATIC
        LOCFRAME XSTACK, 10, STACK
        PUBLIC BH1750_Start
        FUNCTION BH1750_Start,021203H
        ARGFRAME XSTACK, 16, STACK
        ARGFRAME IOVERLAY, 0, STATIC
        ARGFRAME DOVERLAY, 0, STATIC
        LOCFRAME ISTACK, 2, STACK
        PUBLIC BH1750_Stop
        FUNCTION BH1750_Stop,021203H
        ARGFRAME XSTACK, 16, STACK
        ARGFRAME IOVERLAY, 0, STATIC
        ARGFRAME DOVERLAY, 0, STATIC
        LOCFRAME ISTACK, 2, STACK
        PUBLIC Delay_1ms
        FUNCTION Delay_1ms,021203H
        ARGFRAME XSTACK, 16, STACK
        ARGFRAME IOVERLAY, 0, STATIC
        ARGFRAME DOVERLAY, 0, STATIC
        LOCFRAME XSTACK, 10, STACK
        PUBLIC Delay_1u
        FUNCTION Delay_1u,080203H
        ARGFRAME XSTACK, 10, STACK
        ARGFRAME IOVERLAY, 0, STATIC
        ARGFRAME DOVERLAY, 0, STATIC
        PUBLIC Init_BH1750
        FUNCTION Init_BH1750,021203H
        ARGFRAME XSTACK, 0, STACK
        LOCFRAME ISTACK, 2, STACK
        PUBLIC LIGHT
        FUNCTION LIGHT,021203H
        ARGFRAME XSTACK, 0, STACK
        LOCFRAME XSTACK, 12, STACK
        PUBLIC Light
        PUBWEAK P1DIR
        PUBLIC ReadSDA
        FUNCTION ReadSDA,0203H
        ARGFRAME XSTACK, 0, STACK
        PUBLIC Read_BH1750
        FUNCTION Read_BH1750,021203H
        ARGFRAME XSTACK, 12, STACK
        ARGFRAME IOVERLAY, 0, STATIC
        ARGFRAME DOVERLAY, 0, STATIC
        LOCFRAME XSTACK, 16, STACK
        PUBLIC SEND_0_1
        FUNCTION SEND_0_1,021203H
        ARGFRAME XSTACK, 10, STACK
        ARGFRAME IOVERLAY, 0, STATIC
        ARGFRAME DOVERLAY, 0, STATIC
        LOCFRAME ISTACK, 2, STACK
        PUBLIC SEND_1_1
        FUNCTION SEND_1_1,021203H
        ARGFRAME XSTACK, 10, STACK
        ARGFRAME IOVERLAY, 0, STATIC
        ARGFRAME DOVERLAY, 0, STATIC
        LOCFRAME ISTACK, 2, STACK
        PUBLIC Single_Write_BH1750
        FUNCTION Single_Write_BH1750,021203H
        ARGFRAME XSTACK, 0, STACK
        LOCFRAME XSTACK, 9, STACK
        PUBLIC WriteSCL0
        FUNCTION WriteSCL0,0203H
        ARGFRAME XSTACK, 10, STACK
        ARGFRAME IOVERLAY, 0, STATIC
        ARGFRAME DOVERLAY, 0, STATIC
        PUBLIC WriteSCL1
        FUNCTION WriteSCL1,0203H
        ARGFRAME XSTACK, 9, STACK
        ARGFRAME IOVERLAY, 0, STATIC
        ARGFRAME DOVERLAY, 0, STATIC
        PUBLIC WriteSDA0
        FUNCTION WriteSDA0,0203H
        ARGFRAME XSTACK, 0, STACK
        ARGFRAME IOVERLAY, 0, STATIC
        ARGFRAME DOVERLAY, 0, STATIC
        PUBLIC WriteSDA1
        FUNCTION WriteSDA1,0203H
        ARGFRAME XSTACK, 0, STACK
        ARGFRAME IOVERLAY, 0, STATIC
        ARGFRAME DOVERLAY, 0, STATIC
        PUBWEAK _A_P1
        PUBWEAK _A_PSW
        PUBWEAK __Constant_3f99999a
        PUBLIC bai
        PUBLIC conversion
        FUNCTION conversion,0203H
        ARGFRAME XSTACK, 12, STACK
        ARGFRAME IOVERLAY, 0, STATIC
        ARGFRAME DOVERLAY, 0, STATIC
        LOCFRAME XSTACK, 10, STACK
        PUBLIC `ge`
        PUBLIC qian
        PUBLIC shi
        PUBLIC wan
        
        CFI Names cfiNames0
        CFI StackFrame CFA_SP SP IDATA
        CFI StackFrame CFA_PSP16 PSP16 XDATA
        CFI StackFrame CFA_XSP16 XSP16 XDATA
        CFI StaticOverlayFrame CFA_IOVERLAY IOVERLAY
        CFI StaticOverlayFrame CFA_DOVERLAY DOVERLAY
        CFI Resource `PSW.CY`:1, `B.BR0`:1, `B.BR1`:1, `B.BR2`:1, `B.BR3`:1
        CFI Resource `B.BR4`:1, `B.BR5`:1, `B.BR6`:1, `B.BR7`:1, `VB.BR8`:1
        CFI Resource `VB.BR9`:1, `VB.BR10`:1, `VB.BR11`:1, `VB.BR12`:1
        CFI Resource `VB.BR13`:1, `VB.BR14`:1, `VB.BR15`:1, VB:8, B:8, A:8
        CFI Resource PSW:8, DPL0:8, DPH0:8, R0:8, R1:8, R2:8, R3:8, R4:8, R5:8
        CFI Resource R6:8, R7:8, V0:8, V1:8, V2:8, V3:8, V4:8, V5:8, V6:8, V7:8
        CFI Resource V8:8, V9:8, V10:8, V11:8, V12:8, V13:8, V14:8, V15:8, SP:8
        CFI Resource PSPH:8, PSPL:8, PSP16:16, XSPH:8, XSPL:8, XSP16:16
        CFI VirtualResource ?RET:24
        CFI Resource ?BRET_EXT:8
        CFI VirtualResource ?RET_HIGH:8, ?RET_LOW:8
        CFI ResourceParts PSP16 PSPH, PSPL
        CFI ResourceParts XSP16 XSPH, XSPL
        CFI ResourceParts ?RET ?BRET_EXT, ?RET_HIGH, ?RET_LOW
        CFI EndNames cfiNames0
        
        CFI Common cfiCommon0 Using cfiNames0
        CFI CodeAlign 1
        CFI DataAlign -1
        CFI ReturnAddress ?RET CODE
        CFI CFA_DOVERLAY Used
        CFI CFA_IOVERLAY Used
        CFI CFA_SP SP+-3
        CFI CFA_PSP16 PSP16+0
        CFI CFA_XSP16 XSP16+0
        CFI `PSW.CY` SameValue
        CFI `B.BR0` SameValue
        CFI `B.BR1` SameValue
        CFI `B.BR2` SameValue
        CFI `B.BR3` SameValue
        CFI `B.BR4` SameValue
        CFI `B.BR5` SameValue
        CFI `B.BR6` SameValue
        CFI `B.BR7` SameValue
        CFI `VB.BR8` SameValue
        CFI `VB.BR9` SameValue
        CFI `VB.BR10` SameValue
        CFI `VB.BR11` SameValue
        CFI `VB.BR12` SameValue
        CFI `VB.BR13` SameValue
        CFI `VB.BR14` SameValue
        CFI `VB.BR15` SameValue
        CFI VB SameValue
        CFI B Undefined
        CFI A Undefined
        CFI PSW SameValue
        CFI DPL0 SameValue
        CFI DPH0 SameValue
        CFI R0 Undefined
        CFI R1 Undefined
        CFI R2 Undefined
        CFI R3 Undefined
        CFI R4 Undefined
        CFI R5 Undefined
        CFI R6 SameValue
        CFI R7 SameValue
        CFI V0 SameValue
        CFI V1 SameValue
        CFI V2 SameValue
        CFI V3 SameValue
        CFI V4 SameValue
        CFI V5 SameValue
        CFI V6 SameValue
        CFI V7 SameValue
        CFI V8 SameValue
        CFI V9 SameValue
        CFI V10 SameValue
        CFI V11 SameValue
        CFI V12 SameValue
        CFI V13 SameValue
        CFI V14 SameValue
        CFI V15 SameValue
        CFI PSPH Undefined
        CFI PSPL Undefined
        CFI XSPH Undefined
        CFI XSPL Undefined
        CFI ?RET Concat
        CFI ?BRET_EXT Frame(CFA_SP, 3)
        CFI ?RET_HIGH Frame(CFA_SP, 2)
        CFI ?RET_LOW Frame(CFA_SP, 1)
        CFI EndCommon cfiCommon0
        
        
        CFI Common cfiCommon1 Using cfiNames0
        CFI CodeAlign 1
        CFI DataAlign -1
        CFI ReturnAddress ?RET CODE
        CFI CFA_DOVERLAY Used
        CFI CFA_IOVERLAY Used
        CFI CFA_SP SP+-2
        CFI CFA_PSP16 PSP16+0
        CFI CFA_XSP16 XSP16+0
        CFI `PSW.CY` SameValue
        CFI `B.BR0` SameValue
        CFI `B.BR1` SameValue
        CFI `B.BR2` SameValue
        CFI `B.BR3` SameValue
        CFI `B.BR4` SameValue
        CFI `B.BR5` SameValue
        CFI `B.BR6` SameValue
        CFI `B.BR7` SameValue
        CFI `VB.BR8` SameValue
        CFI `VB.BR9` SameValue
        CFI `VB.BR10` SameValue
        CFI `VB.BR11` SameValue
        CFI `VB.BR12` SameValue
        CFI `VB.BR13` SameValue
        CFI `VB.BR14` SameValue
        CFI `VB.BR15` SameValue
        CFI VB SameValue
        CFI B SameValue
        CFI A SameValue
        CFI PSW SameValue
        CFI DPL0 SameValue
        CFI DPH0 SameValue
        CFI R0 SameValue
        CFI R1 SameValue
        CFI R2 SameValue
        CFI R3 SameValue
        CFI R4 SameValue
        CFI R5 SameValue
        CFI R6 SameValue
        CFI R7 SameValue
        CFI V0 SameValue
        CFI V1 SameValue
        CFI V2 SameValue
        CFI V3 SameValue
        CFI V4 SameValue
        CFI V5 SameValue
        CFI V6 SameValue
        CFI V7 SameValue
        CFI V8 SameValue
        CFI V9 SameValue
        CFI V10 SameValue
        CFI V11 SameValue
        CFI V12 SameValue
        CFI V13 SameValue
        CFI V14 SameValue
        CFI V15 SameValue
        CFI PSPH Undefined
        CFI PSPL Undefined
        CFI XSPH Undefined
        CFI XSPL Undefined
        CFI ?RET Concat
        CFI ?BRET_EXT SameValue
        CFI ?RET_HIGH Frame(CFA_SP, 2)
        CFI ?RET_LOW Frame(CFA_SP, 1)
        CFI EndCommon cfiCommon1
        
BH1750_RecvACK      SYMBOL "BH1750_RecvACK"
??BH1750_RecvACK?relay SYMBOL "?relay", BH1750_RecvACK
BH1750_RecvByte     SYMBOL "BH1750_RecvByte"
??BH1750_RecvByte?relay SYMBOL "?relay", BH1750_RecvByte
BH1750_SendACK      SYMBOL "BH1750_SendACK"
??BH1750_SendACK?relay SYMBOL "?relay", BH1750_SendACK
BH1750_SendByte     SYMBOL "BH1750_SendByte"
??BH1750_SendByte?relay SYMBOL "?relay", BH1750_SendByte
BH1750_Start        SYMBOL "BH1750_Start"
??BH1750_Start?relay SYMBOL "?relay", BH1750_Start
BH1750_Stop         SYMBOL "BH1750_Stop"
??BH1750_Stop?relay SYMBOL "?relay", BH1750_Stop
Delay_1ms           SYMBOL "Delay_1ms"
??Delay_1ms?relay   SYMBOL "?relay", Delay_1ms
Delay_1u            SYMBOL "Delay_1u"
??Delay_1u?relay    SYMBOL "?relay", Delay_1u
Init_BH1750         SYMBOL "Init_BH1750"
??Init_BH1750?relay SYMBOL "?relay", Init_BH1750
LIGHT               SYMBOL "LIGHT"
??LIGHT?relay       SYMBOL "?relay", LIGHT
ReadSDA             SYMBOL "ReadSDA"
??ReadSDA?relay     SYMBOL "?relay", ReadSDA
Read_BH1750         SYMBOL "Read_BH1750"
??Read_BH1750?relay SYMBOL "?relay", Read_BH1750
SEND_0_1            SYMBOL "SEND_0_1"
??SEND_0_1?relay    SYMBOL "?relay", SEND_0_1
SEND_1_1            SYMBOL "SEND_1_1"
??SEND_1_1?relay    SYMBOL "?relay", SEND_1_1
Single_Write_BH1750 SYMBOL "Single_Write_BH1750"
??Single_Write_BH1750?relay SYMBOL "?relay", Single_Write_BH1750
WriteSCL0           SYMBOL "WriteSCL0"
??WriteSCL0?relay   SYMBOL "?relay", WriteSCL0
WriteSCL1           SYMBOL "WriteSCL1"
??WriteSCL1?relay   SYMBOL "?relay", WriteSCL1
WriteSDA0           SYMBOL "WriteSDA0"
??WriteSDA0?relay   SYMBOL "?relay", WriteSDA0
WriteSDA1           SYMBOL "WriteSDA1"
??WriteSDA1?relay   SYMBOL "?relay", WriteSDA1
conversion          SYMBOL "conversion"
??conversion?relay  SYMBOL "?relay", conversion

// C:\Texas Instruments\ZStack-CC2530-2.3.0-1.4.0\Projects\zstack\Samples\ParkingS\Source\LightControl.c
//    1 /**************************************************
//    2 ** 功能：停车场内亮度信息采集
//    3 ** 结果：亮度数据保存于数组Light[5]
//    4 ** 硬件：采用光照传感器BH1750（GY-30）
//    5 ** 日期：2015-4-5
//    6 **************************************************/
//    7 
//    8 #include <ioCC2530.h>

        ASEGN SFR_AN:DATA:NOROOT,090H
// union <unnamed> volatile __sfr _A_P1
_A_P1:
        DS 1

        ASEGN SFR_AN:DATA:NOROOT,0d0H
// union <unnamed> volatile __sfr _A_PSW
_A_PSW:
        DS 1

        ASEGN SFR_AN:DATA:NOROOT,0feH
// unsigned char volatile __sfr P1DIR
P1DIR:
        DS 1
//    9 
//   10 #include "LightControl.h"
//   11 
//   12 #define uint unsigned int
//   13 #define uchar unsigned char
//   14 
//   15 #define SlaveAddress 0x46
//   16 
//   17 #define IIC_WRITE 0
//   18 #define IIC_READ  1
//   19 #define TRUE  1
//   20 #define FALSE 0
//   21 
//   22 #define SCL P1_2
//   23 #define SDA P1_3
//   24 

        RSEG XDATA_Z:XDATA:NOROOT(0)
//   25 uchar  ge,shi,bai,qian,wan;        //显示变量
`ge`:
        DS 1
        REQUIRE __INIT_XDATA_Z

        RSEG XDATA_Z:XDATA:NOROOT(0)
shi:
        DS 1
        REQUIRE __INIT_XDATA_Z

        RSEG XDATA_Z:XDATA:NOROOT(0)
bai:
        DS 1
        REQUIRE __INIT_XDATA_Z

        RSEG XDATA_Z:XDATA:NOROOT(0)
qian:
        DS 1
        REQUIRE __INIT_XDATA_Z

        RSEG XDATA_Z:XDATA:NOROOT(0)
wan:
        DS 1
        REQUIRE __INIT_XDATA_Z

        RSEG XDATA_Z:XDATA:NOROOT(0)
//   26 uchar Light[5];
Light:
        DS 5
        REQUIRE __INIT_XDATA_Z
//   27 
//   28 /********************************************************************
//   29 ** 函数定义
//   30 */
//   31 /* 延时1us */

        RSEG BANKED_CODE:CODE:NOROOT(0)
//   32 void Delay_1u(unsigned int times)
Delay_1u:
        CFI Block cfiBlock0 Using cfiCommon0
        CFI Function Delay_1u
//   33 {
        ; Saved register size: 0
        ; Auto size: 0
        SJMP    ??Delay_1u_0
//   34     while(times--)
//   35     {
//   36         asm("nop"); asm("nop"); asm("nop"); asm("nop"); asm("nop");
??Delay_1u_1:
        nop
        nop
        nop
        nop
        nop
//   37         asm("nop"); asm("nop"); asm("nop"); asm("nop"); asm("nop");
        nop
        nop
        nop
        nop
        nop
//   38         asm("nop"); asm("nop"); asm("nop"); asm("nop"); asm("nop");
        nop
        nop
        nop
        nop
        nop
//   39         asm("nop"); asm("nop"); asm("nop"); asm("nop"); asm("nop");
        nop
        nop
        nop
        nop
        nop
//   40         asm("nop"); asm("nop"); asm("nop"); asm("nop"); asm("nop");
        nop
        nop
        nop
        nop
        nop
//   41         asm("nop"); asm("nop"); asm("nop"); asm("nop"); asm("nop");
        nop
        nop
        nop
        nop
        nop
//   42         asm("nop"); asm("nop");
        nop
        nop
//   43     }
??Delay_1u_0:
        MOV     A,R2
        MOV     R0,A
        MOV     A,R3
        MOV     R1,A
        MOV     A,#-0x1
        ADD     A,R0
        DEC     R2
        MOV     A,#-0x1
        ADDC    A,R1
        MOV     R3,A
        MOV     A,R0
        JNZ     ??Delay_1u_2
        MOV     A,R1
??Delay_1u_2:
        JNZ     ??Delay_1u_1
//   44 }
        LJMP    ?BRET
        CFI EndBlock cfiBlock0
//   45 /* 延时1ms */

        RSEG BANKED_CODE:CODE:NOROOT(0)
//   46 void Delay_1ms(unsigned int times)
Delay_1ms:
        CFI Block cfiBlock1 Using cfiCommon0
        CFI Function Delay_1ms
//   47 {
        FUNCALL Delay_1ms, Delay_1u
        LOCFRAME ISTACK, 0, STACK
        LOCFRAME PSTACK, 0, STACK
        LOCFRAME XSTACK, 10, STACK
        LOCFRAME IOVERLAY, 0, STATIC
        LOCFRAME DOVERLAY, 0, STATIC
        ARGFRAME ISTACK, 0, STACK
        ARGFRAME PSTACK, 0, STACK
        ARGFRAME XSTACK, 10, STACK
        ARGFRAME IOVERLAY, 0, STATIC
        ARGFRAME DOVERLAY, 0, STATIC
        MOV     A,#-0xa
        LCALL   ?BANKED_ENTER_XDATA
        CFI DPH0 load(1, XDATA, add(CFA_XSP16, literal(-1)))
        CFI DPL0 load(1, XDATA, add(CFA_XSP16, literal(-2)))
        CFI ?BRET_EXT load(1, XDATA, add(CFA_XSP16, literal(-3)))
        CFI ?RET_HIGH load(1, XDATA, add(CFA_XSP16, literal(-4)))
        CFI ?RET_LOW load(1, XDATA, add(CFA_XSP16, literal(-5)))
        CFI R7 load(1, XDATA, add(CFA_XSP16, literal(-6)))
        CFI V1 load(1, XDATA, add(CFA_XSP16, literal(-7)))
        CFI V0 load(1, XDATA, add(CFA_XSP16, literal(-8)))
        CFI VB load(1, XDATA, add(CFA_XSP16, literal(-9)))
        CFI R6 load(1, XDATA, add(CFA_XSP16, literal(-10)))
        CFI CFA_SP SP+0
        CFI CFA_XSP16 add(XSP16, 10)
        ; Saved register size: 10
        ; Auto size: 0
        MOV     ?V0 + 0,R2
        MOV     ?V0 + 1,R3
//   48     unsigned int i;
//   49     for(i=0; i<times; i++)       
        MOV     R6,#0x0
        MOV     R7,#0x0
        SJMP    ??Delay_1ms_0
//   50         Delay_1u(1000);         // 调用延时函数,延时1ms               
??Delay_1ms_1:
        ; Setup parameters for call to function Delay_1u
        MOV     R2,#-0x18
        MOV     R3,#0x3
        LCALL   ??Delay_1u?relay
        MOV     A,R6
        ADD     A,#0x1
        INC     R6
        MOV     A,R7
        ADDC    A,#0x0
        MOV     R7,A
??Delay_1ms_0:
        CLR     C
        MOV     A,R6
        SUBB    A,?V0 + 0
        MOV     A,R7
        SUBB    A,?V0 + 1
        JC      ??Delay_1ms_1
        CFI EndBlock cfiBlock1
//   51 }
        REQUIRE ?Subroutine8
        ; // Fall through to label ?Subroutine8

        RSEG BANKED_CODE:CODE:NOROOT(0)
?Subroutine8:
        CFI Block cfiBlock2 Using cfiCommon0
        CFI NoFunction
        CFI CFA_SP SP+0
        CFI CFA_XSP16 add(XSP16, 10)
        CFI VB load(1, XDATA, add(CFA_XSP16, literal(-9)))
        CFI DPL0 load(1, XDATA, add(CFA_XSP16, literal(-2)))
        CFI DPH0 load(1, XDATA, add(CFA_XSP16, literal(-1)))
        CFI R6 load(1, XDATA, add(CFA_XSP16, literal(-10)))
        CFI R7 load(1, XDATA, add(CFA_XSP16, literal(-6)))
        CFI V0 load(1, XDATA, add(CFA_XSP16, literal(-8)))
        CFI V1 load(1, XDATA, add(CFA_XSP16, literal(-7)))
        CFI ?BRET_EXT load(1, XDATA, add(CFA_XSP16, literal(-3)))
        CFI ?RET_HIGH load(1, XDATA, add(CFA_XSP16, literal(-4)))
        CFI ?RET_LOW load(1, XDATA, add(CFA_XSP16, literal(-5)))
        MOV     R7,#0x2
        LJMP    ?BANKED_LEAVE_XDATA
        CFI EndBlock cfiBlock2
//   52 

        RSEG BANKED_CODE:CODE:NOROOT(0)
//   53 void WriteSDA1(void)//SDA 输出1,相当于51里面的SDA=1   
WriteSDA1:
        CFI Block cfiBlock3 Using cfiCommon0
        CFI Function WriteSDA1
//   54 {
        ; Saved register size: 0
        ; Auto size: 0
//   55     P1DIR |= 0x08;
        ORL     0xfe,#0x8
//   56     SDA = 1;
        SETB    0x90.3
//   57 }
        LJMP    ?BRET
        CFI EndBlock cfiBlock3
        REQUIRE _A_P1
        REQUIRE P1DIR
//   58      

        RSEG BANKED_CODE:CODE:NOROOT(0)
//   59 void WriteSDA0(void)//SDA 输出0   
WriteSDA0:
        CFI Block cfiBlock4 Using cfiCommon0
        CFI Function WriteSDA0
//   60 {
        ; Saved register size: 0
        ; Auto size: 0
//   61     P1DIR |= 0x08;
        ORL     0xfe,#0x8
//   62     SDA = 0;
        CLR     0x90.3
//   63 }
        LJMP    ?BRET
        CFI EndBlock cfiBlock4
        REQUIRE _A_P1
        REQUIRE P1DIR
//   64      

        RSEG BANKED_CODE:CODE:NOROOT(0)
//   65 void WriteSCL1(void)//SCL 输出1   
WriteSCL1:
        CFI Block cfiBlock5 Using cfiCommon0
        CFI Function WriteSCL1
//   66 {
        ; Saved register size: 0
        ; Auto size: 0
//   67     P1DIR |= 0x04;
        ORL     0xfe,#0x4
//   68     SCL = 1;
        SETB    0x90.2
//   69 }
        LJMP    ?BRET
        CFI EndBlock cfiBlock5
        REQUIRE _A_P1
        REQUIRE P1DIR
//   70      

        RSEG BANKED_CODE:CODE:NOROOT(0)
//   71 void WriteSCL0(void)//SCL 输出0   
WriteSCL0:
        CFI Block cfiBlock6 Using cfiCommon0
        CFI Function WriteSCL0
//   72 {
        ; Saved register size: 0
        ; Auto size: 0
//   73     P1DIR |= 0x04;
        ORL     0xfe,#0x4
//   74     SCL = 0;
        CLR     0x90.2
//   75 }
        LJMP    ?BRET
        CFI EndBlock cfiBlock6
        REQUIRE _A_P1
        REQUIRE P1DIR
//   76      

        RSEG BANKED_CODE:CODE:NOROOT(0)
//   77 void ReadSDA(void)//这里设置SDA对应IO口DIR可以接收数据   
ReadSDA:
        CFI Block cfiBlock7 Using cfiCommon0
        CFI Function ReadSDA
//   78 {
        ; Saved register size: 0
        ; Auto size: 0
//   79     P1DIR &= 0xF7;
        ANL     0xfe,#0xf7
//   80 }
        LJMP    ?BRET
        CFI EndBlock cfiBlock7
        REQUIRE P1DIR
//   81 
//   82 /* 起始信号 */

        RSEG BANKED_CODE:CODE:NOROOT(0)
//   83 void BH1750_Start()
BH1750_Start:
        CFI Block cfiBlock8 Using cfiCommon0
        CFI Function BH1750_Start
//   84 {
        FUNCALL BH1750_Start, WriteSDA1
        LOCFRAME ISTACK, 2, STACK
        LOCFRAME PSTACK, 0, STACK
        LOCFRAME XSTACK, 0, STACK
        LOCFRAME IOVERLAY, 0, STATIC
        LOCFRAME DOVERLAY, 0, STATIC
        ARGFRAME ISTACK, 2, STACK
        ARGFRAME PSTACK, 0, STACK
        ARGFRAME XSTACK, 0, STACK
        ARGFRAME IOVERLAY, 0, STATIC
        ARGFRAME DOVERLAY, 0, STATIC
        FUNCALL BH1750_Start, WriteSCL1
        LOCFRAME ISTACK, 2, STACK
        LOCFRAME PSTACK, 0, STACK
        LOCFRAME XSTACK, 0, STACK
        LOCFRAME IOVERLAY, 0, STATIC
        LOCFRAME DOVERLAY, 0, STATIC
        ARGFRAME ISTACK, 2, STACK
        ARGFRAME PSTACK, 0, STACK
        ARGFRAME XSTACK, 0, STACK
        ARGFRAME IOVERLAY, 0, STATIC
        ARGFRAME DOVERLAY, 0, STATIC
        FUNCALL BH1750_Start, Delay_1u
        LOCFRAME ISTACK, 2, STACK
        LOCFRAME PSTACK, 0, STACK
        LOCFRAME XSTACK, 0, STACK
        LOCFRAME IOVERLAY, 0, STATIC
        LOCFRAME DOVERLAY, 0, STATIC
        ARGFRAME ISTACK, 2, STACK
        ARGFRAME PSTACK, 0, STACK
        ARGFRAME XSTACK, 0, STACK
        ARGFRAME IOVERLAY, 0, STATIC
        ARGFRAME DOVERLAY, 0, STATIC
        FUNCALL BH1750_Start, WriteSDA0
        LOCFRAME ISTACK, 2, STACK
        LOCFRAME PSTACK, 0, STACK
        LOCFRAME XSTACK, 0, STACK
        LOCFRAME IOVERLAY, 0, STATIC
        LOCFRAME DOVERLAY, 0, STATIC
        ARGFRAME ISTACK, 2, STACK
        ARGFRAME PSTACK, 0, STACK
        ARGFRAME XSTACK, 0, STACK
        ARGFRAME IOVERLAY, 0, STATIC
        ARGFRAME DOVERLAY, 0, STATIC
        FUNCALL BH1750_Start, Delay_1u
        LOCFRAME ISTACK, 2, STACK
        LOCFRAME PSTACK, 0, STACK
        LOCFRAME XSTACK, 0, STACK
        LOCFRAME IOVERLAY, 0, STATIC
        LOCFRAME DOVERLAY, 0, STATIC
        ARGFRAME ISTACK, 2, STACK
        ARGFRAME PSTACK, 0, STACK
        ARGFRAME XSTACK, 0, STACK
        ARGFRAME IOVERLAY, 0, STATIC
        ARGFRAME DOVERLAY, 0, STATIC
        FUNCALL BH1750_Start, WriteSCL0
        LOCFRAME ISTACK, 2, STACK
        LOCFRAME PSTACK, 0, STACK
        LOCFRAME XSTACK, 0, STACK
        LOCFRAME IOVERLAY, 0, STATIC
        LOCFRAME DOVERLAY, 0, STATIC
        ARGFRAME ISTACK, 2, STACK
        ARGFRAME PSTACK, 0, STACK
        ARGFRAME XSTACK, 0, STACK
        ARGFRAME IOVERLAY, 0, STATIC
        ARGFRAME DOVERLAY, 0, STATIC
        FUNCALL BH1750_Start, Delay_1u
        LOCFRAME ISTACK, 2, STACK
        LOCFRAME PSTACK, 0, STACK
        LOCFRAME XSTACK, 0, STACK
        LOCFRAME IOVERLAY, 0, STATIC
        LOCFRAME DOVERLAY, 0, STATIC
        ARGFRAME ISTACK, 2, STACK
        ARGFRAME PSTACK, 0, STACK
        ARGFRAME XSTACK, 0, STACK
        ARGFRAME IOVERLAY, 0, STATIC
        ARGFRAME DOVERLAY, 0, STATIC
        PUSH    DPL
        CFI DPL0 Frame(CFA_SP, 4)
        CFI CFA_SP SP+-4
        PUSH    DPH
        CFI DPH0 Frame(CFA_SP, 5)
        CFI CFA_SP SP+-5
        ; Saved register size: 2
        ; Auto size: 0
//   85     WriteSDA1();
        ; Setup parameters for call to function WriteSDA1
        LCALL   ??WriteSDA1?relay
//   86     WriteSCL1();
        ; Setup parameters for call to function WriteSCL1
        LCALL   ?Subroutine1 & 0xFFFF
//   87     Delay_1u(5);
//   88     WriteSDA0();
??CrossCallReturnLabel_22:
        ; Setup parameters for call to function WriteSDA0
        LCALL   ??WriteSDA0?relay
//   89     Delay_1u(5);
        ; Setup parameters for call to function Delay_1u
        SJMP    ?Subroutine7
        CFI EndBlock cfiBlock8
//   90     WriteSCL0();
//   91     Delay_1u(5);
//   92 }
//   93 
//   94 /* 停止信号 */

        RSEG BANKED_CODE:CODE:NOROOT(0)
//   95 void BH1750_Stop()
BH1750_Stop:
        CFI Block cfiBlock9 Using cfiCommon0
        CFI Function BH1750_Stop
//   96 {
        FUNCALL BH1750_Stop, WriteSDA0
        LOCFRAME ISTACK, 2, STACK
        LOCFRAME PSTACK, 0, STACK
        LOCFRAME XSTACK, 0, STACK
        LOCFRAME IOVERLAY, 0, STATIC
        LOCFRAME DOVERLAY, 0, STATIC
        ARGFRAME ISTACK, 2, STACK
        ARGFRAME PSTACK, 0, STACK
        ARGFRAME XSTACK, 0, STACK
        ARGFRAME IOVERLAY, 0, STATIC
        ARGFRAME DOVERLAY, 0, STATIC
        FUNCALL BH1750_Stop, WriteSCL1
        LOCFRAME ISTACK, 2, STACK
        LOCFRAME PSTACK, 0, STACK
        LOCFRAME XSTACK, 0, STACK
        LOCFRAME IOVERLAY, 0, STATIC
        LOCFRAME DOVERLAY, 0, STATIC
        ARGFRAME ISTACK, 2, STACK
        ARGFRAME PSTACK, 0, STACK
        ARGFRAME XSTACK, 0, STACK
        ARGFRAME IOVERLAY, 0, STATIC
        ARGFRAME DOVERLAY, 0, STATIC
        FUNCALL BH1750_Stop, Delay_1u
        LOCFRAME ISTACK, 2, STACK
        LOCFRAME PSTACK, 0, STACK
        LOCFRAME XSTACK, 0, STACK
        LOCFRAME IOVERLAY, 0, STATIC
        LOCFRAME DOVERLAY, 0, STATIC
        ARGFRAME ISTACK, 2, STACK
        ARGFRAME PSTACK, 0, STACK
        ARGFRAME XSTACK, 0, STACK
        ARGFRAME IOVERLAY, 0, STATIC
        ARGFRAME DOVERLAY, 0, STATIC
        FUNCALL BH1750_Stop, WriteSDA1
        LOCFRAME ISTACK, 2, STACK
        LOCFRAME PSTACK, 0, STACK
        LOCFRAME XSTACK, 0, STACK
        LOCFRAME IOVERLAY, 0, STATIC
        LOCFRAME DOVERLAY, 0, STATIC
        ARGFRAME ISTACK, 2, STACK
        ARGFRAME PSTACK, 0, STACK
        ARGFRAME XSTACK, 0, STACK
        ARGFRAME IOVERLAY, 0, STATIC
        ARGFRAME DOVERLAY, 0, STATIC
        FUNCALL BH1750_Stop, Delay_1u
        LOCFRAME ISTACK, 2, STACK
        LOCFRAME PSTACK, 0, STACK
        LOCFRAME XSTACK, 0, STACK
        LOCFRAME IOVERLAY, 0, STATIC
        LOCFRAME DOVERLAY, 0, STATIC
        ARGFRAME ISTACK, 2, STACK
        ARGFRAME PSTACK, 0, STACK
        ARGFRAME XSTACK, 0, STACK
        ARGFRAME IOVERLAY, 0, STATIC
        ARGFRAME DOVERLAY, 0, STATIC
        FUNCALL BH1750_Stop, WriteSCL0
        LOCFRAME ISTACK, 2, STACK
        LOCFRAME PSTACK, 0, STACK
        LOCFRAME XSTACK, 0, STACK
        LOCFRAME IOVERLAY, 0, STATIC
        LOCFRAME DOVERLAY, 0, STATIC
        ARGFRAME ISTACK, 2, STACK
        ARGFRAME PSTACK, 0, STACK
        ARGFRAME XSTACK, 0, STACK
        ARGFRAME IOVERLAY, 0, STATIC
        ARGFRAME DOVERLAY, 0, STATIC
        FUNCALL BH1750_Stop, Delay_1u
        LOCFRAME ISTACK, 2, STACK
        LOCFRAME PSTACK, 0, STACK
        LOCFRAME XSTACK, 0, STACK
        LOCFRAME IOVERLAY, 0, STATIC
        LOCFRAME DOVERLAY, 0, STATIC
        ARGFRAME ISTACK, 2, STACK
        ARGFRAME PSTACK, 0, STACK
        ARGFRAME XSTACK, 0, STACK
        ARGFRAME IOVERLAY, 0, STATIC
        ARGFRAME DOVERLAY, 0, STATIC
        PUSH    DPL
        CFI DPL0 Frame(CFA_SP, 4)
        CFI CFA_SP SP+-4
        PUSH    DPH
        CFI DPH0 Frame(CFA_SP, 5)
        CFI CFA_SP SP+-5
        ; Saved register size: 2
        ; Auto size: 0
//   97     WriteSDA0();
        ; Setup parameters for call to function WriteSDA0
        LCALL   ??WriteSDA0?relay
//   98     WriteSCL1();
        ; Setup parameters for call to function WriteSCL1
        LCALL   ?Subroutine1 & 0xFFFF
//   99     Delay_1u(5);
//  100     WriteSDA1();
??CrossCallReturnLabel_23:
        ; Setup parameters for call to function WriteSDA1
        LCALL   ??WriteSDA1?relay
//  101     Delay_1u(5);
        ; Setup parameters for call to function Delay_1u
        SJMP    ?Subroutine7
        CFI EndBlock cfiBlock9
//  102     WriteSCL0();
//  103     Delay_1u(5);
//  104 }
//  105 
//  106 /* 发送应答信号-入口参数:ack (0:ACK 1:NAK) */

        RSEG BANKED_CODE:CODE:NOROOT(0)
//  107 void BH1750_SendACK(uchar ack)
BH1750_SendACK:
        CFI Block cfiBlock10 Using cfiCommon0
        CFI Function BH1750_SendACK
//  108 {
        FUNCALL BH1750_SendACK, WriteSDA1
        LOCFRAME ISTACK, 2, STACK
        LOCFRAME PSTACK, 0, STACK
        LOCFRAME XSTACK, 0, STACK
        LOCFRAME IOVERLAY, 0, STATIC
        LOCFRAME DOVERLAY, 0, STATIC
        ARGFRAME ISTACK, 2, STACK
        ARGFRAME PSTACK, 0, STACK
        ARGFRAME XSTACK, 0, STACK
        ARGFRAME IOVERLAY, 0, STATIC
        ARGFRAME DOVERLAY, 0, STATIC
        FUNCALL BH1750_SendACK, WriteSDA0
        LOCFRAME ISTACK, 2, STACK
        LOCFRAME PSTACK, 0, STACK
        LOCFRAME XSTACK, 0, STACK
        LOCFRAME IOVERLAY, 0, STATIC
        LOCFRAME DOVERLAY, 0, STATIC
        ARGFRAME ISTACK, 2, STACK
        ARGFRAME PSTACK, 0, STACK
        ARGFRAME XSTACK, 0, STACK
        ARGFRAME IOVERLAY, 0, STATIC
        ARGFRAME DOVERLAY, 0, STATIC
        FUNCALL BH1750_SendACK, Delay_1u
        LOCFRAME ISTACK, 2, STACK
        LOCFRAME PSTACK, 0, STACK
        LOCFRAME XSTACK, 0, STACK
        LOCFRAME IOVERLAY, 0, STATIC
        LOCFRAME DOVERLAY, 0, STATIC
        ARGFRAME ISTACK, 2, STACK
        ARGFRAME PSTACK, 0, STACK
        ARGFRAME XSTACK, 0, STACK
        ARGFRAME IOVERLAY, 0, STATIC
        ARGFRAME DOVERLAY, 0, STATIC
        FUNCALL BH1750_SendACK, WriteSCL1
        LOCFRAME ISTACK, 2, STACK
        LOCFRAME PSTACK, 0, STACK
        LOCFRAME XSTACK, 0, STACK
        LOCFRAME IOVERLAY, 0, STATIC
        LOCFRAME DOVERLAY, 0, STATIC
        ARGFRAME ISTACK, 2, STACK
        ARGFRAME PSTACK, 0, STACK
        ARGFRAME XSTACK, 0, STACK
        ARGFRAME IOVERLAY, 0, STATIC
        ARGFRAME DOVERLAY, 0, STATIC
        FUNCALL BH1750_SendACK, Delay_1u
        LOCFRAME ISTACK, 2, STACK
        LOCFRAME PSTACK, 0, STACK
        LOCFRAME XSTACK, 0, STACK
        LOCFRAME IOVERLAY, 0, STATIC
        LOCFRAME DOVERLAY, 0, STATIC
        ARGFRAME ISTACK, 2, STACK
        ARGFRAME PSTACK, 0, STACK
        ARGFRAME XSTACK, 0, STACK
        ARGFRAME IOVERLAY, 0, STATIC
        ARGFRAME DOVERLAY, 0, STATIC
        FUNCALL BH1750_SendACK, WriteSCL0
        LOCFRAME ISTACK, 2, STACK
        LOCFRAME PSTACK, 0, STACK
        LOCFRAME XSTACK, 0, STACK
        LOCFRAME IOVERLAY, 0, STATIC
        LOCFRAME DOVERLAY, 0, STATIC
        ARGFRAME ISTACK, 2, STACK
        ARGFRAME PSTACK, 0, STACK
        ARGFRAME XSTACK, 0, STACK
        ARGFRAME IOVERLAY, 0, STATIC
        ARGFRAME DOVERLAY, 0, STATIC
        PUSH    DPL
        CFI DPL0 Frame(CFA_SP, 4)
        CFI CFA_SP SP+-4
        PUSH    DPH
        CFI DPH0 Frame(CFA_SP, 5)
        CFI CFA_SP SP+-5
        ; Saved register size: 2
        ; Auto size: 0
//  109    if(ack)
        MOV     A,R1
        JZ      ??BH1750_SendACK_0
//  110    {
//  111        WriteSDA1();
        ; Setup parameters for call to function WriteSDA1
        LCALL   ??WriteSDA1?relay
        SJMP    ??BH1750_SendACK_1
//  112    }
//  113    else
//  114    {
//  115        WriteSDA0();
??BH1750_SendACK_0:
        ; Setup parameters for call to function WriteSDA0
        LCALL   ??WriteSDA0?relay
//  116    }  
//  117      
//  118        Delay_1u(5);
??BH1750_SendACK_1:
        ; Setup parameters for call to function Delay_1u
        MOV     R2,#0x5
        MOV     R3,#0x0
        LCALL   ??Delay_1u?relay
//  119        WriteSCL1();   
        ; Setup parameters for call to function WriteSCL1
        LCALL   ?Subroutine1 & 0xFFFF
//  120        Delay_1u(5);
//  121        WriteSCL0();
??CrossCallReturnLabel_24:
        ; Setup parameters for call to function WriteSCL0
        LCALL   ??WriteSCL0?relay
//  122 }
        SJMP    ??Subroutine12_0
        CFI EndBlock cfiBlock10

        RSEG BANKED_CODE:CODE:NOROOT(0)
?Subroutine1:
        CFI Block cfiCond11 Using cfiCommon0
        CFI NoFunction
        CFI Conditional ??CrossCallReturnLabel_22
        CFI DPL0 Frame(CFA_SP, 4)
        CFI DPH0 Frame(CFA_SP, 5)
        CFI CFA_SP SP+-5
        CFI Block cfiCond12 Using cfiCommon0
        CFI (cfiCond12) NoFunction
        CFI (cfiCond12) Conditional ??CrossCallReturnLabel_23
        CFI (cfiCond12) DPL0 Frame(CFA_SP, 4)
        CFI (cfiCond12) DPH0 Frame(CFA_SP, 5)
        CFI (cfiCond12) CFA_SP SP+-5
        CFI Block cfiCond13 Using cfiCommon0
        CFI (cfiCond13) NoFunction
        CFI (cfiCond13) Conditional ??CrossCallReturnLabel_24
        CFI (cfiCond13) DPL0 Frame(CFA_SP, 4)
        CFI (cfiCond13) DPH0 Frame(CFA_SP, 5)
        CFI (cfiCond13) CFA_SP SP+-5
        CFI Block cfiCond14 Using cfiCommon0
        CFI (cfiCond14) NoFunction
        CFI (cfiCond14) Conditional ??CrossCallReturnLabel_25
        CFI (cfiCond14) R6 load(1, XDATA, add(CFA_XSP16, literal(-9)))
        CFI (cfiCond14) VB load(1, XDATA, add(CFA_XSP16, literal(-8)))
        CFI (cfiCond14) V0 load(1, XDATA, add(CFA_XSP16, literal(-7)))
        CFI (cfiCond14) R7 load(1, XDATA, add(CFA_XSP16, literal(-6)))
        CFI (cfiCond14) ?RET_LOW load(1, XDATA, add(CFA_XSP16, literal(-5)))
        CFI (cfiCond14) ?RET_HIGH load(1, XDATA, add(CFA_XSP16, literal(-4)))
        CFI (cfiCond14) ?BRET_EXT load(1, XDATA, add(CFA_XSP16, literal(-3)))
        CFI (cfiCond14) DPL0 load(1, XDATA, add(CFA_XSP16, literal(-2)))
        CFI (cfiCond14) DPH0 load(1, XDATA, add(CFA_XSP16, literal(-1)))
        CFI (cfiCond14) CFA_SP SP+0
        CFI (cfiCond14) CFA_XSP16 add(XSP16, 9)
        CFI Block cfiPicker15 Using cfiCommon1
        CFI (cfiPicker15) NoFunction
        CFI (cfiPicker15) Picker
        LCALL   ??WriteSCL1?relay
        CFI EndBlock cfiCond11
        CFI EndBlock cfiCond12
        CFI EndBlock cfiCond13
        CFI EndBlock cfiCond14
        CFI EndBlock cfiPicker15
        ; Setup parameters for call to function Delay_1u
        ; Setup parameters for call to function Delay_1u
        ; Setup parameters for call to function Delay_1u
        ; Setup parameters for call to function Delay_1u
        REQUIRE ?Subroutine9
        ; // Fall through to label ?Subroutine9

        RSEG BANKED_CODE:CODE:NOROOT(0)
?Subroutine9:
        CFI Block cfiCond16 Using cfiCommon0
        CFI NoFunction
        CFI Conditional ??CrossCallReturnLabel_22
        CFI DPL0 Frame(CFA_SP, 4)
        CFI DPH0 Frame(CFA_SP, 5)
        CFI CFA_SP SP+-5
        CFI Block cfiCond17 Using cfiCommon0
        CFI (cfiCond17) NoFunction
        CFI (cfiCond17) Conditional ??CrossCallReturnLabel_23
        CFI (cfiCond17) DPL0 Frame(CFA_SP, 4)
        CFI (cfiCond17) DPH0 Frame(CFA_SP, 5)
        CFI (cfiCond17) CFA_SP SP+-5
        CFI Block cfiCond18 Using cfiCommon0
        CFI (cfiCond18) NoFunction
        CFI (cfiCond18) Conditional ??CrossCallReturnLabel_24
        CFI (cfiCond18) DPL0 Frame(CFA_SP, 4)
        CFI (cfiCond18) DPH0 Frame(CFA_SP, 5)
        CFI (cfiCond18) CFA_SP SP+-5
        CFI Block cfiCond19 Using cfiCommon0
        CFI (cfiCond19) NoFunction
        CFI (cfiCond19) Conditional ??CrossCallReturnLabel_25
        CFI (cfiCond19) R6 load(1, XDATA, add(CFA_XSP16, literal(-9)))
        CFI (cfiCond19) VB load(1, XDATA, add(CFA_XSP16, literal(-8)))
        CFI (cfiCond19) V0 load(1, XDATA, add(CFA_XSP16, literal(-7)))
        CFI (cfiCond19) R7 load(1, XDATA, add(CFA_XSP16, literal(-6)))
        CFI (cfiCond19) ?RET_LOW load(1, XDATA, add(CFA_XSP16, literal(-5)))
        CFI (cfiCond19) ?RET_HIGH load(1, XDATA, add(CFA_XSP16, literal(-4)))
        CFI (cfiCond19) ?BRET_EXT load(1, XDATA, add(CFA_XSP16, literal(-3)))
        CFI (cfiCond19) DPL0 load(1, XDATA, add(CFA_XSP16, literal(-2)))
        CFI (cfiCond19) DPH0 load(1, XDATA, add(CFA_XSP16, literal(-1)))
        CFI (cfiCond19) CFA_SP SP+0
        CFI (cfiCond19) CFA_XSP16 add(XSP16, 9)
        CFI Block cfiCond20 Using cfiCommon0
        CFI (cfiCond20) NoFunction
        CFI (cfiCond20) Conditional ??CrossCallReturnLabel_17
        CFI (cfiCond20) DPL0 Frame(CFA_SP, 4)
        CFI (cfiCond20) DPH0 Frame(CFA_SP, 5)
        CFI (cfiCond20) CFA_SP SP+-5
        CFI Block cfiCond21 Using cfiCommon0
        CFI (cfiCond21) NoFunction
        CFI (cfiCond21) Conditional ??CrossCallReturnLabel_17
        CFI (cfiCond21) DPL0 Frame(CFA_SP, 4)
        CFI (cfiCond21) DPH0 Frame(CFA_SP, 5)
        CFI (cfiCond21) CFA_SP SP+-5
        CFI Block cfiCond22 Using cfiCommon0
        CFI (cfiCond22) NoFunction
        CFI (cfiCond22) Conditional ??CrossCallReturnLabel_18
        CFI (cfiCond22) DPL0 Frame(CFA_SP, 4)
        CFI (cfiCond22) DPH0 Frame(CFA_SP, 5)
        CFI (cfiCond22) CFA_SP SP+-5
        CFI Block cfiCond23 Using cfiCommon0
        CFI (cfiCond23) NoFunction
        CFI (cfiCond23) Conditional ??CrossCallReturnLabel_19
        CFI (cfiCond23) DPL0 Frame(CFA_SP, 4)
        CFI (cfiCond23) DPH0 Frame(CFA_SP, 5)
        CFI (cfiCond23) CFA_SP SP+-5
        CFI Block cfiCond24 Using cfiCommon0
        CFI (cfiCond24) NoFunction
        CFI (cfiCond24) Conditional ??CrossCallReturnLabel_19
        CFI (cfiCond24) DPL0 Frame(CFA_SP, 4)
        CFI (cfiCond24) DPH0 Frame(CFA_SP, 5)
        CFI (cfiCond24) CFA_SP SP+-5
        CFI Block cfiCond25 Using cfiCommon0
        CFI (cfiCond25) NoFunction
        CFI (cfiCond25) Conditional ??CrossCallReturnLabel_20
        CFI (cfiCond25) R6 load(1, XDATA, add(CFA_XSP16, literal(-9)))
        CFI (cfiCond25) VB load(1, XDATA, add(CFA_XSP16, literal(-8)))
        CFI (cfiCond25) V0 load(1, XDATA, add(CFA_XSP16, literal(-7)))
        CFI (cfiCond25) R7 load(1, XDATA, add(CFA_XSP16, literal(-6)))
        CFI (cfiCond25) ?RET_LOW load(1, XDATA, add(CFA_XSP16, literal(-5)))
        CFI (cfiCond25) ?RET_HIGH load(1, XDATA, add(CFA_XSP16, literal(-4)))
        CFI (cfiCond25) ?BRET_EXT load(1, XDATA, add(CFA_XSP16, literal(-3)))
        CFI (cfiCond25) DPL0 load(1, XDATA, add(CFA_XSP16, literal(-2)))
        CFI (cfiCond25) DPH0 load(1, XDATA, add(CFA_XSP16, literal(-1)))
        CFI (cfiCond25) CFA_SP SP+0
        CFI (cfiCond25) CFA_XSP16 add(XSP16, 9)
        CFI Block cfiCond26 Using cfiCommon0
        CFI (cfiCond26) NoFunction
        CFI (cfiCond26) Conditional ??CrossCallReturnLabel_21
        CFI (cfiCond26) R6 load(1, XDATA, add(CFA_XSP16, literal(-9)))
        CFI (cfiCond26) VB load(1, XDATA, add(CFA_XSP16, literal(-8)))
        CFI (cfiCond26) V0 load(1, XDATA, add(CFA_XSP16, literal(-7)))
        CFI (cfiCond26) R7 load(1, XDATA, add(CFA_XSP16, literal(-6)))
        CFI (cfiCond26) ?RET_LOW load(1, XDATA, add(CFA_XSP16, literal(-5)))
        CFI (cfiCond26) ?RET_HIGH load(1, XDATA, add(CFA_XSP16, literal(-4)))
        CFI (cfiCond26) ?BRET_EXT load(1, XDATA, add(CFA_XSP16, literal(-3)))
        CFI (cfiCond26) DPL0 load(1, XDATA, add(CFA_XSP16, literal(-2)))
        CFI (cfiCond26) DPH0 load(1, XDATA, add(CFA_XSP16, literal(-1)))
        CFI (cfiCond26) CFA_SP SP+0
        CFI (cfiCond26) CFA_XSP16 add(XSP16, 9)
        CFI Block cfiPicker27 Using cfiCommon1
        CFI (cfiPicker27) NoFunction
        CFI (cfiPicker27) Picker
        MOV     R2,#0x5
        MOV     R3,#0x0
        LCALL   ??Delay_1u?relay
        RET
        CFI EndBlock cfiCond16
        CFI EndBlock cfiCond17
        CFI EndBlock cfiCond18
        CFI EndBlock cfiCond19
        CFI EndBlock cfiCond20
        CFI EndBlock cfiCond21
        CFI EndBlock cfiCond22
        CFI EndBlock cfiCond23
        CFI EndBlock cfiCond24
        CFI EndBlock cfiCond25
        CFI EndBlock cfiCond26
        CFI EndBlock cfiPicker27
//  123 
//  124 /* 接收应答信号 */

        RSEG BANKED_CODE:CODE:NOROOT(0)
//  125 uchar BH1750_RecvACK()
BH1750_RecvACK:
        CFI Block cfiBlock28 Using cfiCommon0
        CFI Function BH1750_RecvACK
//  126 {        
        FUNCALL BH1750_RecvACK, WriteSCL1
        LOCFRAME ISTACK, 2, STACK
        LOCFRAME PSTACK, 0, STACK
        LOCFRAME XSTACK, 0, STACK
        LOCFRAME IOVERLAY, 0, STATIC
        LOCFRAME DOVERLAY, 0, STATIC
        ARGFRAME ISTACK, 2, STACK
        ARGFRAME PSTACK, 0, STACK
        ARGFRAME XSTACK, 0, STACK
        ARGFRAME IOVERLAY, 0, STATIC
        ARGFRAME DOVERLAY, 0, STATIC
        FUNCALL BH1750_RecvACK, Delay_1u
        LOCFRAME ISTACK, 2, STACK
        LOCFRAME PSTACK, 0, STACK
        LOCFRAME XSTACK, 0, STACK
        LOCFRAME IOVERLAY, 0, STATIC
        LOCFRAME DOVERLAY, 0, STATIC
        ARGFRAME ISTACK, 2, STACK
        ARGFRAME PSTACK, 0, STACK
        ARGFRAME XSTACK, 0, STACK
        ARGFRAME IOVERLAY, 0, STATIC
        ARGFRAME DOVERLAY, 0, STATIC
        FUNCALL BH1750_RecvACK, WriteSCL0
        LOCFRAME ISTACK, 2, STACK
        LOCFRAME PSTACK, 0, STACK
        LOCFRAME XSTACK, 0, STACK
        LOCFRAME IOVERLAY, 0, STATIC
        LOCFRAME DOVERLAY, 0, STATIC
        ARGFRAME ISTACK, 2, STACK
        ARGFRAME PSTACK, 0, STACK
        ARGFRAME XSTACK, 0, STACK
        ARGFRAME IOVERLAY, 0, STATIC
        ARGFRAME DOVERLAY, 0, STATIC
        FUNCALL BH1750_RecvACK, Delay_1u
        LOCFRAME ISTACK, 2, STACK
        LOCFRAME PSTACK, 0, STACK
        LOCFRAME XSTACK, 0, STACK
        LOCFRAME IOVERLAY, 0, STATIC
        LOCFRAME DOVERLAY, 0, STATIC
        ARGFRAME ISTACK, 2, STACK
        ARGFRAME PSTACK, 0, STACK
        ARGFRAME XSTACK, 0, STACK
        ARGFRAME IOVERLAY, 0, STATIC
        ARGFRAME DOVERLAY, 0, STATIC
        PUSH    DPL
        CFI DPL0 Frame(CFA_SP, 4)
        CFI CFA_SP SP+-4
        PUSH    DPH
        CFI DPH0 Frame(CFA_SP, 5)
        CFI CFA_SP SP+-5
        ; Saved register size: 2
        ; Auto size: 0
//  127     //unsigned int i=10;
//  128     ReadSDA();F0=SDA;
        ANL     0xfe,#0xf7
        MOV     C,0x90.3
        MOV     0xd0.5,C
//  129     WriteSCL1();
        ; Setup parameters for call to function WriteSCL1
        LCALL   ??Subroutine13_0 & 0xFFFF
//  130     Delay_1u(5);
//  131     WriteSCL0();
//  132     Delay_1u(5);
//  133     P1DIR |= 0x08;
??CrossCallReturnLabel_18:
        ORL     0xfe,#0x8
//  134     return F0;
        MOV     C,0xd0.5
        CLR     A
        MOV     0xE0 /* A   */.0,C
        MOV     R1,A
        SJMP    ??Subroutine12_0
        CFI EndBlock cfiBlock28
        REQUIRE _A_P1
        REQUIRE _A_PSW
        REQUIRE P1DIR
//  135 }

        RSEG BANKED_CODE:CODE:NOROOT(0)
?Subroutine7:
        CFI Block cfiBlock29 Using cfiCommon0
        CFI NoFunction
        CFI CFA_SP SP+-5
        CFI DPL0 Frame(CFA_SP, 4)
        CFI DPH0 Frame(CFA_SP, 5)
        LCALL   ??Subroutine14_0 & 0xFFFF
        CFI EndBlock cfiBlock29
??CrossCallReturnLabel_19:
        REQUIRE ??Subroutine12_0
        ; // Fall through to label ??Subroutine12_0

        RSEG BANKED_CODE:CODE:NOROOT(0)
??Subroutine12_0:
        CFI Block cfiBlock30 Using cfiCommon0
        CFI NoFunction
        CFI CFA_SP SP+-5
        CFI DPL0 Frame(CFA_SP, 4)
        CFI DPH0 Frame(CFA_SP, 5)
        POP     DPH
        CFI CFA_SP SP+-4
        CFI DPH0 SameValue
        POP     DPL
        CFI CFA_SP SP+-3
        CFI DPL0 SameValue
        LJMP    ?BRET
        CFI EndBlock cfiBlock30
//  136 
//  137 /* 发送0，在SCL为高电平时使SDA信号为低 */

        RSEG BANKED_CODE:CODE:NOROOT(0)
?Subroutine0:
        CFI Block cfiCond31 Using cfiCommon0
        CFI NoFunction
        CFI Conditional ??CrossCallReturnLabel_17
        CFI DPL0 Frame(CFA_SP, 4)
        CFI DPH0 Frame(CFA_SP, 5)
        CFI CFA_SP SP+-5
        CFI Block cfiCond32 Using cfiCommon0
        CFI (cfiCond32) NoFunction
        CFI (cfiCond32) Conditional ??CrossCallReturnLabel_17
        CFI (cfiCond32) DPL0 Frame(CFA_SP, 4)
        CFI (cfiCond32) DPH0 Frame(CFA_SP, 5)
        CFI (cfiCond32) CFA_SP SP+-5
        CFI Block cfiPicker33 Using cfiCommon1
        CFI (cfiPicker33) NoFunction
        CFI (cfiPicker33) Picker
        MOV     R2,#0x5
        MOV     R3,#0x0
        LCALL   ??Delay_1u?relay
        CFI EndBlock cfiCond31
        CFI EndBlock cfiCond32
        CFI EndBlock cfiPicker33
        ; Setup parameters for call to function WriteSCL1
        ; Setup parameters for call to function WriteSCL1
        REQUIRE ??Subroutine13_0
        ; // Fall through to label ??Subroutine13_0

        RSEG BANKED_CODE:CODE:NOROOT(0)
??Subroutine13_0:
        CFI Block cfiCond34 Using cfiCommon0
        CFI NoFunction
        CFI Conditional ??CrossCallReturnLabel_18
        CFI DPL0 Frame(CFA_SP, 4)
        CFI DPH0 Frame(CFA_SP, 5)
        CFI CFA_SP SP+-5
        CFI Block cfiCond35 Using cfiCommon0
        CFI (cfiCond35) NoFunction
        CFI (cfiCond35) Conditional ??CrossCallReturnLabel_17
        CFI (cfiCond35) DPL0 Frame(CFA_SP, 4)
        CFI (cfiCond35) DPH0 Frame(CFA_SP, 5)
        CFI (cfiCond35) CFA_SP SP+-5
        CFI Block cfiCond36 Using cfiCommon0
        CFI (cfiCond36) NoFunction
        CFI (cfiCond36) Conditional ??CrossCallReturnLabel_17
        CFI (cfiCond36) DPL0 Frame(CFA_SP, 4)
        CFI (cfiCond36) DPH0 Frame(CFA_SP, 5)
        CFI (cfiCond36) CFA_SP SP+-5
        CFI Block cfiPicker37 Using cfiCommon1
        CFI (cfiPicker37) NoFunction
        CFI (cfiPicker37) Picker
        LCALL   ??WriteSCL1?relay
        CFI EndBlock cfiCond34
        CFI EndBlock cfiCond35
        CFI EndBlock cfiCond36
        CFI EndBlock cfiPicker37
        ; Setup parameters for call to function Delay_1u
        ; Setup parameters for call to function Delay_1u
        ; Setup parameters for call to function Delay_1u
        REQUIRE ??Subroutine14_0
        ; // Fall through to label ??Subroutine14_0

        RSEG BANKED_CODE:CODE:NOROOT(0)
??Subroutine14_0:
        CFI Block cfiCond38 Using cfiCommon0
        CFI NoFunction
        CFI Conditional ??CrossCallReturnLabel_19
        CFI DPL0 Frame(CFA_SP, 4)
        CFI DPH0 Frame(CFA_SP, 5)
        CFI CFA_SP SP+-5
        CFI Block cfiCond39 Using cfiCommon0
        CFI (cfiCond39) NoFunction
        CFI (cfiCond39) Conditional ??CrossCallReturnLabel_19
        CFI (cfiCond39) DPL0 Frame(CFA_SP, 4)
        CFI (cfiCond39) DPH0 Frame(CFA_SP, 5)
        CFI (cfiCond39) CFA_SP SP+-5
        CFI Block cfiCond40 Using cfiCommon0
        CFI (cfiCond40) NoFunction
        CFI (cfiCond40) Conditional ??CrossCallReturnLabel_18
        CFI (cfiCond40) DPL0 Frame(CFA_SP, 4)
        CFI (cfiCond40) DPH0 Frame(CFA_SP, 5)
        CFI (cfiCond40) CFA_SP SP+-5
        CFI Block cfiCond41 Using cfiCommon0
        CFI (cfiCond41) NoFunction
        CFI (cfiCond41) Conditional ??CrossCallReturnLabel_17
        CFI (cfiCond41) DPL0 Frame(CFA_SP, 4)
        CFI (cfiCond41) DPH0 Frame(CFA_SP, 5)
        CFI (cfiCond41) CFA_SP SP+-5
        CFI Block cfiCond42 Using cfiCommon0
        CFI (cfiCond42) NoFunction
        CFI (cfiCond42) Conditional ??CrossCallReturnLabel_17
        CFI (cfiCond42) DPL0 Frame(CFA_SP, 4)
        CFI (cfiCond42) DPH0 Frame(CFA_SP, 5)
        CFI (cfiCond42) CFA_SP SP+-5
        CFI Block cfiPicker43 Using cfiCommon1
        CFI (cfiPicker43) NoFunction
        CFI (cfiPicker43) Picker
        MOV     R2,#0x5
        MOV     R3,#0x0
        LCALL   ??Delay_1u?relay
        CFI EndBlock cfiCond38
        CFI EndBlock cfiCond39
        CFI EndBlock cfiCond40
        CFI EndBlock cfiCond41
        CFI EndBlock cfiCond42
        CFI EndBlock cfiPicker43
        ; Setup parameters for call to function WriteSCL0
        ; Setup parameters for call to function WriteSCL0
        ; Setup parameters for call to function WriteSCL0
        ; Setup parameters for call to function WriteSCL0
        ; Setup parameters for call to function WriteSCL0
        REQUIRE ??Subroutine15_0
        ; // Fall through to label ??Subroutine15_0

        RSEG BANKED_CODE:CODE:NOROOT(0)
??Subroutine15_0:
        CFI Block cfiCond44 Using cfiCommon0
        CFI NoFunction
        CFI Conditional ??CrossCallReturnLabel_20
        CFI R6 load(1, XDATA, add(CFA_XSP16, literal(-9)))
        CFI VB load(1, XDATA, add(CFA_XSP16, literal(-8)))
        CFI V0 load(1, XDATA, add(CFA_XSP16, literal(-7)))
        CFI R7 load(1, XDATA, add(CFA_XSP16, literal(-6)))
        CFI ?RET_LOW load(1, XDATA, add(CFA_XSP16, literal(-5)))
        CFI ?RET_HIGH load(1, XDATA, add(CFA_XSP16, literal(-4)))
        CFI ?BRET_EXT load(1, XDATA, add(CFA_XSP16, literal(-3)))
        CFI DPL0 load(1, XDATA, add(CFA_XSP16, literal(-2)))
        CFI DPH0 load(1, XDATA, add(CFA_XSP16, literal(-1)))
        CFI CFA_SP SP+0
        CFI CFA_XSP16 add(XSP16, 9)
        CFI Block cfiCond45 Using cfiCommon0
        CFI (cfiCond45) NoFunction
        CFI (cfiCond45) Conditional ??CrossCallReturnLabel_21
        CFI (cfiCond45) R6 load(1, XDATA, add(CFA_XSP16, literal(-9)))
        CFI (cfiCond45) VB load(1, XDATA, add(CFA_XSP16, literal(-8)))
        CFI (cfiCond45) V0 load(1, XDATA, add(CFA_XSP16, literal(-7)))
        CFI (cfiCond45) R7 load(1, XDATA, add(CFA_XSP16, literal(-6)))
        CFI (cfiCond45) ?RET_LOW load(1, XDATA, add(CFA_XSP16, literal(-5)))
        CFI (cfiCond45) ?RET_HIGH load(1, XDATA, add(CFA_XSP16, literal(-4)))
        CFI (cfiCond45) ?BRET_EXT load(1, XDATA, add(CFA_XSP16, literal(-3)))
        CFI (cfiCond45) DPL0 load(1, XDATA, add(CFA_XSP16, literal(-2)))
        CFI (cfiCond45) DPH0 load(1, XDATA, add(CFA_XSP16, literal(-1)))
        CFI (cfiCond45) CFA_SP SP+0
        CFI (cfiCond45) CFA_XSP16 add(XSP16, 9)
        CFI Block cfiCond46 Using cfiCommon0
        CFI (cfiCond46) NoFunction
        CFI (cfiCond46) Conditional ??CrossCallReturnLabel_19
        CFI (cfiCond46) DPL0 Frame(CFA_SP, 4)
        CFI (cfiCond46) DPH0 Frame(CFA_SP, 5)
        CFI (cfiCond46) CFA_SP SP+-5
        CFI Block cfiCond47 Using cfiCommon0
        CFI (cfiCond47) NoFunction
        CFI (cfiCond47) Conditional ??CrossCallReturnLabel_19
        CFI (cfiCond47) DPL0 Frame(CFA_SP, 4)
        CFI (cfiCond47) DPH0 Frame(CFA_SP, 5)
        CFI (cfiCond47) CFA_SP SP+-5
        CFI Block cfiCond48 Using cfiCommon0
        CFI (cfiCond48) NoFunction
        CFI (cfiCond48) Conditional ??CrossCallReturnLabel_18
        CFI (cfiCond48) DPL0 Frame(CFA_SP, 4)
        CFI (cfiCond48) DPH0 Frame(CFA_SP, 5)
        CFI (cfiCond48) CFA_SP SP+-5
        CFI Block cfiCond49 Using cfiCommon0
        CFI (cfiCond49) NoFunction
        CFI (cfiCond49) Conditional ??CrossCallReturnLabel_17
        CFI (cfiCond49) DPL0 Frame(CFA_SP, 4)
        CFI (cfiCond49) DPH0 Frame(CFA_SP, 5)
        CFI (cfiCond49) CFA_SP SP+-5
        CFI Block cfiCond50 Using cfiCommon0
        CFI (cfiCond50) NoFunction
        CFI (cfiCond50) Conditional ??CrossCallReturnLabel_17
        CFI (cfiCond50) DPL0 Frame(CFA_SP, 4)
        CFI (cfiCond50) DPH0 Frame(CFA_SP, 5)
        CFI (cfiCond50) CFA_SP SP+-5
        CFI Block cfiPicker51 Using cfiCommon1
        CFI (cfiPicker51) NoFunction
        CFI (cfiPicker51) Picker
        LCALL   ??WriteSCL0?relay
        ; Setup parameters for call to function Delay_1u
        ; Setup parameters for call to function Delay_1u
        ; Setup parameters for call to function Delay_1u
        ; Setup parameters for call to function Delay_1u
        ; Setup parameters for call to function Delay_1u
        ; Setup parameters for call to function Delay_1u
        ; Setup parameters for call to function Delay_1u
        SJMP    ?Subroutine9
        CFI EndBlock cfiCond44
        CFI EndBlock cfiCond45
        CFI EndBlock cfiCond46
        CFI EndBlock cfiCond47
        CFI EndBlock cfiCond48
        CFI EndBlock cfiCond49
        CFI EndBlock cfiCond50
        CFI EndBlock cfiPicker51

        RSEG BANKED_CODE:CODE:NOROOT(0)
//  138 void SEND_0_1(void)   /* SEND ACK */
SEND_0_1:
        CFI Block cfiBlock52 Using cfiCommon0
        CFI Function SEND_0_1
//  139 {
        FUNCALL SEND_0_1, WriteSDA0
        LOCFRAME ISTACK, 2, STACK
        LOCFRAME PSTACK, 0, STACK
        LOCFRAME XSTACK, 0, STACK
        LOCFRAME IOVERLAY, 0, STATIC
        LOCFRAME DOVERLAY, 0, STATIC
        ARGFRAME ISTACK, 2, STACK
        ARGFRAME PSTACK, 0, STACK
        ARGFRAME XSTACK, 0, STACK
        ARGFRAME IOVERLAY, 0, STATIC
        ARGFRAME DOVERLAY, 0, STATIC
        FUNCALL SEND_0_1, Delay_1u
        LOCFRAME ISTACK, 2, STACK
        LOCFRAME PSTACK, 0, STACK
        LOCFRAME XSTACK, 0, STACK
        LOCFRAME IOVERLAY, 0, STATIC
        LOCFRAME DOVERLAY, 0, STATIC
        ARGFRAME ISTACK, 2, STACK
        ARGFRAME PSTACK, 0, STACK
        ARGFRAME XSTACK, 0, STACK
        ARGFRAME IOVERLAY, 0, STATIC
        ARGFRAME DOVERLAY, 0, STATIC
        FUNCALL SEND_0_1, WriteSCL1
        LOCFRAME ISTACK, 2, STACK
        LOCFRAME PSTACK, 0, STACK
        LOCFRAME XSTACK, 0, STACK
        LOCFRAME IOVERLAY, 0, STATIC
        LOCFRAME DOVERLAY, 0, STATIC
        ARGFRAME ISTACK, 2, STACK
        ARGFRAME PSTACK, 0, STACK
        ARGFRAME XSTACK, 0, STACK
        ARGFRAME IOVERLAY, 0, STATIC
        ARGFRAME DOVERLAY, 0, STATIC
        FUNCALL SEND_0_1, Delay_1u
        LOCFRAME ISTACK, 2, STACK
        LOCFRAME PSTACK, 0, STACK
        LOCFRAME XSTACK, 0, STACK
        LOCFRAME IOVERLAY, 0, STATIC
        LOCFRAME DOVERLAY, 0, STATIC
        ARGFRAME ISTACK, 2, STACK
        ARGFRAME PSTACK, 0, STACK
        ARGFRAME XSTACK, 0, STACK
        ARGFRAME IOVERLAY, 0, STATIC
        ARGFRAME DOVERLAY, 0, STATIC
        FUNCALL SEND_0_1, WriteSCL0
        LOCFRAME ISTACK, 2, STACK
        LOCFRAME PSTACK, 0, STACK
        LOCFRAME XSTACK, 0, STACK
        LOCFRAME IOVERLAY, 0, STATIC
        LOCFRAME DOVERLAY, 0, STATIC
        ARGFRAME ISTACK, 2, STACK
        ARGFRAME PSTACK, 0, STACK
        ARGFRAME XSTACK, 0, STACK
        ARGFRAME IOVERLAY, 0, STATIC
        ARGFRAME DOVERLAY, 0, STATIC
        FUNCALL SEND_0_1, Delay_1u
        LOCFRAME ISTACK, 2, STACK
        LOCFRAME PSTACK, 0, STACK
        LOCFRAME XSTACK, 0, STACK
        LOCFRAME IOVERLAY, 0, STATIC
        LOCFRAME DOVERLAY, 0, STATIC
        ARGFRAME ISTACK, 2, STACK
        ARGFRAME PSTACK, 0, STACK
        ARGFRAME XSTACK, 0, STACK
        ARGFRAME IOVERLAY, 0, STATIC
        ARGFRAME DOVERLAY, 0, STATIC
        PUSH    DPL
        CFI DPL0 Frame(CFA_SP, 4)
        CFI CFA_SP SP+-4
        PUSH    DPH
        CFI DPH0 Frame(CFA_SP, 5)
        CFI CFA_SP SP+-5
        ; Saved register size: 2
        ; Auto size: 0
//  140     WriteSDA0();
        ; Setup parameters for call to function WriteSDA0
        LCALL   ??WriteSDA0?relay
        CFI EndBlock cfiBlock52
//  141     Delay_1u(5);
        ; Setup parameters for call to function Delay_1u
        REQUIRE ?Subroutine11
        ; // Fall through to label ?Subroutine11
//  142     WriteSCL1();
//  143     Delay_1u(5);
//  144     WriteSCL0();
//  145     Delay_1u(5);
//  146 }

        RSEG BANKED_CODE:CODE:NOROOT(0)
?Subroutine11:
        CFI Block cfiBlock53 Using cfiCommon0
        CFI NoFunction
        CFI CFA_SP SP+-5
        CFI DPL0 Frame(CFA_SP, 4)
        CFI DPH0 Frame(CFA_SP, 5)
        LCALL   ?Subroutine0 & 0xFFFF
??CrossCallReturnLabel_17:
        SJMP    ??Subroutine12_0
        CFI EndBlock cfiBlock53
//  147 
//  148 /* 发送1，在SCL为高电平时使SDA信号为高 */

        RSEG BANKED_CODE:CODE:NOROOT(0)
//  149 void SEND_1_1(void)
SEND_1_1:
        CFI Block cfiBlock54 Using cfiCommon0
        CFI Function SEND_1_1
//  150 {
        FUNCALL SEND_1_1, WriteSDA1
        LOCFRAME ISTACK, 2, STACK
        LOCFRAME PSTACK, 0, STACK
        LOCFRAME XSTACK, 0, STACK
        LOCFRAME IOVERLAY, 0, STATIC
        LOCFRAME DOVERLAY, 0, STATIC
        ARGFRAME ISTACK, 2, STACK
        ARGFRAME PSTACK, 0, STACK
        ARGFRAME XSTACK, 0, STACK
        ARGFRAME IOVERLAY, 0, STATIC
        ARGFRAME DOVERLAY, 0, STATIC
        FUNCALL SEND_1_1, Delay_1u
        LOCFRAME ISTACK, 2, STACK
        LOCFRAME PSTACK, 0, STACK
        LOCFRAME XSTACK, 0, STACK
        LOCFRAME IOVERLAY, 0, STATIC
        LOCFRAME DOVERLAY, 0, STATIC
        ARGFRAME ISTACK, 2, STACK
        ARGFRAME PSTACK, 0, STACK
        ARGFRAME XSTACK, 0, STACK
        ARGFRAME IOVERLAY, 0, STATIC
        ARGFRAME DOVERLAY, 0, STATIC
        FUNCALL SEND_1_1, WriteSCL1
        LOCFRAME ISTACK, 2, STACK
        LOCFRAME PSTACK, 0, STACK
        LOCFRAME XSTACK, 0, STACK
        LOCFRAME IOVERLAY, 0, STATIC
        LOCFRAME DOVERLAY, 0, STATIC
        ARGFRAME ISTACK, 2, STACK
        ARGFRAME PSTACK, 0, STACK
        ARGFRAME XSTACK, 0, STACK
        ARGFRAME IOVERLAY, 0, STATIC
        ARGFRAME DOVERLAY, 0, STATIC
        FUNCALL SEND_1_1, Delay_1u
        LOCFRAME ISTACK, 2, STACK
        LOCFRAME PSTACK, 0, STACK
        LOCFRAME XSTACK, 0, STACK
        LOCFRAME IOVERLAY, 0, STATIC
        LOCFRAME DOVERLAY, 0, STATIC
        ARGFRAME ISTACK, 2, STACK
        ARGFRAME PSTACK, 0, STACK
        ARGFRAME XSTACK, 0, STACK
        ARGFRAME IOVERLAY, 0, STATIC
        ARGFRAME DOVERLAY, 0, STATIC
        FUNCALL SEND_1_1, WriteSCL0
        LOCFRAME ISTACK, 2, STACK
        LOCFRAME PSTACK, 0, STACK
        LOCFRAME XSTACK, 0, STACK
        LOCFRAME IOVERLAY, 0, STATIC
        LOCFRAME DOVERLAY, 0, STATIC
        ARGFRAME ISTACK, 2, STACK
        ARGFRAME PSTACK, 0, STACK
        ARGFRAME XSTACK, 0, STACK
        ARGFRAME IOVERLAY, 0, STATIC
        ARGFRAME DOVERLAY, 0, STATIC
        FUNCALL SEND_1_1, Delay_1u
        LOCFRAME ISTACK, 2, STACK
        LOCFRAME PSTACK, 0, STACK
        LOCFRAME XSTACK, 0, STACK
        LOCFRAME IOVERLAY, 0, STATIC
        LOCFRAME DOVERLAY, 0, STATIC
        ARGFRAME ISTACK, 2, STACK
        ARGFRAME PSTACK, 0, STACK
        ARGFRAME XSTACK, 0, STACK
        ARGFRAME IOVERLAY, 0, STATIC
        ARGFRAME DOVERLAY, 0, STATIC
        PUSH    DPL
        CFI DPL0 Frame(CFA_SP, 4)
        CFI CFA_SP SP+-4
        PUSH    DPH
        CFI DPH0 Frame(CFA_SP, 5)
        CFI CFA_SP SP+-5
        ; Saved register size: 2
        ; Auto size: 0
//  151     WriteSDA1();
        ; Setup parameters for call to function WriteSDA1
        LCALL   ??WriteSDA1?relay
//  152     Delay_1u(5);
        ; Setup parameters for call to function Delay_1u
        SJMP    ?Subroutine11
        CFI EndBlock cfiBlock54
//  153     WriteSCL1();
//  154     Delay_1u(5);
//  155     WriteSCL0();
//  156     Delay_1u(5);
//  157 }
//  158 
//  159 /* 向IIC总线发送一个字节数据 */

        RSEG BANKED_CODE:CODE:NOROOT(0)
//  160 void BH1750_SendByte(uchar dat)
BH1750_SendByte:
        CFI Block cfiBlock55 Using cfiCommon0
        CFI Function BH1750_SendByte
//  161 {
        FUNCALL BH1750_SendByte, WriteSCL0
        LOCFRAME ISTACK, 0, STACK
        LOCFRAME PSTACK, 0, STACK
        LOCFRAME XSTACK, 10, STACK
        LOCFRAME IOVERLAY, 0, STATIC
        LOCFRAME DOVERLAY, 0, STATIC
        ARGFRAME ISTACK, 0, STACK
        ARGFRAME PSTACK, 0, STACK
        ARGFRAME XSTACK, 10, STACK
        ARGFRAME IOVERLAY, 0, STATIC
        ARGFRAME DOVERLAY, 0, STATIC
        FUNCALL BH1750_SendByte, SEND_1_1
        LOCFRAME ISTACK, 0, STACK
        LOCFRAME PSTACK, 0, STACK
        LOCFRAME XSTACK, 10, STACK
        LOCFRAME IOVERLAY, 0, STATIC
        LOCFRAME DOVERLAY, 0, STATIC
        ARGFRAME ISTACK, 0, STACK
        ARGFRAME PSTACK, 0, STACK
        ARGFRAME XSTACK, 10, STACK
        ARGFRAME IOVERLAY, 0, STATIC
        ARGFRAME DOVERLAY, 0, STATIC
        FUNCALL BH1750_SendByte, SEND_0_1
        LOCFRAME ISTACK, 0, STACK
        LOCFRAME PSTACK, 0, STACK
        LOCFRAME XSTACK, 10, STACK
        LOCFRAME IOVERLAY, 0, STATIC
        LOCFRAME DOVERLAY, 0, STATIC
        ARGFRAME ISTACK, 0, STACK
        ARGFRAME PSTACK, 0, STACK
        ARGFRAME XSTACK, 10, STACK
        ARGFRAME IOVERLAY, 0, STATIC
        ARGFRAME DOVERLAY, 0, STATIC
        FUNCALL BH1750_SendByte, BH1750_RecvACK
        LOCFRAME ISTACK, 0, STACK
        LOCFRAME PSTACK, 0, STACK
        LOCFRAME XSTACK, 10, STACK
        LOCFRAME IOVERLAY, 0, STATIC
        LOCFRAME DOVERLAY, 0, STATIC
        ARGFRAME ISTACK, 0, STACK
        ARGFRAME PSTACK, 0, STACK
        ARGFRAME XSTACK, 10, STACK
        ARGFRAME IOVERLAY, 0, STATIC
        ARGFRAME DOVERLAY, 0, STATIC
        MOV     A,#-0xa
        LCALL   ?BANKED_ENTER_XDATA
        CFI DPH0 load(1, XDATA, add(CFA_XSP16, literal(-1)))
        CFI DPL0 load(1, XDATA, add(CFA_XSP16, literal(-2)))
        CFI ?BRET_EXT load(1, XDATA, add(CFA_XSP16, literal(-3)))
        CFI ?RET_HIGH load(1, XDATA, add(CFA_XSP16, literal(-4)))
        CFI ?RET_LOW load(1, XDATA, add(CFA_XSP16, literal(-5)))
        CFI R7 load(1, XDATA, add(CFA_XSP16, literal(-6)))
        CFI V1 load(1, XDATA, add(CFA_XSP16, literal(-7)))
        CFI V0 load(1, XDATA, add(CFA_XSP16, literal(-8)))
        CFI VB load(1, XDATA, add(CFA_XSP16, literal(-9)))
        CFI R6 load(1, XDATA, add(CFA_XSP16, literal(-10)))
        CFI CFA_SP SP+0
        CFI CFA_XSP16 add(XSP16, 10)
        ; Saved register size: 10
        ; Auto size: 0
        MOV     A,R1
        MOV     R7,A
//  162     char i;
//  163     WriteSCL0();
        ; Setup parameters for call to function WriteSCL0
        LCALL   ??WriteSCL0?relay
//  164     for(i=0;i<8;i++)
        MOV     R6,#0x0
//  165     {
//  166         if((dat<<i)&0x80)
??BH1750_SendByte_0:
        MOV     ?V0 + 0,R7
        MOV     ?V0 + 1,#0x0
        MOV     A,R6
        MOV     R0,#?V0 + 0
        LCALL   ?S_SHL
        MOV     A,?V0 + 0
        ANL     A,#0x80
        JZ      ??BH1750_SendByte_1
//  167         {
//  168             SEND_1_1();
        ; Setup parameters for call to function SEND_1_1
        LCALL   ??SEND_1_1?relay
        SJMP    ??BH1750_SendByte_2
//  169         }
//  170         else
//  171         {
//  172             SEND_0_1();
??BH1750_SendByte_1:
        ; Setup parameters for call to function SEND_0_1
        LCALL   ??SEND_0_1?relay
//  173         }
//  174     }
??BH1750_SendByte_2:
        INC     R6
        MOV     A,R6
        CLR     C
        SUBB    A,#0x8
        JC      ??BH1750_SendByte_0
//  175     BH1750_RecvACK();     
        ; Setup parameters for call to function BH1750_RecvACK
        LCALL   ??BH1750_RecvACK?relay
//  176 }
        LJMP    ?Subroutine8 & 0xFFFF
        CFI EndBlock cfiBlock55
//  177 
//  178 /* 从IIC总线接收一个字节数据 */

        RSEG BANKED_CODE:CODE:NOROOT(0)
//  179 uchar BH1750_RecvByte()
BH1750_RecvByte:
        CFI Block cfiBlock56 Using cfiCommon0
        CFI Function BH1750_RecvByte
//  180 {
        FUNCALL BH1750_RecvByte, WriteSCL0
        LOCFRAME ISTACK, 0, STACK
        LOCFRAME PSTACK, 0, STACK
        LOCFRAME XSTACK, 9, STACK
        LOCFRAME IOVERLAY, 0, STATIC
        LOCFRAME DOVERLAY, 0, STATIC
        ARGFRAME ISTACK, 0, STACK
        ARGFRAME PSTACK, 0, STACK
        ARGFRAME XSTACK, 9, STACK
        ARGFRAME IOVERLAY, 0, STATIC
        ARGFRAME DOVERLAY, 0, STATIC
        FUNCALL BH1750_RecvByte, Delay_1u
        LOCFRAME ISTACK, 0, STACK
        LOCFRAME PSTACK, 0, STACK
        LOCFRAME XSTACK, 9, STACK
        LOCFRAME IOVERLAY, 0, STATIC
        LOCFRAME DOVERLAY, 0, STATIC
        ARGFRAME ISTACK, 0, STACK
        ARGFRAME PSTACK, 0, STACK
        ARGFRAME XSTACK, 9, STACK
        ARGFRAME IOVERLAY, 0, STATIC
        ARGFRAME DOVERLAY, 0, STATIC
        FUNCALL BH1750_RecvByte, WriteSCL1
        LOCFRAME ISTACK, 0, STACK
        LOCFRAME PSTACK, 0, STACK
        LOCFRAME XSTACK, 9, STACK
        LOCFRAME IOVERLAY, 0, STATIC
        LOCFRAME DOVERLAY, 0, STATIC
        ARGFRAME ISTACK, 0, STACK
        ARGFRAME PSTACK, 0, STACK
        ARGFRAME XSTACK, 9, STACK
        ARGFRAME IOVERLAY, 0, STATIC
        ARGFRAME DOVERLAY, 0, STATIC
        FUNCALL BH1750_RecvByte, Delay_1u
        LOCFRAME ISTACK, 0, STACK
        LOCFRAME PSTACK, 0, STACK
        LOCFRAME XSTACK, 9, STACK
        LOCFRAME IOVERLAY, 0, STATIC
        LOCFRAME DOVERLAY, 0, STATIC
        ARGFRAME ISTACK, 0, STACK
        ARGFRAME PSTACK, 0, STACK
        ARGFRAME XSTACK, 9, STACK
        ARGFRAME IOVERLAY, 0, STATIC
        ARGFRAME DOVERLAY, 0, STATIC
        FUNCALL BH1750_RecvByte, WriteSCL0
        LOCFRAME ISTACK, 0, STACK
        LOCFRAME PSTACK, 0, STACK
        LOCFRAME XSTACK, 9, STACK
        LOCFRAME IOVERLAY, 0, STATIC
        LOCFRAME DOVERLAY, 0, STATIC
        ARGFRAME ISTACK, 0, STACK
        ARGFRAME PSTACK, 0, STACK
        ARGFRAME XSTACK, 9, STACK
        ARGFRAME IOVERLAY, 0, STATIC
        ARGFRAME DOVERLAY, 0, STATIC
        FUNCALL BH1750_RecvByte, Delay_1u
        LOCFRAME ISTACK, 0, STACK
        LOCFRAME PSTACK, 0, STACK
        LOCFRAME XSTACK, 9, STACK
        LOCFRAME IOVERLAY, 0, STATIC
        LOCFRAME DOVERLAY, 0, STATIC
        ARGFRAME ISTACK, 0, STACK
        ARGFRAME PSTACK, 0, STACK
        ARGFRAME XSTACK, 9, STACK
        ARGFRAME IOVERLAY, 0, STATIC
        ARGFRAME DOVERLAY, 0, STATIC
        MOV     A,#-0x9
        LCALL   ?BANKED_ENTER_XDATA
        CFI DPH0 load(1, XDATA, add(CFA_XSP16, literal(-1)))
        CFI DPL0 load(1, XDATA, add(CFA_XSP16, literal(-2)))
        CFI ?BRET_EXT load(1, XDATA, add(CFA_XSP16, literal(-3)))
        CFI ?RET_HIGH load(1, XDATA, add(CFA_XSP16, literal(-4)))
        CFI ?RET_LOW load(1, XDATA, add(CFA_XSP16, literal(-5)))
        CFI R7 load(1, XDATA, add(CFA_XSP16, literal(-6)))
        CFI V0 load(1, XDATA, add(CFA_XSP16, literal(-7)))
        CFI VB load(1, XDATA, add(CFA_XSP16, literal(-8)))
        CFI R6 load(1, XDATA, add(CFA_XSP16, literal(-9)))
        CFI CFA_SP SP+0
        CFI CFA_XSP16 add(XSP16, 9)
        ; Saved register size: 9
        ; Auto size: 0
//  181     char b=0,i;    
        MOV     R7,#0x0
//  182     WriteSCL0();
        ; Setup parameters for call to function WriteSCL0
        LCALL   ??Subroutine15_0 & 0xFFFF
//  183     Delay_1u(5);
//  184     for(i=0;i<8;i++)
??CrossCallReturnLabel_20:
        MOV     R6,#0x8
//  185     {   
//  186         ReadSDA();
??BH1750_RecvByte_0:
        ANL     0xfe,#0xf7
//  187         WriteSCL1();
        ; Setup parameters for call to function WriteSCL1
        LCALL   ?Subroutine1 & 0xFFFF
//  188         Delay_1u(5);
//  189         F0=SDA; //寄存器中的一位,用于存储SDA中的一位数据
??CrossCallReturnLabel_25:
        MOV     C,0x90.3
        MOV     0xd0.5,C
//  190         if(F0)
        MOV     A,R7
        CLR     C
        RLC     A
        MOV     R2,A
        MOV     C,0xd0.5
        JNC     ??BH1750_RecvByte_1
//  191         {
//  192             b=b<<1;
//  193             b=b|0x01;
        MOV     A,#0x1
        ORL     A,R2
//  194         }
//  195         else
//  196         {b=b<<1;}
??BH1750_RecvByte_1:
        MOV     R7,A
//  197         WriteSCL0();
        ; Setup parameters for call to function WriteSCL0
        LCALL   ??Subroutine15_0 & 0xFFFF
//  198         Delay_1u(5);
//  199     }
??CrossCallReturnLabel_21:
        DEC     R6
        MOV     A,R6
        JNZ     ??BH1750_RecvByte_0
//  200     P1DIR |= 0x08;
        ORL     0xfe,#0x8
//  201     return b;
        MOV     A,R7
        MOV     R1,A
        CFI EndBlock cfiBlock56
        REQUIRE ?Subroutine10
        REQUIRE _A_P1
        REQUIRE _A_PSW
        REQUIRE P1DIR
        ; // Fall through to label ?Subroutine10
//  202 }

        RSEG BANKED_CODE:CODE:NOROOT(0)
?Subroutine10:
        CFI Block cfiBlock57 Using cfiCommon0
        CFI NoFunction
        CFI CFA_SP SP+0
        CFI CFA_XSP16 add(XSP16, 9)
        CFI VB load(1, XDATA, add(CFA_XSP16, literal(-8)))
        CFI DPL0 load(1, XDATA, add(CFA_XSP16, literal(-2)))
        CFI DPH0 load(1, XDATA, add(CFA_XSP16, literal(-1)))
        CFI R6 load(1, XDATA, add(CFA_XSP16, literal(-9)))
        CFI R7 load(1, XDATA, add(CFA_XSP16, literal(-6)))
        CFI V0 load(1, XDATA, add(CFA_XSP16, literal(-7)))
        CFI ?BRET_EXT load(1, XDATA, add(CFA_XSP16, literal(-3)))
        CFI ?RET_HIGH load(1, XDATA, add(CFA_XSP16, literal(-4)))
        CFI ?RET_LOW load(1, XDATA, add(CFA_XSP16, literal(-5)))
        MOV     R7,#0x1
        LJMP    ?BANKED_LEAVE_XDATA
        CFI EndBlock cfiBlock57
//  203 

        RSEG BANKED_CODE:CODE:NOROOT(0)
//  204 uchar Read_BH1750()
Read_BH1750:
        CFI Block cfiBlock58 Using cfiCommon0
        CFI Function Read_BH1750
//  205 {
        FUNCALL Read_BH1750, BH1750_Start
        LOCFRAME ISTACK, 0, STACK
        LOCFRAME PSTACK, 0, STACK
        LOCFRAME XSTACK, 16, STACK
        LOCFRAME IOVERLAY, 0, STATIC
        LOCFRAME DOVERLAY, 0, STATIC
        ARGFRAME ISTACK, 0, STACK
        ARGFRAME PSTACK, 0, STACK
        ARGFRAME XSTACK, 16, STACK
        ARGFRAME IOVERLAY, 0, STATIC
        ARGFRAME DOVERLAY, 0, STATIC
        FUNCALL Read_BH1750, BH1750_SendByte
        LOCFRAME ISTACK, 0, STACK
        LOCFRAME PSTACK, 0, STACK
        LOCFRAME XSTACK, 16, STACK
        LOCFRAME IOVERLAY, 0, STATIC
        LOCFRAME DOVERLAY, 0, STATIC
        ARGFRAME ISTACK, 0, STACK
        ARGFRAME PSTACK, 0, STACK
        ARGFRAME XSTACK, 16, STACK
        ARGFRAME IOVERLAY, 0, STATIC
        ARGFRAME DOVERLAY, 0, STATIC
        FUNCALL Read_BH1750, BH1750_Start
        LOCFRAME ISTACK, 0, STACK
        LOCFRAME PSTACK, 0, STACK
        LOCFRAME XSTACK, 16, STACK
        LOCFRAME IOVERLAY, 0, STATIC
        LOCFRAME DOVERLAY, 0, STATIC
        ARGFRAME ISTACK, 0, STACK
        ARGFRAME PSTACK, 0, STACK
        ARGFRAME XSTACK, 16, STACK
        ARGFRAME IOVERLAY, 0, STATIC
        ARGFRAME DOVERLAY, 0, STATIC
        FUNCALL Read_BH1750, BH1750_SendByte
        LOCFRAME ISTACK, 0, STACK
        LOCFRAME PSTACK, 0, STACK
        LOCFRAME XSTACK, 16, STACK
        LOCFRAME IOVERLAY, 0, STATIC
        LOCFRAME DOVERLAY, 0, STATIC
        ARGFRAME ISTACK, 0, STACK
        ARGFRAME PSTACK, 0, STACK
        ARGFRAME XSTACK, 16, STACK
        ARGFRAME IOVERLAY, 0, STATIC
        ARGFRAME DOVERLAY, 0, STATIC
        FUNCALL Read_BH1750, BH1750_SendByte
        LOCFRAME ISTACK, 0, STACK
        LOCFRAME PSTACK, 0, STACK
        LOCFRAME XSTACK, 16, STACK
        LOCFRAME IOVERLAY, 0, STATIC
        LOCFRAME DOVERLAY, 0, STATIC
        ARGFRAME ISTACK, 0, STACK
        ARGFRAME PSTACK, 0, STACK
        ARGFRAME XSTACK, 16, STACK
        ARGFRAME IOVERLAY, 0, STATIC
        ARGFRAME DOVERLAY, 0, STATIC
        FUNCALL Read_BH1750, BH1750_SendByte
        LOCFRAME ISTACK, 0, STACK
        LOCFRAME PSTACK, 0, STACK
        LOCFRAME XSTACK, 16, STACK
        LOCFRAME IOVERLAY, 0, STATIC
        LOCFRAME DOVERLAY, 0, STATIC
        ARGFRAME ISTACK, 0, STACK
        ARGFRAME PSTACK, 0, STACK
        ARGFRAME XSTACK, 16, STACK
        ARGFRAME IOVERLAY, 0, STATIC
        ARGFRAME DOVERLAY, 0, STATIC
        FUNCALL Read_BH1750, BH1750_Stop
        LOCFRAME ISTACK, 0, STACK
        LOCFRAME PSTACK, 0, STACK
        LOCFRAME XSTACK, 16, STACK
        LOCFRAME IOVERLAY, 0, STATIC
        LOCFRAME DOVERLAY, 0, STATIC
        ARGFRAME ISTACK, 0, STACK
        ARGFRAME PSTACK, 0, STACK
        ARGFRAME XSTACK, 16, STACK
        ARGFRAME IOVERLAY, 0, STATIC
        ARGFRAME DOVERLAY, 0, STATIC
        FUNCALL Read_BH1750, Delay_1ms
        LOCFRAME ISTACK, 0, STACK
        LOCFRAME PSTACK, 0, STACK
        LOCFRAME XSTACK, 16, STACK
        LOCFRAME IOVERLAY, 0, STATIC
        LOCFRAME DOVERLAY, 0, STATIC
        ARGFRAME ISTACK, 0, STACK
        ARGFRAME PSTACK, 0, STACK
        ARGFRAME XSTACK, 16, STACK
        ARGFRAME IOVERLAY, 0, STATIC
        ARGFRAME DOVERLAY, 0, STATIC
        FUNCALL Read_BH1750, BH1750_Start
        LOCFRAME ISTACK, 0, STACK
        LOCFRAME PSTACK, 0, STACK
        LOCFRAME XSTACK, 16, STACK
        LOCFRAME IOVERLAY, 0, STATIC
        LOCFRAME DOVERLAY, 0, STATIC
        ARGFRAME ISTACK, 0, STACK
        ARGFRAME PSTACK, 0, STACK
        ARGFRAME XSTACK, 16, STACK
        ARGFRAME IOVERLAY, 0, STATIC
        ARGFRAME DOVERLAY, 0, STATIC
        FUNCALL Read_BH1750, BH1750_SendByte
        LOCFRAME ISTACK, 0, STACK
        LOCFRAME PSTACK, 0, STACK
        LOCFRAME XSTACK, 16, STACK
        LOCFRAME IOVERLAY, 0, STATIC
        LOCFRAME DOVERLAY, 0, STATIC
        ARGFRAME ISTACK, 0, STACK
        ARGFRAME PSTACK, 0, STACK
        ARGFRAME XSTACK, 16, STACK
        ARGFRAME IOVERLAY, 0, STATIC
        ARGFRAME DOVERLAY, 0, STATIC
        FUNCALL Read_BH1750, BH1750_Start
        LOCFRAME ISTACK, 0, STACK
        LOCFRAME PSTACK, 0, STACK
        LOCFRAME XSTACK, 16, STACK
        LOCFRAME IOVERLAY, 0, STATIC
        LOCFRAME DOVERLAY, 0, STATIC
        ARGFRAME ISTACK, 0, STACK
        ARGFRAME PSTACK, 0, STACK
        ARGFRAME XSTACK, 16, STACK
        ARGFRAME IOVERLAY, 0, STATIC
        ARGFRAME DOVERLAY, 0, STATIC
        FUNCALL Read_BH1750, BH1750_SendByte
        LOCFRAME ISTACK, 0, STACK
        LOCFRAME PSTACK, 0, STACK
        LOCFRAME XSTACK, 16, STACK
        LOCFRAME IOVERLAY, 0, STATIC
        LOCFRAME DOVERLAY, 0, STATIC
        ARGFRAME ISTACK, 0, STACK
        ARGFRAME PSTACK, 0, STACK
        ARGFRAME XSTACK, 16, STACK
        ARGFRAME IOVERLAY, 0, STATIC
        ARGFRAME DOVERLAY, 0, STATIC
        FUNCALL Read_BH1750, BH1750_SendByte
        LOCFRAME ISTACK, 0, STACK
        LOCFRAME PSTACK, 0, STACK
        LOCFRAME XSTACK, 16, STACK
        LOCFRAME IOVERLAY, 0, STATIC
        LOCFRAME DOVERLAY, 0, STATIC
        ARGFRAME ISTACK, 0, STACK
        ARGFRAME PSTACK, 0, STACK
        ARGFRAME XSTACK, 16, STACK
        ARGFRAME IOVERLAY, 0, STATIC
        ARGFRAME DOVERLAY, 0, STATIC
        FUNCALL Read_BH1750, BH1750_SendByte
        LOCFRAME ISTACK, 0, STACK
        LOCFRAME PSTACK, 0, STACK
        LOCFRAME XSTACK, 16, STACK
        LOCFRAME IOVERLAY, 0, STATIC
        LOCFRAME DOVERLAY, 0, STATIC
        ARGFRAME ISTACK, 0, STACK
        ARGFRAME PSTACK, 0, STACK
        ARGFRAME XSTACK, 16, STACK
        ARGFRAME IOVERLAY, 0, STATIC
        ARGFRAME DOVERLAY, 0, STATIC
        FUNCALL Read_BH1750, BH1750_Stop
        LOCFRAME ISTACK, 0, STACK
        LOCFRAME PSTACK, 0, STACK
        LOCFRAME XSTACK, 16, STACK
        LOCFRAME IOVERLAY, 0, STATIC
        LOCFRAME DOVERLAY, 0, STATIC
        ARGFRAME ISTACK, 0, STACK
        ARGFRAME PSTACK, 0, STACK
        ARGFRAME XSTACK, 16, STACK
        ARGFRAME IOVERLAY, 0, STATIC
        ARGFRAME DOVERLAY, 0, STATIC
        FUNCALL Read_BH1750, BH1750_Start
        LOCFRAME ISTACK, 0, STACK
        LOCFRAME PSTACK, 0, STACK
        LOCFRAME XSTACK, 16, STACK
        LOCFRAME IOVERLAY, 0, STATIC
        LOCFRAME DOVERLAY, 0, STATIC
        ARGFRAME ISTACK, 0, STACK
        ARGFRAME PSTACK, 0, STACK
        ARGFRAME XSTACK, 16, STACK
        ARGFRAME IOVERLAY, 0, STATIC
        ARGFRAME DOVERLAY, 0, STATIC
        FUNCALL Read_BH1750, BH1750_SendByte
        LOCFRAME ISTACK, 0, STACK
        LOCFRAME PSTACK, 0, STACK
        LOCFRAME XSTACK, 16, STACK
        LOCFRAME IOVERLAY, 0, STATIC
        LOCFRAME DOVERLAY, 0, STATIC
        ARGFRAME ISTACK, 0, STACK
        ARGFRAME PSTACK, 0, STACK
        ARGFRAME XSTACK, 16, STACK
        ARGFRAME IOVERLAY, 0, STATIC
        ARGFRAME DOVERLAY, 0, STATIC
        FUNCALL Read_BH1750, BH1750_Start
        LOCFRAME ISTACK, 0, STACK
        LOCFRAME PSTACK, 0, STACK
        LOCFRAME XSTACK, 16, STACK
        LOCFRAME IOVERLAY, 0, STATIC
        LOCFRAME DOVERLAY, 0, STATIC
        ARGFRAME ISTACK, 0, STACK
        ARGFRAME PSTACK, 0, STACK
        ARGFRAME XSTACK, 16, STACK
        ARGFRAME IOVERLAY, 0, STATIC
        ARGFRAME DOVERLAY, 0, STATIC
        FUNCALL Read_BH1750, BH1750_SendByte
        LOCFRAME ISTACK, 0, STACK
        LOCFRAME PSTACK, 0, STACK
        LOCFRAME XSTACK, 16, STACK
        LOCFRAME IOVERLAY, 0, STATIC
        LOCFRAME DOVERLAY, 0, STATIC
        ARGFRAME ISTACK, 0, STACK
        ARGFRAME PSTACK, 0, STACK
        ARGFRAME XSTACK, 16, STACK
        ARGFRAME IOVERLAY, 0, STATIC
        ARGFRAME DOVERLAY, 0, STATIC
        FUNCALL Read_BH1750, BH1750_SendByte
        LOCFRAME ISTACK, 0, STACK
        LOCFRAME PSTACK, 0, STACK
        LOCFRAME XSTACK, 16, STACK
        LOCFRAME IOVERLAY, 0, STATIC
        LOCFRAME DOVERLAY, 0, STATIC
        ARGFRAME ISTACK, 0, STACK
        ARGFRAME PSTACK, 0, STACK
        ARGFRAME XSTACK, 16, STACK
        ARGFRAME IOVERLAY, 0, STATIC
        ARGFRAME DOVERLAY, 0, STATIC
        FUNCALL Read_BH1750, BH1750_SendByte
        LOCFRAME ISTACK, 0, STACK
        LOCFRAME PSTACK, 0, STACK
        LOCFRAME XSTACK, 16, STACK
        LOCFRAME IOVERLAY, 0, STATIC
        LOCFRAME DOVERLAY, 0, STATIC
        ARGFRAME ISTACK, 0, STACK
        ARGFRAME PSTACK, 0, STACK
        ARGFRAME XSTACK, 16, STACK
        ARGFRAME IOVERLAY, 0, STATIC
        ARGFRAME DOVERLAY, 0, STATIC
        FUNCALL Read_BH1750, BH1750_Stop
        LOCFRAME ISTACK, 0, STACK
        LOCFRAME PSTACK, 0, STACK
        LOCFRAME XSTACK, 16, STACK
        LOCFRAME IOVERLAY, 0, STATIC
        LOCFRAME DOVERLAY, 0, STATIC
        ARGFRAME ISTACK, 0, STACK
        ARGFRAME PSTACK, 0, STACK
        ARGFRAME XSTACK, 16, STACK
        ARGFRAME IOVERLAY, 0, STATIC
        ARGFRAME DOVERLAY, 0, STATIC
        FUNCALL Read_BH1750, Delay_1ms
        LOCFRAME ISTACK, 0, STACK
        LOCFRAME PSTACK, 0, STACK
        LOCFRAME XSTACK, 16, STACK
        LOCFRAME IOVERLAY, 0, STATIC
        LOCFRAME DOVERLAY, 0, STATIC
        ARGFRAME ISTACK, 0, STACK
        ARGFRAME PSTACK, 0, STACK
        ARGFRAME XSTACK, 16, STACK
        ARGFRAME IOVERLAY, 0, STATIC
        ARGFRAME DOVERLAY, 0, STATIC
        FUNCALL Read_BH1750, BH1750_Start
        LOCFRAME ISTACK, 0, STACK
        LOCFRAME PSTACK, 0, STACK
        LOCFRAME XSTACK, 16, STACK
        LOCFRAME IOVERLAY, 0, STATIC
        LOCFRAME DOVERLAY, 0, STATIC
        ARGFRAME ISTACK, 0, STACK
        ARGFRAME PSTACK, 0, STACK
        ARGFRAME XSTACK, 16, STACK
        ARGFRAME IOVERLAY, 0, STATIC
        ARGFRAME DOVERLAY, 0, STATIC
        FUNCALL Read_BH1750, BH1750_SendByte
        LOCFRAME ISTACK, 0, STACK
        LOCFRAME PSTACK, 0, STACK
        LOCFRAME XSTACK, 16, STACK
        LOCFRAME IOVERLAY, 0, STATIC
        LOCFRAME DOVERLAY, 0, STATIC
        ARGFRAME ISTACK, 0, STACK
        ARGFRAME PSTACK, 0, STACK
        ARGFRAME XSTACK, 16, STACK
        ARGFRAME IOVERLAY, 0, STATIC
        ARGFRAME DOVERLAY, 0, STATIC
        FUNCALL Read_BH1750, BH1750_Start
        LOCFRAME ISTACK, 0, STACK
        LOCFRAME PSTACK, 0, STACK
        LOCFRAME XSTACK, 16, STACK
        LOCFRAME IOVERLAY, 0, STATIC
        LOCFRAME DOVERLAY, 0, STATIC
        ARGFRAME ISTACK, 0, STACK
        ARGFRAME PSTACK, 0, STACK
        ARGFRAME XSTACK, 16, STACK
        ARGFRAME IOVERLAY, 0, STATIC
        ARGFRAME DOVERLAY, 0, STATIC
        FUNCALL Read_BH1750, BH1750_SendByte
        LOCFRAME ISTACK, 0, STACK
        LOCFRAME PSTACK, 0, STACK
        LOCFRAME XSTACK, 16, STACK
        LOCFRAME IOVERLAY, 0, STATIC
        LOCFRAME DOVERLAY, 0, STATIC
        ARGFRAME ISTACK, 0, STACK
        ARGFRAME PSTACK, 0, STACK
        ARGFRAME XSTACK, 16, STACK
        ARGFRAME IOVERLAY, 0, STATIC
        ARGFRAME DOVERLAY, 0, STATIC
        FUNCALL Read_BH1750, BH1750_RecvByte
        LOCFRAME ISTACK, 0, STACK
        LOCFRAME PSTACK, 0, STACK
        LOCFRAME XSTACK, 16, STACK
        LOCFRAME IOVERLAY, 0, STATIC
        LOCFRAME DOVERLAY, 0, STATIC
        ARGFRAME ISTACK, 0, STACK
        ARGFRAME PSTACK, 0, STACK
        ARGFRAME XSTACK, 16, STACK
        ARGFRAME IOVERLAY, 0, STATIC
        ARGFRAME DOVERLAY, 0, STATIC
        FUNCALL Read_BH1750, BH1750_SendACK
        LOCFRAME ISTACK, 0, STACK
        LOCFRAME PSTACK, 0, STACK
        LOCFRAME XSTACK, 16, STACK
        LOCFRAME IOVERLAY, 0, STATIC
        LOCFRAME DOVERLAY, 0, STATIC
        ARGFRAME ISTACK, 0, STACK
        ARGFRAME PSTACK, 0, STACK
        ARGFRAME XSTACK, 16, STACK
        ARGFRAME IOVERLAY, 0, STATIC
        ARGFRAME DOVERLAY, 0, STATIC
        FUNCALL Read_BH1750, BH1750_RecvByte
        LOCFRAME ISTACK, 0, STACK
        LOCFRAME PSTACK, 0, STACK
        LOCFRAME XSTACK, 16, STACK
        LOCFRAME IOVERLAY, 0, STATIC
        LOCFRAME DOVERLAY, 0, STATIC
        ARGFRAME ISTACK, 0, STACK
        ARGFRAME PSTACK, 0, STACK
        ARGFRAME XSTACK, 16, STACK
        ARGFRAME IOVERLAY, 0, STATIC
        ARGFRAME DOVERLAY, 0, STATIC
        FUNCALL Read_BH1750, BH1750_SendACK
        LOCFRAME ISTACK, 0, STACK
        LOCFRAME PSTACK, 0, STACK
        LOCFRAME XSTACK, 16, STACK
        LOCFRAME IOVERLAY, 0, STATIC
        LOCFRAME DOVERLAY, 0, STATIC
        ARGFRAME ISTACK, 0, STACK
        ARGFRAME PSTACK, 0, STACK
        ARGFRAME XSTACK, 16, STACK
        ARGFRAME IOVERLAY, 0, STATIC
        ARGFRAME DOVERLAY, 0, STATIC
        FUNCALL Read_BH1750, BH1750_Stop
        LOCFRAME ISTACK, 0, STACK
        LOCFRAME PSTACK, 0, STACK
        LOCFRAME XSTACK, 16, STACK
        LOCFRAME IOVERLAY, 0, STATIC
        LOCFRAME DOVERLAY, 0, STATIC
        ARGFRAME ISTACK, 0, STACK
        ARGFRAME PSTACK, 0, STACK
        ARGFRAME XSTACK, 16, STACK
        ARGFRAME IOVERLAY, 0, STATIC
        ARGFRAME DOVERLAY, 0, STATIC
        FUNCALL Read_BH1750, Delay_1ms
        LOCFRAME ISTACK, 0, STACK
        LOCFRAME PSTACK, 0, STACK
        LOCFRAME XSTACK, 16, STACK
        LOCFRAME IOVERLAY, 0, STATIC
        LOCFRAME DOVERLAY, 0, STATIC
        ARGFRAME ISTACK, 0, STACK
        ARGFRAME PSTACK, 0, STACK
        ARGFRAME XSTACK, 16, STACK
        ARGFRAME IOVERLAY, 0, STATIC
        ARGFRAME DOVERLAY, 0, STATIC
        MOV     A,#-0x10
        LCALL   ?BANKED_ENTER_XDATA
        CFI DPH0 load(1, XDATA, add(CFA_XSP16, literal(-1)))
        CFI DPL0 load(1, XDATA, add(CFA_XSP16, literal(-2)))
        CFI ?BRET_EXT load(1, XDATA, add(CFA_XSP16, literal(-3)))
        CFI ?RET_HIGH load(1, XDATA, add(CFA_XSP16, literal(-4)))
        CFI ?RET_LOW load(1, XDATA, add(CFA_XSP16, literal(-5)))
        CFI R7 load(1, XDATA, add(CFA_XSP16, literal(-6)))
        CFI V7 load(1, XDATA, add(CFA_XSP16, literal(-7)))
        CFI V6 load(1, XDATA, add(CFA_XSP16, literal(-8)))
        CFI V5 load(1, XDATA, add(CFA_XSP16, literal(-9)))
        CFI V4 load(1, XDATA, add(CFA_XSP16, literal(-10)))
        CFI V3 load(1, XDATA, add(CFA_XSP16, literal(-11)))
        CFI V2 load(1, XDATA, add(CFA_XSP16, literal(-12)))
        CFI V1 load(1, XDATA, add(CFA_XSP16, literal(-13)))
        CFI V0 load(1, XDATA, add(CFA_XSP16, literal(-14)))
        CFI VB load(1, XDATA, add(CFA_XSP16, literal(-15)))
        CFI R6 load(1, XDATA, add(CFA_XSP16, literal(-16)))
        CFI CFA_SP SP+0
        CFI CFA_XSP16 add(XSP16, 16)
        ; Saved register size: 16
        ; Auto size: 0
//  206     uchar t0,t1,t;
//  207     BH1750_Start();
        ; Setup parameters for call to function BH1750_Start
        LCALL   ?Subroutine2 & 0xFFFF
//  208     BH1750_SendByte(SlaveAddress);      //发送设备地址+写信号
//  209     if(F0)
??CrossCallReturnLabel_0:
        JNC     ??CrossCallReturnLabel_3
//  210     {
//  211         BH1750_Start();                 //起始信号
        ; Setup parameters for call to function BH1750_Start
        LCALL   ?Subroutine3 & 0xFFFF
//  212         BH1750_SendByte(SlaveAddress);  //发送设备地址+写信号
//  213     }
//  214     BH1750_SendByte(0x00);              // 断电
??CrossCallReturnLabel_3:
        ; Setup parameters for call to function BH1750_SendByte
        MOV     R1,#0x0
        LCALL   ?Subroutine6 & 0xFFFF
//  215     if(F0)
??CrossCallReturnLabel_13:
        JNC     ??Read_BH1750_0
//  216     {
//  217         BH1750_SendByte(0x00);      
        ; Setup parameters for call to function BH1750_SendByte
        MOV     R1,#0x0
        LCALL   ??BH1750_SendByte?relay
//  218     }
//  219     BH1750_Stop();
??Read_BH1750_0:
        ; Setup parameters for call to function BH1750_Stop
        LCALL   ??BH1750_Stop?relay
//  220     Delay_1ms(30);
        ; Setup parameters for call to function Delay_1ms
        MOV     R2,#0x1e
        MOV     R3,#0x0
        LCALL   ??Delay_1ms?relay
//  221 
//  222     BH1750_Start();                     //起始信号
        ; Setup parameters for call to function BH1750_Start
        LCALL   ?Subroutine2 & 0xFFFF
//  223     BH1750_SendByte(SlaveAddress);      //发送设备地址+写信号
//  224     if(F0)
??CrossCallReturnLabel_1:
        JNC     ??CrossCallReturnLabel_4
//  225     {
//  226         BH1750_Start();                 //起始信号
        ; Setup parameters for call to function BH1750_Start
        LCALL   ?Subroutine3 & 0xFFFF
//  227         BH1750_SendByte(SlaveAddress);  //发送设备地址+写信号
//  228     }
//  229     BH1750_SendByte(0x01);              // 上电
??CrossCallReturnLabel_4:
        ; Setup parameters for call to function BH1750_SendByte
        MOV     R1,#0x1
        LCALL   ?Subroutine6 & 0xFFFF
//  230     if(F0)
??CrossCallReturnLabel_14:
        JNC     ??Read_BH1750_1
//  231     {
//  232         BH1750_SendByte(0x01);      
        ; Setup parameters for call to function BH1750_SendByte
        MOV     R1,#0x1
        LCALL   ??BH1750_SendByte?relay
//  233     }
//  234     BH1750_Stop();
??Read_BH1750_1:
        ; Setup parameters for call to function BH1750_Stop
        LCALL   ??BH1750_Stop?relay
//  235 
//  236     BH1750_Start();                          //起始信号
        ; Setup parameters for call to function BH1750_Start
        LCALL   ?Subroutine2 & 0xFFFF
//  237     BH1750_SendByte(SlaveAddress);           //发送设备地址+写信号
//  238     if(F0)
??CrossCallReturnLabel_2:
        JNC     ??CrossCallReturnLabel_5
//  239     {
//  240         BH1750_Start();                          //起始信号
        ; Setup parameters for call to function BH1750_Start
        LCALL   ?Subroutine3 & 0xFFFF
//  241         BH1750_SendByte(SlaveAddress);           //发送设备地址+写信号
//  242     }
//  243     BH1750_SendByte(0x10);                  // H- resolution mode
??CrossCallReturnLabel_5:
        ; Setup parameters for call to function BH1750_SendByte
        MOV     R1,#0x10
        LCALL   ?Subroutine6 & 0xFFFF
//  244     if(F0)
??CrossCallReturnLabel_15:
        JNC     ??Read_BH1750_2
//  245     {
//  246         BH1750_SendByte(0x10);      
        ; Setup parameters for call to function BH1750_SendByte
        MOV     R1,#0x10
        LCALL   ??BH1750_SendByte?relay
//  247     }
//  248     BH1750_Stop();
??Read_BH1750_2:
        ; Setup parameters for call to function BH1750_Stop
        LCALL   ??BH1750_Stop?relay
//  249     Delay_1ms(180);               //延时180ms                //发送存储单元地址，从0开始       
        ; Setup parameters for call to function Delay_1ms
        MOV     R2,#-0x4c
        MOV     R3,#0x0
        LCALL   ??Delay_1ms?relay
//  250    
//  251     BH1750_Start();                          //起始信号
        ; Setup parameters for call to function BH1750_Start
        LCALL   ?Subroutine4 & 0xFFFF
//  252     BH1750_SendByte(SlaveAddress+1);         //发送设备地址+读信号
//  253     if(F0)
??CrossCallReturnLabel_7:
        MOV     C,0xd0.5
        JNC     ??CrossCallReturnLabel_8
//  254     {
//  255         BH1750_Start();                          //起始信号
        ; Setup parameters for call to function BH1750_Start
        LCALL   ?Subroutine4 & 0xFFFF
//  256         BH1750_SendByte(SlaveAddress+1);           //发送设备地址+写信号
//  257     }
//  258    
//  259     t0= BH1750_RecvByte();          //BUF[0]存储0x32地址中的数据
??CrossCallReturnLabel_8:
        ; Setup parameters for call to function BH1750_RecvByte
        LCALL   ??BH1750_RecvByte?relay
        MOV     A,R1
        MOV     R6,A
//  260     BH1750_SendACK(0);                //最后一个数据需要回NOACK
        ; Setup parameters for call to function BH1750_SendACK
        MOV     R1,#0x0
        LCALL   ??BH1750_SendACK?relay
//  261 
//  262     t1= BH1750_RecvByte();
        ; Setup parameters for call to function BH1750_RecvByte
        LCALL   ??BH1750_RecvByte?relay
        MOV     A,R1
        MOV     ?V0 + 0,A
//  263     BH1750_SendACK(1);                //回应ACK
        ; Setup parameters for call to function BH1750_SendACK
        MOV     R1,#0x1
        LCALL   ??BH1750_SendACK?relay
//  264       
//  265     BH1750_Stop();                           //停止信号
        ; Setup parameters for call to function BH1750_Stop
        LCALL   ??BH1750_Stop?relay
//  266     t=((t0<<8)+t1)/1.2;
//  267     Delay_1ms(5);
        ; Setup parameters for call to function Delay_1ms
        MOV     R2,#0x5
        MOV     R3,#0x0
        LCALL   ??Delay_1ms?relay
//  268     return t;
        MOV     A,R6
        MOV     R1,A
        MOV     A,?V0 + 0
        ADD     A,#0x0
        CLR     A
        ADDC    A,R1
        MOV     ?V0 + 1,A
        RLC     A
        SUBB    A,0xE0 /* A   */
        MOV     ?V0 + 2,A
        MOV     ?V0 + 3,A
        MOV     R0,#?V0 + 0
        LCALL   ?L_TO_FLT
        MOV     DPTR,#__Constant_3f99999a
        MOV     R0,#?V0 + 4
        LCALL   ?L_MOV_X
        MOV     R0,#?V0 + 0
        MOV     R1,#?V0 + 4
        LCALL   ?FLT_DIV
        MOV     R0,#?V0 + 0
        LCALL   ?FLT_TO_L
        MOV     R1,?V0 + 0
        MOV     R7,#0x8
        LJMP    ?BANKED_LEAVE_XDATA
        CFI EndBlock cfiBlock58
        REQUIRE _A_PSW
//  269 }

        RSEG BANKED_CODE:CODE:NOROOT(0)
?Subroutine4:
        CFI Block cfiCond59 Using cfiCommon0
        CFI NoFunction
        CFI Conditional ??CrossCallReturnLabel_7
        CFI R6 load(1, XDATA, add(CFA_XSP16, literal(-16)))
        CFI VB load(1, XDATA, add(CFA_XSP16, literal(-15)))
        CFI V0 load(1, XDATA, add(CFA_XSP16, literal(-14)))
        CFI V1 load(1, XDATA, add(CFA_XSP16, literal(-13)))
        CFI V2 load(1, XDATA, add(CFA_XSP16, literal(-12)))
        CFI V3 load(1, XDATA, add(CFA_XSP16, literal(-11)))
        CFI V4 load(1, XDATA, add(CFA_XSP16, literal(-10)))
        CFI V5 load(1, XDATA, add(CFA_XSP16, literal(-9)))
        CFI V6 load(1, XDATA, add(CFA_XSP16, literal(-8)))
        CFI V7 load(1, XDATA, add(CFA_XSP16, literal(-7)))
        CFI R7 load(1, XDATA, add(CFA_XSP16, literal(-6)))
        CFI ?RET_LOW load(1, XDATA, add(CFA_XSP16, literal(-5)))
        CFI ?RET_HIGH load(1, XDATA, add(CFA_XSP16, literal(-4)))
        CFI ?BRET_EXT load(1, XDATA, add(CFA_XSP16, literal(-3)))
        CFI DPL0 load(1, XDATA, add(CFA_XSP16, literal(-2)))
        CFI DPH0 load(1, XDATA, add(CFA_XSP16, literal(-1)))
        CFI CFA_SP SP+0
        CFI CFA_XSP16 add(XSP16, 16)
        CFI Block cfiCond60 Using cfiCommon0
        CFI (cfiCond60) NoFunction
        CFI (cfiCond60) Conditional ??CrossCallReturnLabel_8
        CFI (cfiCond60) R6 load(1, XDATA, add(CFA_XSP16, literal(-16)))
        CFI (cfiCond60) VB load(1, XDATA, add(CFA_XSP16, literal(-15)))
        CFI (cfiCond60) V0 load(1, XDATA, add(CFA_XSP16, literal(-14)))
        CFI (cfiCond60) V1 load(1, XDATA, add(CFA_XSP16, literal(-13)))
        CFI (cfiCond60) V2 load(1, XDATA, add(CFA_XSP16, literal(-12)))
        CFI (cfiCond60) V3 load(1, XDATA, add(CFA_XSP16, literal(-11)))
        CFI (cfiCond60) V4 load(1, XDATA, add(CFA_XSP16, literal(-10)))
        CFI (cfiCond60) V5 load(1, XDATA, add(CFA_XSP16, literal(-9)))
        CFI (cfiCond60) V6 load(1, XDATA, add(CFA_XSP16, literal(-8)))
        CFI (cfiCond60) V7 load(1, XDATA, add(CFA_XSP16, literal(-7)))
        CFI (cfiCond60) R7 load(1, XDATA, add(CFA_XSP16, literal(-6)))
        CFI (cfiCond60) ?RET_LOW load(1, XDATA, add(CFA_XSP16, literal(-5)))
        CFI (cfiCond60) ?RET_HIGH load(1, XDATA, add(CFA_XSP16, literal(-4)))
        CFI (cfiCond60) ?BRET_EXT load(1, XDATA, add(CFA_XSP16, literal(-3)))
        CFI (cfiCond60) DPL0 load(1, XDATA, add(CFA_XSP16, literal(-2)))
        CFI (cfiCond60) DPH0 load(1, XDATA, add(CFA_XSP16, literal(-1)))
        CFI (cfiCond60) CFA_SP SP+0
        CFI (cfiCond60) CFA_XSP16 add(XSP16, 16)
        CFI Block cfiPicker61 Using cfiCommon1
        CFI (cfiPicker61) NoFunction
        CFI (cfiPicker61) Picker
        LCALL   ??BH1750_Start?relay
        ; Setup parameters for call to function BH1750_SendByte
        ; Setup parameters for call to function BH1750_SendByte
        MOV     R1,#0x47
        LCALL   ??BH1750_SendByte?relay
        RET
        CFI EndBlock cfiCond59
        CFI EndBlock cfiCond60
        CFI EndBlock cfiPicker61

        RSEG BANKED_CODE:CODE:NOROOT(0)
?Subroutine2:
        CFI Block cfiCond62 Using cfiCommon0
        CFI NoFunction
        CFI Conditional ??CrossCallReturnLabel_0
        CFI R6 load(1, XDATA, add(CFA_XSP16, literal(-16)))
        CFI VB load(1, XDATA, add(CFA_XSP16, literal(-15)))
        CFI V0 load(1, XDATA, add(CFA_XSP16, literal(-14)))
        CFI V1 load(1, XDATA, add(CFA_XSP16, literal(-13)))
        CFI V2 load(1, XDATA, add(CFA_XSP16, literal(-12)))
        CFI V3 load(1, XDATA, add(CFA_XSP16, literal(-11)))
        CFI V4 load(1, XDATA, add(CFA_XSP16, literal(-10)))
        CFI V5 load(1, XDATA, add(CFA_XSP16, literal(-9)))
        CFI V6 load(1, XDATA, add(CFA_XSP16, literal(-8)))
        CFI V7 load(1, XDATA, add(CFA_XSP16, literal(-7)))
        CFI R7 load(1, XDATA, add(CFA_XSP16, literal(-6)))
        CFI ?RET_LOW load(1, XDATA, add(CFA_XSP16, literal(-5)))
        CFI ?RET_HIGH load(1, XDATA, add(CFA_XSP16, literal(-4)))
        CFI ?BRET_EXT load(1, XDATA, add(CFA_XSP16, literal(-3)))
        CFI DPL0 load(1, XDATA, add(CFA_XSP16, literal(-2)))
        CFI DPH0 load(1, XDATA, add(CFA_XSP16, literal(-1)))
        CFI CFA_SP SP+0
        CFI CFA_XSP16 add(XSP16, 16)
        CFI Block cfiCond63 Using cfiCommon0
        CFI (cfiCond63) NoFunction
        CFI (cfiCond63) Conditional ??CrossCallReturnLabel_1
        CFI (cfiCond63) R6 load(1, XDATA, add(CFA_XSP16, literal(-16)))
        CFI (cfiCond63) VB load(1, XDATA, add(CFA_XSP16, literal(-15)))
        CFI (cfiCond63) V0 load(1, XDATA, add(CFA_XSP16, literal(-14)))
        CFI (cfiCond63) V1 load(1, XDATA, add(CFA_XSP16, literal(-13)))
        CFI (cfiCond63) V2 load(1, XDATA, add(CFA_XSP16, literal(-12)))
        CFI (cfiCond63) V3 load(1, XDATA, add(CFA_XSP16, literal(-11)))
        CFI (cfiCond63) V4 load(1, XDATA, add(CFA_XSP16, literal(-10)))
        CFI (cfiCond63) V5 load(1, XDATA, add(CFA_XSP16, literal(-9)))
        CFI (cfiCond63) V6 load(1, XDATA, add(CFA_XSP16, literal(-8)))
        CFI (cfiCond63) V7 load(1, XDATA, add(CFA_XSP16, literal(-7)))
        CFI (cfiCond63) R7 load(1, XDATA, add(CFA_XSP16, literal(-6)))
        CFI (cfiCond63) ?RET_LOW load(1, XDATA, add(CFA_XSP16, literal(-5)))
        CFI (cfiCond63) ?RET_HIGH load(1, XDATA, add(CFA_XSP16, literal(-4)))
        CFI (cfiCond63) ?BRET_EXT load(1, XDATA, add(CFA_XSP16, literal(-3)))
        CFI (cfiCond63) DPL0 load(1, XDATA, add(CFA_XSP16, literal(-2)))
        CFI (cfiCond63) DPH0 load(1, XDATA, add(CFA_XSP16, literal(-1)))
        CFI (cfiCond63) CFA_SP SP+0
        CFI (cfiCond63) CFA_XSP16 add(XSP16, 16)
        CFI Block cfiCond64 Using cfiCommon0
        CFI (cfiCond64) NoFunction
        CFI (cfiCond64) Conditional ??CrossCallReturnLabel_2
        CFI (cfiCond64) R6 load(1, XDATA, add(CFA_XSP16, literal(-16)))
        CFI (cfiCond64) VB load(1, XDATA, add(CFA_XSP16, literal(-15)))
        CFI (cfiCond64) V0 load(1, XDATA, add(CFA_XSP16, literal(-14)))
        CFI (cfiCond64) V1 load(1, XDATA, add(CFA_XSP16, literal(-13)))
        CFI (cfiCond64) V2 load(1, XDATA, add(CFA_XSP16, literal(-12)))
        CFI (cfiCond64) V3 load(1, XDATA, add(CFA_XSP16, literal(-11)))
        CFI (cfiCond64) V4 load(1, XDATA, add(CFA_XSP16, literal(-10)))
        CFI (cfiCond64) V5 load(1, XDATA, add(CFA_XSP16, literal(-9)))
        CFI (cfiCond64) V6 load(1, XDATA, add(CFA_XSP16, literal(-8)))
        CFI (cfiCond64) V7 load(1, XDATA, add(CFA_XSP16, literal(-7)))
        CFI (cfiCond64) R7 load(1, XDATA, add(CFA_XSP16, literal(-6)))
        CFI (cfiCond64) ?RET_LOW load(1, XDATA, add(CFA_XSP16, literal(-5)))
        CFI (cfiCond64) ?RET_HIGH load(1, XDATA, add(CFA_XSP16, literal(-4)))
        CFI (cfiCond64) ?BRET_EXT load(1, XDATA, add(CFA_XSP16, literal(-3)))
        CFI (cfiCond64) DPL0 load(1, XDATA, add(CFA_XSP16, literal(-2)))
        CFI (cfiCond64) DPH0 load(1, XDATA, add(CFA_XSP16, literal(-1)))
        CFI (cfiCond64) CFA_SP SP+0
        CFI (cfiCond64) CFA_XSP16 add(XSP16, 16)
        CFI Block cfiPicker65 Using cfiCommon1
        CFI (cfiPicker65) NoFunction
        CFI (cfiPicker65) Picker
        LCALL   ??BH1750_Start?relay
        ; Setup parameters for call to function BH1750_SendByte
        ; Setup parameters for call to function BH1750_SendByte
        ; Setup parameters for call to function BH1750_SendByte
        MOV     R1,#0x46
        LCALL   ?Subroutine6 & 0xFFFF
??CrossCallReturnLabel_16:
        RET
        CFI EndBlock cfiCond62
        CFI EndBlock cfiCond63
        CFI EndBlock cfiCond64
        CFI EndBlock cfiPicker65

        RSEG BANKED_CODE:CODE:NOROOT(0)
?Subroutine6:
        CFI Block cfiCond66 Using cfiCommon0
        CFI NoFunction
        CFI Conditional ??CrossCallReturnLabel_13
        CFI R6 load(1, XDATA, add(CFA_XSP16, literal(-16)))
        CFI VB load(1, XDATA, add(CFA_XSP16, literal(-15)))
        CFI V0 load(1, XDATA, add(CFA_XSP16, literal(-14)))
        CFI V1 load(1, XDATA, add(CFA_XSP16, literal(-13)))
        CFI V2 load(1, XDATA, add(CFA_XSP16, literal(-12)))
        CFI V3 load(1, XDATA, add(CFA_XSP16, literal(-11)))
        CFI V4 load(1, XDATA, add(CFA_XSP16, literal(-10)))
        CFI V5 load(1, XDATA, add(CFA_XSP16, literal(-9)))
        CFI V6 load(1, XDATA, add(CFA_XSP16, literal(-8)))
        CFI V7 load(1, XDATA, add(CFA_XSP16, literal(-7)))
        CFI R7 load(1, XDATA, add(CFA_XSP16, literal(-6)))
        CFI ?RET_LOW load(1, XDATA, add(CFA_XSP16, literal(-5)))
        CFI ?RET_HIGH load(1, XDATA, add(CFA_XSP16, literal(-4)))
        CFI ?BRET_EXT load(1, XDATA, add(CFA_XSP16, literal(-3)))
        CFI DPL0 load(1, XDATA, add(CFA_XSP16, literal(-2)))
        CFI DPH0 load(1, XDATA, add(CFA_XSP16, literal(-1)))
        CFI CFA_SP SP+0
        CFI CFA_XSP16 add(XSP16, 16)
        CFI Block cfiCond67 Using cfiCommon0
        CFI (cfiCond67) NoFunction
        CFI (cfiCond67) Conditional ??CrossCallReturnLabel_14
        CFI (cfiCond67) R6 load(1, XDATA, add(CFA_XSP16, literal(-16)))
        CFI (cfiCond67) VB load(1, XDATA, add(CFA_XSP16, literal(-15)))
        CFI (cfiCond67) V0 load(1, XDATA, add(CFA_XSP16, literal(-14)))
        CFI (cfiCond67) V1 load(1, XDATA, add(CFA_XSP16, literal(-13)))
        CFI (cfiCond67) V2 load(1, XDATA, add(CFA_XSP16, literal(-12)))
        CFI (cfiCond67) V3 load(1, XDATA, add(CFA_XSP16, literal(-11)))
        CFI (cfiCond67) V4 load(1, XDATA, add(CFA_XSP16, literal(-10)))
        CFI (cfiCond67) V5 load(1, XDATA, add(CFA_XSP16, literal(-9)))
        CFI (cfiCond67) V6 load(1, XDATA, add(CFA_XSP16, literal(-8)))
        CFI (cfiCond67) V7 load(1, XDATA, add(CFA_XSP16, literal(-7)))
        CFI (cfiCond67) R7 load(1, XDATA, add(CFA_XSP16, literal(-6)))
        CFI (cfiCond67) ?RET_LOW load(1, XDATA, add(CFA_XSP16, literal(-5)))
        CFI (cfiCond67) ?RET_HIGH load(1, XDATA, add(CFA_XSP16, literal(-4)))
        CFI (cfiCond67) ?BRET_EXT load(1, XDATA, add(CFA_XSP16, literal(-3)))
        CFI (cfiCond67) DPL0 load(1, XDATA, add(CFA_XSP16, literal(-2)))
        CFI (cfiCond67) DPH0 load(1, XDATA, add(CFA_XSP16, literal(-1)))
        CFI (cfiCond67) CFA_SP SP+0
        CFI (cfiCond67) CFA_XSP16 add(XSP16, 16)
        CFI Block cfiCond68 Using cfiCommon0
        CFI (cfiCond68) NoFunction
        CFI (cfiCond68) Conditional ??CrossCallReturnLabel_15
        CFI (cfiCond68) R6 load(1, XDATA, add(CFA_XSP16, literal(-16)))
        CFI (cfiCond68) VB load(1, XDATA, add(CFA_XSP16, literal(-15)))
        CFI (cfiCond68) V0 load(1, XDATA, add(CFA_XSP16, literal(-14)))
        CFI (cfiCond68) V1 load(1, XDATA, add(CFA_XSP16, literal(-13)))
        CFI (cfiCond68) V2 load(1, XDATA, add(CFA_XSP16, literal(-12)))
        CFI (cfiCond68) V3 load(1, XDATA, add(CFA_XSP16, literal(-11)))
        CFI (cfiCond68) V4 load(1, XDATA, add(CFA_XSP16, literal(-10)))
        CFI (cfiCond68) V5 load(1, XDATA, add(CFA_XSP16, literal(-9)))
        CFI (cfiCond68) V6 load(1, XDATA, add(CFA_XSP16, literal(-8)))
        CFI (cfiCond68) V7 load(1, XDATA, add(CFA_XSP16, literal(-7)))
        CFI (cfiCond68) R7 load(1, XDATA, add(CFA_XSP16, literal(-6)))
        CFI (cfiCond68) ?RET_LOW load(1, XDATA, add(CFA_XSP16, literal(-5)))
        CFI (cfiCond68) ?RET_HIGH load(1, XDATA, add(CFA_XSP16, literal(-4)))
        CFI (cfiCond68) ?BRET_EXT load(1, XDATA, add(CFA_XSP16, literal(-3)))
        CFI (cfiCond68) DPL0 load(1, XDATA, add(CFA_XSP16, literal(-2)))
        CFI (cfiCond68) DPH0 load(1, XDATA, add(CFA_XSP16, literal(-1)))
        CFI (cfiCond68) CFA_SP SP+0
        CFI (cfiCond68) CFA_XSP16 add(XSP16, 16)
        CFI Block cfiCond69 Using cfiCommon0
        CFI (cfiCond69) NoFunction
        CFI (cfiCond69) Conditional ??CrossCallReturnLabel_16, ??CrossCallReturnLabel_0
        CFI (cfiCond69) R6 load(1, XDATA, add(CFA_XSP16, literal(-16)))
        CFI (cfiCond69) VB load(1, XDATA, add(CFA_XSP16, literal(-15)))
        CFI (cfiCond69) V0 load(1, XDATA, add(CFA_XSP16, literal(-14)))
        CFI (cfiCond69) V1 load(1, XDATA, add(CFA_XSP16, literal(-13)))
        CFI (cfiCond69) V2 load(1, XDATA, add(CFA_XSP16, literal(-12)))
        CFI (cfiCond69) V3 load(1, XDATA, add(CFA_XSP16, literal(-11)))
        CFI (cfiCond69) V4 load(1, XDATA, add(CFA_XSP16, literal(-10)))
        CFI (cfiCond69) V5 load(1, XDATA, add(CFA_XSP16, literal(-9)))
        CFI (cfiCond69) V6 load(1, XDATA, add(CFA_XSP16, literal(-8)))
        CFI (cfiCond69) V7 load(1, XDATA, add(CFA_XSP16, literal(-7)))
        CFI (cfiCond69) R7 load(1, XDATA, add(CFA_XSP16, literal(-6)))
        CFI (cfiCond69) ?RET_LOW load(1, XDATA, add(CFA_XSP16, literal(-5)))
        CFI (cfiCond69) ?RET_HIGH load(1, XDATA, add(CFA_XSP16, literal(-4)))
        CFI (cfiCond69) ?BRET_EXT load(1, XDATA, add(CFA_XSP16, literal(-3)))
        CFI (cfiCond69) DPL0 load(1, XDATA, add(CFA_XSP16, literal(-2)))
        CFI (cfiCond69) DPH0 load(1, XDATA, add(CFA_XSP16, literal(-1)))
        CFI (cfiCond69) CFA_SP SP+0
        CFI (cfiCond69) CFA_XSP16 add(XSP16, 16)
        CFI Block cfiCond70 Using cfiCommon0
        CFI (cfiCond70) NoFunction
        CFI (cfiCond70) Conditional ??CrossCallReturnLabel_16, ??CrossCallReturnLabel_1
        CFI (cfiCond70) R6 load(1, XDATA, add(CFA_XSP16, literal(-16)))
        CFI (cfiCond70) VB load(1, XDATA, add(CFA_XSP16, literal(-15)))
        CFI (cfiCond70) V0 load(1, XDATA, add(CFA_XSP16, literal(-14)))
        CFI (cfiCond70) V1 load(1, XDATA, add(CFA_XSP16, literal(-13)))
        CFI (cfiCond70) V2 load(1, XDATA, add(CFA_XSP16, literal(-12)))
        CFI (cfiCond70) V3 load(1, XDATA, add(CFA_XSP16, literal(-11)))
        CFI (cfiCond70) V4 load(1, XDATA, add(CFA_XSP16, literal(-10)))
        CFI (cfiCond70) V5 load(1, XDATA, add(CFA_XSP16, literal(-9)))
        CFI (cfiCond70) V6 load(1, XDATA, add(CFA_XSP16, literal(-8)))
        CFI (cfiCond70) V7 load(1, XDATA, add(CFA_XSP16, literal(-7)))
        CFI (cfiCond70) R7 load(1, XDATA, add(CFA_XSP16, literal(-6)))
        CFI (cfiCond70) ?RET_LOW load(1, XDATA, add(CFA_XSP16, literal(-5)))
        CFI (cfiCond70) ?RET_HIGH load(1, XDATA, add(CFA_XSP16, literal(-4)))
        CFI (cfiCond70) ?BRET_EXT load(1, XDATA, add(CFA_XSP16, literal(-3)))
        CFI (cfiCond70) DPL0 load(1, XDATA, add(CFA_XSP16, literal(-2)))
        CFI (cfiCond70) DPH0 load(1, XDATA, add(CFA_XSP16, literal(-1)))
        CFI (cfiCond70) CFA_SP SP+0
        CFI (cfiCond70) CFA_XSP16 add(XSP16, 16)
        CFI Block cfiCond71 Using cfiCommon0
        CFI (cfiCond71) NoFunction
        CFI (cfiCond71) Conditional ??CrossCallReturnLabel_16, ??CrossCallReturnLabel_2
        CFI (cfiCond71) R6 load(1, XDATA, add(CFA_XSP16, literal(-16)))
        CFI (cfiCond71) VB load(1, XDATA, add(CFA_XSP16, literal(-15)))
        CFI (cfiCond71) V0 load(1, XDATA, add(CFA_XSP16, literal(-14)))
        CFI (cfiCond71) V1 load(1, XDATA, add(CFA_XSP16, literal(-13)))
        CFI (cfiCond71) V2 load(1, XDATA, add(CFA_XSP16, literal(-12)))
        CFI (cfiCond71) V3 load(1, XDATA, add(CFA_XSP16, literal(-11)))
        CFI (cfiCond71) V4 load(1, XDATA, add(CFA_XSP16, literal(-10)))
        CFI (cfiCond71) V5 load(1, XDATA, add(CFA_XSP16, literal(-9)))
        CFI (cfiCond71) V6 load(1, XDATA, add(CFA_XSP16, literal(-8)))
        CFI (cfiCond71) V7 load(1, XDATA, add(CFA_XSP16, literal(-7)))
        CFI (cfiCond71) R7 load(1, XDATA, add(CFA_XSP16, literal(-6)))
        CFI (cfiCond71) ?RET_LOW load(1, XDATA, add(CFA_XSP16, literal(-5)))
        CFI (cfiCond71) ?RET_HIGH load(1, XDATA, add(CFA_XSP16, literal(-4)))
        CFI (cfiCond71) ?BRET_EXT load(1, XDATA, add(CFA_XSP16, literal(-3)))
        CFI (cfiCond71) DPL0 load(1, XDATA, add(CFA_XSP16, literal(-2)))
        CFI (cfiCond71) DPH0 load(1, XDATA, add(CFA_XSP16, literal(-1)))
        CFI (cfiCond71) CFA_SP SP+0
        CFI (cfiCond71) CFA_XSP16 add(XSP16, 16)
        CFI Block cfiPicker72 Using cfiCommon1
        CFI (cfiPicker72) NoFunction
        CFI (cfiPicker72) Picker
        LCALL   ??BH1750_SendByte?relay
        MOV     C,0xd0.5
        RET
        CFI EndBlock cfiCond66
        CFI EndBlock cfiCond67
        CFI EndBlock cfiCond68
        CFI EndBlock cfiCond69
        CFI EndBlock cfiCond70
        CFI EndBlock cfiCond71
        CFI EndBlock cfiPicker72
//  270 

        RSEG BANKED_CODE:CODE:NOROOT(0)
//  271 void Single_Write_BH1750(uchar REG_Address)
Single_Write_BH1750:
        CFI Block cfiBlock73 Using cfiCommon0
        CFI Function Single_Write_BH1750
//  272 {
        FUNCALL Single_Write_BH1750, BH1750_Start
        LOCFRAME ISTACK, 0, STACK
        LOCFRAME PSTACK, 0, STACK
        LOCFRAME XSTACK, 9, STACK
        LOCFRAME IOVERLAY, 0, STATIC
        LOCFRAME DOVERLAY, 0, STATIC
        ARGFRAME ISTACK, 0, STACK
        ARGFRAME PSTACK, 0, STACK
        ARGFRAME XSTACK, 9, STACK
        ARGFRAME IOVERLAY, 0, STATIC
        ARGFRAME DOVERLAY, 0, STATIC
        FUNCALL Single_Write_BH1750, BH1750_SendByte
        LOCFRAME ISTACK, 0, STACK
        LOCFRAME PSTACK, 0, STACK
        LOCFRAME XSTACK, 9, STACK
        LOCFRAME IOVERLAY, 0, STATIC
        LOCFRAME DOVERLAY, 0, STATIC
        ARGFRAME ISTACK, 0, STACK
        ARGFRAME PSTACK, 0, STACK
        ARGFRAME XSTACK, 9, STACK
        ARGFRAME IOVERLAY, 0, STATIC
        ARGFRAME DOVERLAY, 0, STATIC
        FUNCALL Single_Write_BH1750, BH1750_SendByte
        LOCFRAME ISTACK, 0, STACK
        LOCFRAME PSTACK, 0, STACK
        LOCFRAME XSTACK, 9, STACK
        LOCFRAME IOVERLAY, 0, STATIC
        LOCFRAME DOVERLAY, 0, STATIC
        ARGFRAME ISTACK, 0, STACK
        ARGFRAME PSTACK, 0, STACK
        ARGFRAME XSTACK, 9, STACK
        ARGFRAME IOVERLAY, 0, STATIC
        ARGFRAME DOVERLAY, 0, STATIC
        FUNCALL Single_Write_BH1750, BH1750_Stop
        LOCFRAME ISTACK, 0, STACK
        LOCFRAME PSTACK, 0, STACK
        LOCFRAME XSTACK, 9, STACK
        LOCFRAME IOVERLAY, 0, STATIC
        LOCFRAME DOVERLAY, 0, STATIC
        ARGFRAME ISTACK, 0, STACK
        ARGFRAME PSTACK, 0, STACK
        ARGFRAME XSTACK, 9, STACK
        ARGFRAME IOVERLAY, 0, STATIC
        ARGFRAME DOVERLAY, 0, STATIC
        MOV     A,#-0x9
        LCALL   ?BANKED_ENTER_XDATA
        CFI DPH0 load(1, XDATA, add(CFA_XSP16, literal(-1)))
        CFI DPL0 load(1, XDATA, add(CFA_XSP16, literal(-2)))
        CFI ?BRET_EXT load(1, XDATA, add(CFA_XSP16, literal(-3)))
        CFI ?RET_HIGH load(1, XDATA, add(CFA_XSP16, literal(-4)))
        CFI ?RET_LOW load(1, XDATA, add(CFA_XSP16, literal(-5)))
        CFI R7 load(1, XDATA, add(CFA_XSP16, literal(-6)))
        CFI V0 load(1, XDATA, add(CFA_XSP16, literal(-7)))
        CFI VB load(1, XDATA, add(CFA_XSP16, literal(-8)))
        CFI R6 load(1, XDATA, add(CFA_XSP16, literal(-9)))
        CFI CFA_SP SP+0
        CFI CFA_XSP16 add(XSP16, 9)
        ; Saved register size: 9
        ; Auto size: 0
        MOV     A,R1
        MOV     R6,A
//  273     BH1750_Start();                  //起始信号
        ; Setup parameters for call to function BH1750_Start
        LCALL   ?Subroutine3 & 0xFFFF
//  274     BH1750_SendByte(SlaveAddress);   //发送设备地址+写信号
//  275     BH1750_SendByte(REG_Address);    //内部寄存器地址，
??CrossCallReturnLabel_6:
        ; Setup parameters for call to function BH1750_SendByte
        MOV     A,R6
        MOV     R1,A
        LCALL   ??BH1750_SendByte?relay
//  276     BH1750_Stop();                   //发送停止信号
        ; Setup parameters for call to function BH1750_Stop
        LCALL   ??BH1750_Stop?relay
//  277 }
        LJMP    ?Subroutine10 & 0xFFFF
        CFI EndBlock cfiBlock73

        RSEG BANKED_CODE:CODE:NOROOT(0)
?Subroutine3:
        CFI Block cfiCond74 Using cfiCommon0
        CFI NoFunction
        CFI Conditional ??CrossCallReturnLabel_3
        CFI R6 load(1, XDATA, add(CFA_XSP16, literal(-16)))
        CFI VB load(1, XDATA, add(CFA_XSP16, literal(-15)))
        CFI V0 load(1, XDATA, add(CFA_XSP16, literal(-14)))
        CFI V1 load(1, XDATA, add(CFA_XSP16, literal(-13)))
        CFI V2 load(1, XDATA, add(CFA_XSP16, literal(-12)))
        CFI V3 load(1, XDATA, add(CFA_XSP16, literal(-11)))
        CFI V4 load(1, XDATA, add(CFA_XSP16, literal(-10)))
        CFI V5 load(1, XDATA, add(CFA_XSP16, literal(-9)))
        CFI V6 load(1, XDATA, add(CFA_XSP16, literal(-8)))
        CFI V7 load(1, XDATA, add(CFA_XSP16, literal(-7)))
        CFI R7 load(1, XDATA, add(CFA_XSP16, literal(-6)))
        CFI ?RET_LOW load(1, XDATA, add(CFA_XSP16, literal(-5)))
        CFI ?RET_HIGH load(1, XDATA, add(CFA_XSP16, literal(-4)))
        CFI ?BRET_EXT load(1, XDATA, add(CFA_XSP16, literal(-3)))
        CFI DPL0 load(1, XDATA, add(CFA_XSP16, literal(-2)))
        CFI DPH0 load(1, XDATA, add(CFA_XSP16, literal(-1)))
        CFI CFA_SP SP+0
        CFI CFA_XSP16 add(XSP16, 16)
        CFI Block cfiCond75 Using cfiCommon0
        CFI (cfiCond75) NoFunction
        CFI (cfiCond75) Conditional ??CrossCallReturnLabel_4
        CFI (cfiCond75) R6 load(1, XDATA, add(CFA_XSP16, literal(-16)))
        CFI (cfiCond75) VB load(1, XDATA, add(CFA_XSP16, literal(-15)))
        CFI (cfiCond75) V0 load(1, XDATA, add(CFA_XSP16, literal(-14)))
        CFI (cfiCond75) V1 load(1, XDATA, add(CFA_XSP16, literal(-13)))
        CFI (cfiCond75) V2 load(1, XDATA, add(CFA_XSP16, literal(-12)))
        CFI (cfiCond75) V3 load(1, XDATA, add(CFA_XSP16, literal(-11)))
        CFI (cfiCond75) V4 load(1, XDATA, add(CFA_XSP16, literal(-10)))
        CFI (cfiCond75) V5 load(1, XDATA, add(CFA_XSP16, literal(-9)))
        CFI (cfiCond75) V6 load(1, XDATA, add(CFA_XSP16, literal(-8)))
        CFI (cfiCond75) V7 load(1, XDATA, add(CFA_XSP16, literal(-7)))
        CFI (cfiCond75) R7 load(1, XDATA, add(CFA_XSP16, literal(-6)))
        CFI (cfiCond75) ?RET_LOW load(1, XDATA, add(CFA_XSP16, literal(-5)))
        CFI (cfiCond75) ?RET_HIGH load(1, XDATA, add(CFA_XSP16, literal(-4)))
        CFI (cfiCond75) ?BRET_EXT load(1, XDATA, add(CFA_XSP16, literal(-3)))
        CFI (cfiCond75) DPL0 load(1, XDATA, add(CFA_XSP16, literal(-2)))
        CFI (cfiCond75) DPH0 load(1, XDATA, add(CFA_XSP16, literal(-1)))
        CFI (cfiCond75) CFA_SP SP+0
        CFI (cfiCond75) CFA_XSP16 add(XSP16, 16)
        CFI Block cfiCond76 Using cfiCommon0
        CFI (cfiCond76) NoFunction
        CFI (cfiCond76) Conditional ??CrossCallReturnLabel_5
        CFI (cfiCond76) R6 load(1, XDATA, add(CFA_XSP16, literal(-16)))
        CFI (cfiCond76) VB load(1, XDATA, add(CFA_XSP16, literal(-15)))
        CFI (cfiCond76) V0 load(1, XDATA, add(CFA_XSP16, literal(-14)))
        CFI (cfiCond76) V1 load(1, XDATA, add(CFA_XSP16, literal(-13)))
        CFI (cfiCond76) V2 load(1, XDATA, add(CFA_XSP16, literal(-12)))
        CFI (cfiCond76) V3 load(1, XDATA, add(CFA_XSP16, literal(-11)))
        CFI (cfiCond76) V4 load(1, XDATA, add(CFA_XSP16, literal(-10)))
        CFI (cfiCond76) V5 load(1, XDATA, add(CFA_XSP16, literal(-9)))
        CFI (cfiCond76) V6 load(1, XDATA, add(CFA_XSP16, literal(-8)))
        CFI (cfiCond76) V7 load(1, XDATA, add(CFA_XSP16, literal(-7)))
        CFI (cfiCond76) R7 load(1, XDATA, add(CFA_XSP16, literal(-6)))
        CFI (cfiCond76) ?RET_LOW load(1, XDATA, add(CFA_XSP16, literal(-5)))
        CFI (cfiCond76) ?RET_HIGH load(1, XDATA, add(CFA_XSP16, literal(-4)))
        CFI (cfiCond76) ?BRET_EXT load(1, XDATA, add(CFA_XSP16, literal(-3)))
        CFI (cfiCond76) DPL0 load(1, XDATA, add(CFA_XSP16, literal(-2)))
        CFI (cfiCond76) DPH0 load(1, XDATA, add(CFA_XSP16, literal(-1)))
        CFI (cfiCond76) CFA_SP SP+0
        CFI (cfiCond76) CFA_XSP16 add(XSP16, 16)
        CFI Block cfiCond77 Using cfiCommon0
        CFI (cfiCond77) NoFunction
        CFI (cfiCond77) Conditional ??CrossCallReturnLabel_6
        CFI (cfiCond77) R6 load(1, XDATA, add(CFA_XSP16, literal(-9)))
        CFI (cfiCond77) VB load(1, XDATA, add(CFA_XSP16, literal(-8)))
        CFI (cfiCond77) V0 load(1, XDATA, add(CFA_XSP16, literal(-7)))
        CFI (cfiCond77) R7 load(1, XDATA, add(CFA_XSP16, literal(-6)))
        CFI (cfiCond77) ?RET_LOW load(1, XDATA, add(CFA_XSP16, literal(-5)))
        CFI (cfiCond77) ?RET_HIGH load(1, XDATA, add(CFA_XSP16, literal(-4)))
        CFI (cfiCond77) ?BRET_EXT load(1, XDATA, add(CFA_XSP16, literal(-3)))
        CFI (cfiCond77) DPL0 load(1, XDATA, add(CFA_XSP16, literal(-2)))
        CFI (cfiCond77) DPH0 load(1, XDATA, add(CFA_XSP16, literal(-1)))
        CFI (cfiCond77) CFA_SP SP+0
        CFI (cfiCond77) CFA_XSP16 add(XSP16, 9)
        CFI Block cfiPicker78 Using cfiCommon1
        CFI (cfiPicker78) NoFunction
        CFI (cfiPicker78) Picker
        LCALL   ??BH1750_Start?relay
        ; Setup parameters for call to function BH1750_SendByte
        ; Setup parameters for call to function BH1750_SendByte
        ; Setup parameters for call to function BH1750_SendByte
        ; Setup parameters for call to function BH1750_SendByte
        MOV     R1,#0x46
        LCALL   ??BH1750_SendByte?relay
        RET
        CFI EndBlock cfiCond74
        CFI EndBlock cfiCond75
        CFI EndBlock cfiCond76
        CFI EndBlock cfiCond77
        CFI EndBlock cfiPicker78
//  278 

        RSEG BANKED_CODE:CODE:NOROOT(0)
//  279 void Init_BH1750()
Init_BH1750:
        CFI Block cfiBlock79 Using cfiCommon0
        CFI Function Init_BH1750
//  280 {
        FUNCALL Init_BH1750, BH1750_SendByte
        LOCFRAME ISTACK, 2, STACK
        LOCFRAME PSTACK, 0, STACK
        LOCFRAME XSTACK, 0, STACK
        LOCFRAME IOVERLAY, 0, STATIC
        LOCFRAME DOVERLAY, 0, STATIC
        ARGFRAME ISTACK, 2, STACK
        ARGFRAME PSTACK, 0, STACK
        ARGFRAME XSTACK, 0, STACK
        ARGFRAME IOVERLAY, 0, STATIC
        ARGFRAME DOVERLAY, 0, STATIC
        PUSH    DPL
        CFI DPL0 Frame(CFA_SP, 4)
        CFI CFA_SP SP+-4
        PUSH    DPH
        CFI DPH0 Frame(CFA_SP, 5)
        CFI CFA_SP SP+-5
        ; Saved register size: 2
        ; Auto size: 0
//  281     BH1750_SendByte(0x01);  
        ; Setup parameters for call to function BH1750_SendByte
        MOV     R1,#0x1
        LCALL   ??BH1750_SendByte?relay
//  282 }
        LJMP    ??Subroutine12_0 & 0xFFFF
        CFI EndBlock cfiBlock79
//  283 
//  284 /* 字符转换 */

        RSEG BANKED_CODE:CODE:NOROOT(0)
//  285 void conversion(uint temp_data)  //  数据转换出 个，十，百，千，万
conversion:
        CFI Block cfiBlock80 Using cfiCommon0
        CFI Function conversion
//  286 {  
        MOV     A,#-0xa
        LCALL   ?BANKED_ENTER_XDATA
        CFI DPH0 load(1, XDATA, add(CFA_XSP16, literal(-1)))
        CFI DPL0 load(1, XDATA, add(CFA_XSP16, literal(-2)))
        CFI ?BRET_EXT load(1, XDATA, add(CFA_XSP16, literal(-3)))
        CFI ?RET_HIGH load(1, XDATA, add(CFA_XSP16, literal(-4)))
        CFI ?RET_LOW load(1, XDATA, add(CFA_XSP16, literal(-5)))
        CFI R7 load(1, XDATA, add(CFA_XSP16, literal(-6)))
        CFI V1 load(1, XDATA, add(CFA_XSP16, literal(-7)))
        CFI V0 load(1, XDATA, add(CFA_XSP16, literal(-8)))
        CFI VB load(1, XDATA, add(CFA_XSP16, literal(-9)))
        CFI R6 load(1, XDATA, add(CFA_XSP16, literal(-10)))
        CFI CFA_SP SP+0
        CFI CFA_XSP16 add(XSP16, 10)
        ; Saved register size: 10
        ; Auto size: 0
        MOV     A,R2
        MOV     R4,A
        MOV     A,R3
        MOV     R5,A
//  287     wan=temp_data/10000+0x30 ;
        MOV     A,R4
        MOV     R0,A
        MOV     A,R5
        MOV     R1,A
        MOV     R2,#0x10
        MOV     R3,#0x27
        LCALL   ?US_DIV_MOD
        MOV     A,R0
        ADD     A,#0x30
        MOV     DPTR,#wan
        LCALL   ?Subroutine5 & 0xFFFF
//  288     temp_data=temp_data%10000;   //取余运算
??CrossCallReturnLabel_9:
        MOV     R2,#0x10
        MOV     R3,#0x27
        LCALL   ?US_DIV_MOD
        MOV     ?V0 + 0,R2
        MOV     ?V0 + 1,R3
        MOV     R4,?V0 + 0
        MOV     R5,?V0 + 1
//  289     qian=temp_data/1000+0x30 ;
        MOV     A,R4
        MOV     R0,A
        MOV     A,R5
        MOV     R1,A
        MOV     R2,#-0x18
        MOV     R3,#0x3
        LCALL   ?US_DIV_MOD
        MOV     A,R0
        ADD     A,#0x30
        MOV     DPTR,#qian
        LCALL   ?Subroutine5 & 0xFFFF
//  290     temp_data=temp_data%1000;    //取余运算
??CrossCallReturnLabel_10:
        MOV     R2,#-0x18
        MOV     R3,#0x3
        LCALL   ?US_DIV_MOD
        MOV     ?V0 + 0,R2
        MOV     ?V0 + 1,R3
        MOV     R4,?V0 + 0
        MOV     R5,?V0 + 1
//  291     bai=temp_data/100+0x30   ;
        MOV     A,R4
        MOV     R0,A
        MOV     A,R5
        MOV     R1,A
        MOV     R2,#0x64
        MOV     R3,#0x0
        LCALL   ?US_DIV_MOD
        MOV     A,R0
        ADD     A,#0x30
        MOV     DPTR,#bai
        LCALL   ?Subroutine5 & 0xFFFF
//  292     temp_data=temp_data%100;     //取余运算
??CrossCallReturnLabel_11:
        MOV     R2,#0x64
        MOV     R3,#0x0
        LCALL   ?US_DIV_MOD
        MOV     ?V0 + 0,R2
        MOV     ?V0 + 1,R3
        MOV     R4,?V0 + 0
        MOV     R5,?V0 + 1
//  293     shi=temp_data/10+0x30    ;
        MOV     A,R4
        MOV     R0,A
        MOV     A,R5
        MOV     R1,A
        MOV     R2,#0xa
        MOV     R3,#0x0
        LCALL   ?US_DIV_MOD
        MOV     A,R0
        ADD     A,#0x30
        MOV     DPTR,#shi
        LCALL   ?Subroutine5 & 0xFFFF
//  294     temp_data=temp_data%10;      //取余运算
//  295     ge=temp_data+0x30;        
??CrossCallReturnLabel_12:
        MOV     R2,#0xa
        MOV     R3,#0x0
        LCALL   ?US_DIV_MOD
        MOV     A,R2
        ADD     A,#0x30
        MOV     DPTR,#`ge`
        MOVX    @DPTR,A
//  296     Light[0]=(unsigned char)wan;
        MOV     DPTR,#wan
        MOVX    A,@DPTR
        MOV     DPTR,#Light
        MOVX    @DPTR,A
//  297     Light[1]=(unsigned char)qian;
        MOV     DPTR,#qian
        MOVX    A,@DPTR
        MOV     DPTR,#(Light + 1)
        MOVX    @DPTR,A
//  298     Light[2]=(unsigned char)bai;
        MOV     DPTR,#bai
        MOVX    A,@DPTR
        MOV     DPTR,#(Light + 2)
        MOVX    @DPTR,A
//  299     Light[3]=(unsigned char)shi;
        MOV     DPTR,#shi
        MOVX    A,@DPTR
        MOV     DPTR,#(Light + 3)
        MOVX    @DPTR,A
//  300     Light[4]=(unsigned char)ge;
        MOV     DPTR,#`ge`
        MOVX    A,@DPTR
        MOV     DPTR,#(Light + 4)
        MOVX    @DPTR,A
//  301 }
        LJMP    ?Subroutine8 & 0xFFFF
        CFI EndBlock cfiBlock80

        RSEG BANKED_CODE:CODE:NOROOT(0)
?Subroutine5:
        CFI Block cfiCond81 Using cfiCommon0
        CFI NoFunction
        CFI Conditional ??CrossCallReturnLabel_9
        CFI R6 load(1, XDATA, add(CFA_XSP16, literal(-10)))
        CFI VB load(1, XDATA, add(CFA_XSP16, literal(-9)))
        CFI V0 load(1, XDATA, add(CFA_XSP16, literal(-8)))
        CFI V1 load(1, XDATA, add(CFA_XSP16, literal(-7)))
        CFI R7 load(1, XDATA, add(CFA_XSP16, literal(-6)))
        CFI ?RET_LOW load(1, XDATA, add(CFA_XSP16, literal(-5)))
        CFI ?RET_HIGH load(1, XDATA, add(CFA_XSP16, literal(-4)))
        CFI ?BRET_EXT load(1, XDATA, add(CFA_XSP16, literal(-3)))
        CFI DPL0 load(1, XDATA, add(CFA_XSP16, literal(-2)))
        CFI DPH0 load(1, XDATA, add(CFA_XSP16, literal(-1)))
        CFI CFA_SP SP+0
        CFI CFA_XSP16 add(XSP16, 10)
        CFI Block cfiCond82 Using cfiCommon0
        CFI (cfiCond82) NoFunction
        CFI (cfiCond82) Conditional ??CrossCallReturnLabel_10
        CFI (cfiCond82) R6 load(1, XDATA, add(CFA_XSP16, literal(-10)))
        CFI (cfiCond82) VB load(1, XDATA, add(CFA_XSP16, literal(-9)))
        CFI (cfiCond82) V0 load(1, XDATA, add(CFA_XSP16, literal(-8)))
        CFI (cfiCond82) V1 load(1, XDATA, add(CFA_XSP16, literal(-7)))
        CFI (cfiCond82) R7 load(1, XDATA, add(CFA_XSP16, literal(-6)))
        CFI (cfiCond82) ?RET_LOW load(1, XDATA, add(CFA_XSP16, literal(-5)))
        CFI (cfiCond82) ?RET_HIGH load(1, XDATA, add(CFA_XSP16, literal(-4)))
        CFI (cfiCond82) ?BRET_EXT load(1, XDATA, add(CFA_XSP16, literal(-3)))
        CFI (cfiCond82) DPL0 load(1, XDATA, add(CFA_XSP16, literal(-2)))
        CFI (cfiCond82) DPH0 load(1, XDATA, add(CFA_XSP16, literal(-1)))
        CFI (cfiCond82) CFA_SP SP+0
        CFI (cfiCond82) CFA_XSP16 add(XSP16, 10)
        CFI Block cfiCond83 Using cfiCommon0
        CFI (cfiCond83) NoFunction
        CFI (cfiCond83) Conditional ??CrossCallReturnLabel_11
        CFI (cfiCond83) R6 load(1, XDATA, add(CFA_XSP16, literal(-10)))
        CFI (cfiCond83) VB load(1, XDATA, add(CFA_XSP16, literal(-9)))
        CFI (cfiCond83) V0 load(1, XDATA, add(CFA_XSP16, literal(-8)))
        CFI (cfiCond83) V1 load(1, XDATA, add(CFA_XSP16, literal(-7)))
        CFI (cfiCond83) R7 load(1, XDATA, add(CFA_XSP16, literal(-6)))
        CFI (cfiCond83) ?RET_LOW load(1, XDATA, add(CFA_XSP16, literal(-5)))
        CFI (cfiCond83) ?RET_HIGH load(1, XDATA, add(CFA_XSP16, literal(-4)))
        CFI (cfiCond83) ?BRET_EXT load(1, XDATA, add(CFA_XSP16, literal(-3)))
        CFI (cfiCond83) DPL0 load(1, XDATA, add(CFA_XSP16, literal(-2)))
        CFI (cfiCond83) DPH0 load(1, XDATA, add(CFA_XSP16, literal(-1)))
        CFI (cfiCond83) CFA_SP SP+0
        CFI (cfiCond83) CFA_XSP16 add(XSP16, 10)
        CFI Block cfiCond84 Using cfiCommon0
        CFI (cfiCond84) NoFunction
        CFI (cfiCond84) Conditional ??CrossCallReturnLabel_12
        CFI (cfiCond84) R6 load(1, XDATA, add(CFA_XSP16, literal(-10)))
        CFI (cfiCond84) VB load(1, XDATA, add(CFA_XSP16, literal(-9)))
        CFI (cfiCond84) V0 load(1, XDATA, add(CFA_XSP16, literal(-8)))
        CFI (cfiCond84) V1 load(1, XDATA, add(CFA_XSP16, literal(-7)))
        CFI (cfiCond84) R7 load(1, XDATA, add(CFA_XSP16, literal(-6)))
        CFI (cfiCond84) ?RET_LOW load(1, XDATA, add(CFA_XSP16, literal(-5)))
        CFI (cfiCond84) ?RET_HIGH load(1, XDATA, add(CFA_XSP16, literal(-4)))
        CFI (cfiCond84) ?BRET_EXT load(1, XDATA, add(CFA_XSP16, literal(-3)))
        CFI (cfiCond84) DPL0 load(1, XDATA, add(CFA_XSP16, literal(-2)))
        CFI (cfiCond84) DPH0 load(1, XDATA, add(CFA_XSP16, literal(-1)))
        CFI (cfiCond84) CFA_SP SP+0
        CFI (cfiCond84) CFA_XSP16 add(XSP16, 10)
        CFI Block cfiPicker85 Using cfiCommon1
        CFI (cfiPicker85) NoFunction
        CFI (cfiPicker85) Picker
        MOVX    @DPTR,A
        MOV     A,R4
        MOV     R0,A
        MOV     A,R5
        MOV     R1,A
        RET
        CFI EndBlock cfiCond81
        CFI EndBlock cfiCond82
        CFI EndBlock cfiCond83
        CFI EndBlock cfiCond84
        CFI EndBlock cfiPicker85
//  302 
//  303 /* 光度数据采集 */

        RSEG BANKED_CODE:CODE:NOROOT(0)
//  304 void LIGHT()
LIGHT:
        CFI Block cfiBlock86 Using cfiCommon0
        CFI Function LIGHT
//  305 {
        FUNCALL LIGHT, Delay_1ms
        LOCFRAME ISTACK, 0, STACK
        LOCFRAME PSTACK, 0, STACK
        LOCFRAME XSTACK, 12, STACK
        LOCFRAME IOVERLAY, 0, STATIC
        LOCFRAME DOVERLAY, 0, STATIC
        ARGFRAME ISTACK, 0, STACK
        ARGFRAME PSTACK, 0, STACK
        ARGFRAME XSTACK, 12, STACK
        ARGFRAME IOVERLAY, 0, STATIC
        ARGFRAME DOVERLAY, 0, STATIC
        FUNCALL LIGHT, BH1750_SendByte
        LOCFRAME ISTACK, 0, STACK
        LOCFRAME PSTACK, 0, STACK
        LOCFRAME XSTACK, 12, STACK
        LOCFRAME IOVERLAY, 0, STATIC
        LOCFRAME DOVERLAY, 0, STATIC
        ARGFRAME ISTACK, 0, STACK
        ARGFRAME PSTACK, 0, STACK
        ARGFRAME XSTACK, 12, STACK
        ARGFRAME IOVERLAY, 0, STATIC
        ARGFRAME DOVERLAY, 0, STATIC
        FUNCALL LIGHT, Read_BH1750
        LOCFRAME ISTACK, 0, STACK
        LOCFRAME PSTACK, 0, STACK
        LOCFRAME XSTACK, 12, STACK
        LOCFRAME IOVERLAY, 0, STATIC
        LOCFRAME DOVERLAY, 0, STATIC
        ARGFRAME ISTACK, 0, STACK
        ARGFRAME PSTACK, 0, STACK
        ARGFRAME XSTACK, 12, STACK
        ARGFRAME IOVERLAY, 0, STATIC
        ARGFRAME DOVERLAY, 0, STATIC
        FUNCALL LIGHT, conversion
        LOCFRAME ISTACK, 0, STACK
        LOCFRAME PSTACK, 0, STACK
        LOCFRAME XSTACK, 12, STACK
        LOCFRAME IOVERLAY, 0, STATIC
        LOCFRAME DOVERLAY, 0, STATIC
        ARGFRAME ISTACK, 0, STACK
        ARGFRAME PSTACK, 0, STACK
        ARGFRAME XSTACK, 12, STACK
        ARGFRAME IOVERLAY, 0, STATIC
        ARGFRAME DOVERLAY, 0, STATIC
        FUNCALL LIGHT, Delay_1ms
        LOCFRAME ISTACK, 0, STACK
        LOCFRAME PSTACK, 0, STACK
        LOCFRAME XSTACK, 12, STACK
        LOCFRAME IOVERLAY, 0, STATIC
        LOCFRAME DOVERLAY, 0, STATIC
        ARGFRAME ISTACK, 0, STACK
        ARGFRAME PSTACK, 0, STACK
        ARGFRAME XSTACK, 12, STACK
        ARGFRAME IOVERLAY, 0, STATIC
        ARGFRAME DOVERLAY, 0, STATIC
        MOV     A,#-0xc
        LCALL   ?BANKED_ENTER_XDATA
        CFI DPH0 load(1, XDATA, add(CFA_XSP16, literal(-1)))
        CFI DPL0 load(1, XDATA, add(CFA_XSP16, literal(-2)))
        CFI ?BRET_EXT load(1, XDATA, add(CFA_XSP16, literal(-3)))
        CFI ?RET_HIGH load(1, XDATA, add(CFA_XSP16, literal(-4)))
        CFI ?RET_LOW load(1, XDATA, add(CFA_XSP16, literal(-5)))
        CFI R7 load(1, XDATA, add(CFA_XSP16, literal(-6)))
        CFI V3 load(1, XDATA, add(CFA_XSP16, literal(-7)))
        CFI V2 load(1, XDATA, add(CFA_XSP16, literal(-8)))
        CFI V1 load(1, XDATA, add(CFA_XSP16, literal(-9)))
        CFI V0 load(1, XDATA, add(CFA_XSP16, literal(-10)))
        CFI VB load(1, XDATA, add(CFA_XSP16, literal(-11)))
        CFI R6 load(1, XDATA, add(CFA_XSP16, literal(-12)))
        CFI CFA_SP SP+0
        CFI CFA_XSP16 add(XSP16, 12)
        ; Saved register size: 12
        ; Auto size: 0
//  306     Delay_1ms(100);
        ; Setup parameters for call to function Delay_1ms
        MOV     R2,#0x64
        MOV     R3,#0x0
        LCALL   ??Delay_1ms?relay
//  307 
//  308     Init_BH1750();
        ; Setup parameters for call to function BH1750_SendByte
        MOV     R1,#0x1
        LCALL   ??BH1750_SendByte?relay
//  309     float lx;
//  310   
//  311     lx = Read_BH1750();
        ; Setup parameters for call to function Read_BH1750
        LCALL   ??Read_BH1750?relay
        MOV     A,R1
        MOV     ?V0 + 0,A
        MOV     ?V0 + 1,#0x0
        MOV     ?V0 + 2,#0x0
        MOV     ?V0 + 3,#0x0
        MOV     R0,#?V0 + 0
        LCALL   ?UL_TO_FLT
//  312     conversion(lx);    
        ; Setup parameters for call to function conversion
        MOV     R0,#?V0 + 0
        LCALL   ?FLT_TO_L
        MOV     R2,?V0 + 0
        MOV     R3,?V0 + 1
        LCALL   ??conversion?relay
//  313     Delay_1ms(1000);
        ; Setup parameters for call to function Delay_1ms
        MOV     R2,#-0x18
        MOV     R3,#0x3
        LCALL   ??Delay_1ms?relay
//  314 }
        MOV     R7,#0x4
        LJMP    ?BANKED_LEAVE_XDATA
        CFI EndBlock cfiBlock86

        RSEG XDATA_ROM_C:CONST:REORDER:NOROOT(0)
        DATA
__Constant_3f99999a:
        DD 3F99999AH

        RSEG BANK_RELAYS:CODE:REORDER:NOROOT(0)
??Delay_1u?relay:
        LCALL   ?BDISPATCH
        DATA
        DC24    Delay_1u

        RSEG BANK_RELAYS:CODE:REORDER:NOROOT(0)
??Delay_1ms?relay:
        LCALL   ?BDISPATCH
        DATA
        DC24    Delay_1ms

        RSEG BANK_RELAYS:CODE:REORDER:NOROOT(0)
??WriteSDA1?relay:
        LCALL   ?BDISPATCH
        DATA
        DC24    WriteSDA1

        RSEG BANK_RELAYS:CODE:REORDER:NOROOT(0)
??WriteSDA0?relay:
        LCALL   ?BDISPATCH
        DATA
        DC24    WriteSDA0

        RSEG BANK_RELAYS:CODE:REORDER:NOROOT(0)
??WriteSCL1?relay:
        LCALL   ?BDISPATCH
        DATA
        DC24    WriteSCL1

        RSEG BANK_RELAYS:CODE:REORDER:NOROOT(0)
??WriteSCL0?relay:
        LCALL   ?BDISPATCH
        DATA
        DC24    WriteSCL0

        RSEG BANK_RELAYS:CODE:REORDER:NOROOT(0)
??ReadSDA?relay:
        LCALL   ?BDISPATCH
        DATA
        DC24    ReadSDA

        RSEG BANK_RELAYS:CODE:REORDER:NOROOT(0)
??BH1750_Start?relay:
        LCALL   ?BDISPATCH
        DATA
        DC24    BH1750_Start

        RSEG BANK_RELAYS:CODE:REORDER:NOROOT(0)
??BH1750_Stop?relay:
        LCALL   ?BDISPATCH
        DATA
        DC24    BH1750_Stop

        RSEG BANK_RELAYS:CODE:REORDER:NOROOT(0)
??BH1750_SendACK?relay:
        LCALL   ?BDISPATCH
        DATA
        DC24    BH1750_SendACK

        RSEG BANK_RELAYS:CODE:REORDER:NOROOT(0)
??BH1750_RecvACK?relay:
        LCALL   ?BDISPATCH
        DATA
        DC24    BH1750_RecvACK

        RSEG BANK_RELAYS:CODE:REORDER:NOROOT(0)
??SEND_0_1?relay:
        LCALL   ?BDISPATCH
        DATA
        DC24    SEND_0_1

        RSEG BANK_RELAYS:CODE:REORDER:NOROOT(0)
??SEND_1_1?relay:
        LCALL   ?BDISPATCH
        DATA
        DC24    SEND_1_1

        RSEG BANK_RELAYS:CODE:REORDER:NOROOT(0)
??BH1750_SendByte?relay:
        LCALL   ?BDISPATCH
        DATA
        DC24    BH1750_SendByte

        RSEG BANK_RELAYS:CODE:REORDER:NOROOT(0)
??BH1750_RecvByte?relay:
        LCALL   ?BDISPATCH
        DATA
        DC24    BH1750_RecvByte

        RSEG BANK_RELAYS:CODE:REORDER:NOROOT(0)
??Read_BH1750?relay:
        LCALL   ?BDISPATCH
        DATA
        DC24    Read_BH1750

        RSEG BANK_RELAYS:CODE:REORDER:NOROOT(0)
??Single_Write_BH1750?relay:
        LCALL   ?BDISPATCH
        DATA
        DC24    Single_Write_BH1750

        RSEG BANK_RELAYS:CODE:REORDER:NOROOT(0)
??Init_BH1750?relay:
        LCALL   ?BDISPATCH
        DATA
        DC24    Init_BH1750

        RSEG BANK_RELAYS:CODE:REORDER:NOROOT(0)
??conversion?relay:
        LCALL   ?BDISPATCH
        DATA
        DC24    conversion

        RSEG BANK_RELAYS:CODE:REORDER:NOROOT(0)
??LIGHT?relay:
        LCALL   ?BDISPATCH
        DATA
        DC24    LIGHT

        END
// 
// 889 bytes in segment BANKED_CODE
// 120 bytes in segment BANK_RELAYS
//   3 bytes in segment SFR_AN
//   4 bytes in segment XDATA_ROM_C
//  10 bytes in segment XDATA_Z
// 
// 1 009 bytes of CODE  memory
//     0 bytes of CONST memory (+ 4 bytes shared)
//     0 bytes of DATA  memory (+ 3 bytes shared)
//    10 bytes of XDATA memory
//
//Errors: none
//Warnings: 2
