###############################################################################
#                                                                             #
# IAR C/C++ Compiler V7.51A/W32 for 8051                07/May/2015  10:56:04 #
# Copyright 2004-2009 IAR Systems AB.                                         #
#                                                                             #
#    Core               =  plain                                              #
#    Code model         =  banked                                             #
#    Data model         =  large                                              #
#    Calling convention =  xdata reentrant                                    #
#    Constant location  =  data_rom                                           #
#    Dptr setup         =  1,16                                               #
#    Source file        =  C:\Texas Instruments\ZStack-CC2530-2.3.0-1.4.0\Pro #
#                          jects\zstack\Samples\ParkingS\Source\LightControl. #
#                          c                                                  #
#    Command line       =  -f "C:\Texas Instruments\ZStack-CC2530-2.3.0-1.4.0 #
#                          \Projects\zstack\Samples\ParkingS\CC2530DB\..\..\. #
#                          .\Tools\CC2530DB\f8wEndev.cfg" (-DCPU32MHZ         #
#                          -DROOT=__near_func -DBLINK_LEDS) -f "C:\Texas      #
#                          Instruments\ZStack-CC2530-2.3.0-1.4.0\Projects\zst #
#                          ack\Samples\ParkingS\CC2530DB\..\..\..\Tools\CC253 #
#                          0DB\f8wConfig.cfg" (-DSECURE=0                     #
#                          -DZG_SECURE_DYNAMIC=0 -DREFLECTOR                  #
#                          -DDEFAULT_CHANLIST=0x00000800                      #
#                          -DZDAPP_CONFIG_PAN_ID=0xFFFF                       #
#                          -DNWK_START_DELAY=100 -DEXTENDED_JOINING_RANDOM_MA #
#                          SK=0x007F -DBEACON_REQUEST_DELAY=100               #
#                          -DBEACON_REQ_DELAY_MASK=0x00FF                     #
#                          -DROUTE_EXPIRY_TIME=30 -DAPSC_ACK_WAIT_DURATION_PO #
#                          LLED=3000 -DNWK_INDIRECT_MSG_TIMEOUT=7             #
#                          -DMAX_RREQ_ENTRIES=8 -DAPSC_MAX_FRAME_RETRIES=3    #
#                          -DNWK_MAX_DATA_RETRIES=2                           #
#                          -DMAX_POLL_FAILURE_RETRIES=2 -DMAX_BCAST=9         #
#                          -DAPS_MAX_GROUPS=16 -DMAX_RTG_ENTRIES=40           #
#                          -DNWK_MAX_BINDING_ENTRIES=4                        #
#                          -DMAX_BINDING_CLUSTER_IDS=4 "-DDEFAULT_KEY={0x01,  #
#                          0x03, 0x05, 0x07, 0x09, 0x0B, 0x0D, 0x0F, 0x00,    #
#                          0x02, 0x04, 0x06, 0x08, 0x0A, 0x0C, 0x0D}"         #
#                          -DMAC_MAX_FRAME_SIZE=116 "-DCONST=const __code"    #
#                          -DGENERIC=__generic -DRFD_RCVC_ALWAYS_ON=FALSE     #
#                          -DPOLL_RATE=1000 -DQUEUED_POLL_RATE=100            #
#                          -DRESPONSE_POLL_RATE=100) -DREJOIN_POLL_RATE=440   #
#                          "C:\Texas Instruments\ZStack-CC2530-2.3.0-1.4.0\Pr #
#                          ojects\zstack\Samples\ParkingS\Source\LightControl #
#                          .c" -D ZIGBEEPRO -D NWK_AUTO_POLL -D ZTOOL_P1 -D   #
#                          MT_TASK -D MT_SYS_FUNC -D MT_ZDO_FUNC -D           #
#                          LCD_SUPPORTED=DEBUG -lC "C:\Texas                  #
#                          Instruments\ZStack-CC2530-2.3.0-1.4.0\Projects\zst #
#                          ack\Samples\ParkingS\CC2530DB\EndDeviceEB-Pro\List #
#                          \" -lA "C:\Texas Instruments\ZStack-CC2530-2.3.0-1 #
#                          .4.0\Projects\zstack\Samples\ParkingS\CC2530DB\End #
#                          DeviceEB-Pro\List\" --diag_suppress Pe001,Pa010    #
#                          -o "C:\Texas Instruments\ZStack-CC2530-2.3.0-1.4.0 #
#                          \Projects\zstack\Samples\ParkingS\CC2530DB\EndDevi #
#                          ceEB-Pro\Obj\" -e --require_prototypes --debug     #
#                          --core=plain --dptr=16,1 --data_model=large        #
#                          --code_model=banked --calling_convention=xdata_ree #
#                          ntrant --place_constants=data_rom                  #
#                          --nr_virtual_regs 16 -I "C:\Texas                  #
#                          Instruments\ZStack-CC2530-2.3.0-1.4.0\Projects\zst #
#                          ack\Samples\ParkingS\CC2530DB\" -I "C:\Texas       #
#                          Instruments\ZStack-CC2530-2.3.0-1.4.0\Projects\zst #
#                          ack\Samples\ParkingS\CC2530DB\..\SOURCE\" -I       #
#                          "C:\Texas Instruments\ZStack-CC2530-2.3.0-1.4.0\Pr #
#                          ojects\zstack\Samples\ParkingS\CC2530DB\..\..\..\Z #
#                          MAIN\TI2530DB\" -I "C:\Texas                       #
#                          Instruments\ZStack-CC2530-2.3.0-1.4.0\Projects\zst #
#                          ack\Samples\ParkingS\CC2530DB\..\..\..\..\..\COMPO #
#                          NENTS\MT\" -I "C:\Texas Instruments\ZStack-CC2530- #
#                          2.3.0-1.4.0\Projects\zstack\Samples\ParkingS\CC253 #
#                          0DB\..\..\..\..\..\COMPONENTS\HAL\INCLUDE\" -I     #
#                          "C:\Texas Instruments\ZStack-CC2530-2.3.0-1.4.0\Pr #
#                          ojects\zstack\Samples\ParkingS\CC2530DB\..\..\..\. #
#                          .\..\COMPONENTS\HAL\TARGET\CC2530EB\" -I           #
#                          "C:\Texas Instruments\ZStack-CC2530-2.3.0-1.4.0\Pr #
#                          ojects\zstack\Samples\ParkingS\CC2530DB\..\..\..\. #
#                          .\..\COMPONENTS\OSAL\MCU\CCSOC\" -I "C:\Texas      #
#                          Instruments\ZStack-CC2530-2.3.0-1.4.0\Projects\zst #
#                          ack\Samples\ParkingS\CC2530DB\..\..\..\..\..\COMPO #
#                          NENTS\OSAL\INCLUDE\" -I "C:\Texas                  #
#                          Instruments\ZStack-CC2530-2.3.0-1.4.0\Projects\zst #
#                          ack\Samples\ParkingS\CC2530DB\..\..\..\..\..\COMPO #
#                          NENTS\STACK\AF\" -I "C:\Texas                      #
#                          Instruments\ZStack-CC2530-2.3.0-1.4.0\Projects\zst #
#                          ack\Samples\ParkingS\CC2530DB\..\..\..\..\..\COMPO #
#                          NENTS\STACK\NWK\" -I "C:\Texas                     #
#                          Instruments\ZStack-CC2530-2.3.0-1.4.0\Projects\zst #
#                          ack\Samples\ParkingS\CC2530DB\..\..\..\..\..\COMPO #
#                          NENTS\STACK\SEC\" -I "C:\Texas                     #
#                          Instruments\ZStack-CC2530-2.3.0-1.4.0\Projects\zst #
#                          ack\Samples\ParkingS\CC2530DB\..\..\..\..\..\COMPO #
#                          NENTS\STACK\SAPI\" -I "C:\Texas                    #
#                          Instruments\ZStack-CC2530-2.3.0-1.4.0\Projects\zst #
#                          ack\Samples\ParkingS\CC2530DB\..\..\..\..\..\COMPO #
#                          NENTS\STACK\SYS\" -I "C:\Texas                     #
#                          Instruments\ZStack-CC2530-2.3.0-1.4.0\Projects\zst #
#                          ack\Samples\ParkingS\CC2530DB\..\..\..\..\..\COMPO #
#                          NENTS\STACK\ZDO\" -I "C:\Texas                     #
#                          Instruments\ZStack-CC2530-2.3.0-1.4.0\Projects\zst #
#                          ack\Samples\ParkingS\CC2530DB\..\..\..\..\..\COMPO #
#                          NENTS\ZMAC\F8W\" -I "C:\Texas                      #
#                          Instruments\ZStack-CC2530-2.3.0-1.4.0\Projects\zst #
#                          ack\Samples\ParkingS\CC2530DB\..\..\..\..\..\COMPO #
#                          NENTS\ZMAC\" -I "C:\Texas                          #
#                          Instruments\ZStack-CC2530-2.3.0-1.4.0\Projects\zst #
#                          ack\Samples\ParkingS\CC2530DB\..\..\..\..\..\COMPO #
#                          NENTS\SERVICES\SADDR\" -I "C:\Texas                #
#                          Instruments\ZStack-CC2530-2.3.0-1.4.0\Projects\zst #
#                          ack\Samples\ParkingS\CC2530DB\..\..\..\..\..\COMPO #
#                          NENTS\SERVICES\SDATA\" -I "C:\Texas                #
#                          Instruments\ZStack-CC2530-2.3.0-1.4.0\Projects\zst #
#                          ack\Samples\ParkingS\CC2530DB\..\..\..\..\..\COMPO #
#                          NENTS\MAC\INCLUDE\" -I "C:\Texas                   #
#                          Instruments\ZStack-CC2530-2.3.0-1.4.0\Projects\zst #
#                          ack\Samples\ParkingS\CC2530DB\..\..\..\..\..\COMPO #
#                          NENTS\MAC\HIGH_LEVEL\" -I "C:\Texas                #
#                          Instruments\ZStack-CC2530-2.3.0-1.4.0\Projects\zst #
#                          ack\Samples\ParkingS\CC2530DB\..\..\..\..\..\COMPO #
#                          NENTS\MAC\LOW_LEVEL\srf04\" -I "C:\Texas           #
#                          Instruments\ZStack-CC2530-2.3.0-1.4.0\Projects\zst #
#                          ack\Samples\ParkingS\CC2530DB\..\..\..\..\..\COMPO #
#                          NENTS\MAC\LOW_LEVEL\srf04\SINGLE_CHIP\" -I         #
#                          "C:\Program Files\IAR Systems\Embedded Workbench   #
#                          5.3\8051\INC\" -I "C:\Program Files\IAR            #
#                          Systems\Embedded Workbench 5.3\8051\INC\CLIB\"     #
#                          -Ohz                                               #
#    List file          =  C:\Texas Instruments\ZStack-CC2530-2.3.0-1.4.0\Pro #
#                          jects\zstack\Samples\ParkingS\CC2530DB\EndDeviceEB #
#                          -Pro\List\LightControl.lst                         #
#    Object file        =  C:\Texas Instruments\ZStack-CC2530-2.3.0-1.4.0\Pro #
#                          jects\zstack\Samples\ParkingS\CC2530DB\EndDeviceEB #
#                          -Pro\Obj\LightControl.r51                          #
#                                                                             #
#                                                                             #
###############################################################################

C:\Texas Instruments\ZStack-CC2530-2.3.0-1.4.0\Projects\zstack\Samples\ParkingS\Source\LightControl.c
      1          /**************************************************
      2          ** 功能：停车场内亮度信息采集
      3          ** 结果：亮度数据保存于数组Light[5]
      4          ** 硬件：采用光照传感器BH1750（GY-30）
      5          ** 日期：2015-4-5
      6          **************************************************/
      7          
      8          #include <ioCC2530.h>

   \                                 In  segment SFR_AN, at 0x90
   \   union <unnamed> volatile __sfr _A_P1
   \                     _A_P1:
   \   000000                DS 1

   \                                 In  segment SFR_AN, at 0xd0
   \   union <unnamed> volatile __sfr _A_PSW
   \                     _A_PSW:
   \   000000                DS 1

   \                                 In  segment SFR_AN, at 0xfe
   \   unsigned char volatile __sfr P1DIR
   \                     P1DIR:
   \   000000                DS 1
      9          
     10          #include "LightControl.h"
     11          
     12          #define uint unsigned int
     13          #define uchar unsigned char
     14          
     15          #define SlaveAddress 0x46
     16          
     17          #define IIC_WRITE 0
     18          #define IIC_READ  1
     19          #define TRUE  1
     20          #define FALSE 0
     21          
     22          #define SCL P1_2
     23          #define SDA P1_3
     24          

   \                                 In  segment XDATA_Z, align 1, keep-with-next
     25          uchar  ge,shi,bai,qian,wan;        //显示变量
   \                     `ge`:
   \   000000                DS 1
   \   000001                REQUIRE __INIT_XDATA_Z

   \                                 In  segment XDATA_Z, align 1, keep-with-next
   \                     shi:
   \   000000                DS 1
   \   000001                REQUIRE __INIT_XDATA_Z

   \                                 In  segment XDATA_Z, align 1, keep-with-next
   \                     bai:
   \   000000                DS 1
   \   000001                REQUIRE __INIT_XDATA_Z

   \                                 In  segment XDATA_Z, align 1, keep-with-next
   \                     qian:
   \   000000                DS 1
   \   000001                REQUIRE __INIT_XDATA_Z

   \                                 In  segment XDATA_Z, align 1, keep-with-next
   \                     wan:
   \   000000                DS 1
   \   000001                REQUIRE __INIT_XDATA_Z

   \                                 In  segment XDATA_Z, align 1, keep-with-next
     26          uchar Light[5];
   \                     Light:
   \   000000                DS 5
   \   000005                REQUIRE __INIT_XDATA_Z
     27          
     28          /********************************************************************
     29          ** 函数定义
     30          */
     31          /* 延时1us */

   \                                 In  segment BANKED_CODE, align 1, keep-with-next
     32          void Delay_1u(unsigned int times)
   \                     Delay_1u:
     33          {
   \   000000                ; Saved register size: 0
   \   000000                ; Auto size: 0
   \   000000   8020         SJMP    ??Delay_1u_0
     34              while(times--)
     35              {
     36                  asm("nop"); asm("nop"); asm("nop"); asm("nop"); asm("nop");
   \                     ??Delay_1u_1:
   \   000002   00           nop
   \   000003   00           nop
   \   000004   00           nop
   \   000005   00           nop
   \   000006   00           nop
     37                  asm("nop"); asm("nop"); asm("nop"); asm("nop"); asm("nop");
   \   000007   00           nop
   \   000008   00           nop
   \   000009   00           nop
   \   00000A   00           nop
   \   00000B   00           nop
     38                  asm("nop"); asm("nop"); asm("nop"); asm("nop"); asm("nop");
   \   00000C   00           nop
   \   00000D   00           nop
   \   00000E   00           nop
   \   00000F   00           nop
   \   000010   00           nop
     39                  asm("nop"); asm("nop"); asm("nop"); asm("nop"); asm("nop");
   \   000011   00           nop
   \   000012   00           nop
   \   000013   00           nop
   \   000014   00           nop
   \   000015   00           nop
     40                  asm("nop"); asm("nop"); asm("nop"); asm("nop"); asm("nop");
   \   000016   00           nop
   \   000017   00           nop
   \   000018   00           nop
   \   000019   00           nop
   \   00001A   00           nop
     41                  asm("nop"); asm("nop"); asm("nop"); asm("nop"); asm("nop");
   \   00001B   00           nop
   \   00001C   00           nop
   \   00001D   00           nop
   \   00001E   00           nop
   \   00001F   00           nop
     42                  asm("nop"); asm("nop");
   \   000020   00           nop
   \   000021   00           nop
     43              }
   \                     ??Delay_1u_0:
   \   000022   EA           MOV     A,R2
   \   000023   F8           MOV     R0,A
   \   000024   EB           MOV     A,R3
   \   000025   F9           MOV     R1,A
   \   000026   74FF         MOV     A,#-0x1
   \   000028   28           ADD     A,R0
   \   000029   1A           DEC     R2
   \   00002A   74FF         MOV     A,#-0x1
   \   00002C   39           ADDC    A,R1
   \   00002D   FB           MOV     R3,A
   \   00002E   E8           MOV     A,R0
   \   00002F   7001         JNZ     ??Delay_1u_2
   \   000031   E9           MOV     A,R1
   \                     ??Delay_1u_2:
   \   000032   70CE         JNZ     ??Delay_1u_1
     44          }
   \   000034   02....       LJMP    ?BRET
     45          /* 延时1ms */

   \                                 In  segment BANKED_CODE, align 1, keep-with-next
     46          void Delay_1ms(unsigned int times)
   \                     Delay_1ms:
     47          {
   \   000000   74F6         MOV     A,#-0xa
   \   000002   12....       LCALL   ?BANKED_ENTER_XDATA
   \   000005                ; Saved register size: 10
   \   000005                ; Auto size: 0
   \   000005   8A..         MOV     ?V0 + 0,R2
   \   000007   8B..         MOV     ?V0 + 1,R3
     48              unsigned int i;
     49              for(i=0; i<times; i++)       
   \   000009   7E00         MOV     R6,#0x0
   \   00000B   7F00         MOV     R7,#0x0
   \   00000D   800F         SJMP    ??Delay_1ms_0
     50                  Delay_1u(1000);         // 调用延时函数,延时1ms               
   \                     ??Delay_1ms_1:
   \   00000F                ; Setup parameters for call to function Delay_1u
   \   00000F   7AE8         MOV     R2,#-0x18
   \   000011   7B03         MOV     R3,#0x3
   \   000013   12....       LCALL   ??Delay_1u?relay
   \   000016   EE           MOV     A,R6
   \   000017   2401         ADD     A,#0x1
   \   000019   0E           INC     R6
   \   00001A   EF           MOV     A,R7
   \   00001B   3400         ADDC    A,#0x0
   \   00001D   FF           MOV     R7,A
   \                     ??Delay_1ms_0:
   \   00001E   C3           CLR     C
   \   00001F   EE           MOV     A,R6
   \   000020   95..         SUBB    A,?V0 + 0
   \   000022   EF           MOV     A,R7
   \   000023   95..         SUBB    A,?V0 + 1
   \   000025   40E8         JC      ??Delay_1ms_1
     51          }
   \   000027                REQUIRE ?Subroutine8
   \   000027                ; // Fall through to label ?Subroutine8

   \                                 In  segment BANKED_CODE, align 1, keep-with-next
   \                     ?Subroutine8:
   \   000000   7F02         MOV     R7,#0x2
   \   000002   02....       LJMP    ?BANKED_LEAVE_XDATA
     52          

   \                                 In  segment BANKED_CODE, align 1, keep-with-next
     53          void WriteSDA1(void)//SDA 输出1,相当于51里面的SDA=1   
   \                     WriteSDA1:
     54          {
   \   000000                ; Saved register size: 0
   \   000000                ; Auto size: 0
     55              P1DIR |= 0x08;
   \   000000   43FE08       ORL     0xfe,#0x8
     56              SDA = 1;
   \   000003   D293         SETB    0x90.3
     57          }
   \   000005   02....       LJMP    ?BRET
   \   000008                REQUIRE _A_P1
   \   000008                REQUIRE P1DIR
     58               

   \                                 In  segment BANKED_CODE, align 1, keep-with-next
     59          void WriteSDA0(void)//SDA 输出0   
   \                     WriteSDA0:
     60          {
   \   000000                ; Saved register size: 0
   \   000000                ; Auto size: 0
     61              P1DIR |= 0x08;
   \   000000   43FE08       ORL     0xfe,#0x8
     62              SDA = 0;
   \   000003   C293         CLR     0x90.3
     63          }
   \   000005   02....       LJMP    ?BRET
   \   000008                REQUIRE _A_P1
   \   000008                REQUIRE P1DIR
     64               

   \                                 In  segment BANKED_CODE, align 1, keep-with-next
     65          void WriteSCL1(void)//SCL 输出1   
   \                     WriteSCL1:
     66          {
   \   000000                ; Saved register size: 0
   \   000000                ; Auto size: 0
     67              P1DIR |= 0x04;
   \   000000   43FE04       ORL     0xfe,#0x4
     68              SCL = 1;
   \   000003   D292         SETB    0x90.2
     69          }
   \   000005   02....       LJMP    ?BRET
   \   000008                REQUIRE _A_P1
   \   000008                REQUIRE P1DIR
     70               

   \                                 In  segment BANKED_CODE, align 1, keep-with-next
     71          void WriteSCL0(void)//SCL 输出0   
   \                     WriteSCL0:
     72          {
   \   000000                ; Saved register size: 0
   \   000000                ; Auto size: 0
     73              P1DIR |= 0x04;
   \   000000   43FE04       ORL     0xfe,#0x4
     74              SCL = 0;
   \   000003   C292         CLR     0x90.2
     75          }
   \   000005   02....       LJMP    ?BRET
   \   000008                REQUIRE _A_P1
   \   000008                REQUIRE P1DIR
     76               

   \                                 In  segment BANKED_CODE, align 1, keep-with-next
     77          void ReadSDA(void)//这里设置SDA对应IO口DIR可以接收数据   
   \                     ReadSDA:
     78          {
   \   000000                ; Saved register size: 0
   \   000000                ; Auto size: 0
     79              P1DIR &= 0xF7;
   \   000000   53FEF7       ANL     0xfe,#0xf7
     80          }
   \   000003   02....       LJMP    ?BRET
   \   000006                REQUIRE P1DIR
     81          
     82          /* 起始信号 */

   \                                 In  segment BANKED_CODE, align 1, keep-with-next
     83          void BH1750_Start()
   \                     BH1750_Start:
     84          {
   \   000000   C082         PUSH    DPL
   \   000002   C083         PUSH    DPH
   \   000004                ; Saved register size: 2
   \   000004                ; Auto size: 0
     85              WriteSDA1();
   \   000004                ; Setup parameters for call to function WriteSDA1
   \   000004   12....       LCALL   ??WriteSDA1?relay
     86              WriteSCL1();
   \   000007                ; Setup parameters for call to function WriteSCL1
   \   000007   12....       LCALL   ?Subroutine1 & 0xFFFF
     87              Delay_1u(5);
     88              WriteSDA0();
   \                     ??CrossCallReturnLabel_22:
   \   00000A                ; Setup parameters for call to function WriteSDA0
   \   00000A   12....       LCALL   ??WriteSDA0?relay
     89              Delay_1u(5);
   \   00000D                ; Setup parameters for call to function Delay_1u
   \   00000D   80..         SJMP    ?Subroutine7
     90              WriteSCL0();
     91              Delay_1u(5);
     92          }

   \                                 In  segment BANKED_CODE, align 1, keep-with-next
   \                     ?Subroutine1:
   \   000000   12....       LCALL   ??WriteSCL1?relay
   \   000003                ; Setup parameters for call to function Delay_1u
   \   000003                ; Setup parameters for call to function Delay_1u
   \   000003                ; Setup parameters for call to function Delay_1u
   \   000003                ; Setup parameters for call to function Delay_1u
   \   000003                REQUIRE ?Subroutine9
   \   000003                ; // Fall through to label ?Subroutine9

   \                                 In  segment BANKED_CODE, align 1, keep-with-next
   \                     ?Subroutine9:
   \   000000   7A05         MOV     R2,#0x5
   \   000002   7B00         MOV     R3,#0x0
   \   000004   12....       LCALL   ??Delay_1u?relay
   \   000007   22           RET

   \                                 In  segment BANKED_CODE, align 1, keep-with-next
   \                     ?Subroutine7:
   \   000000   12....       LCALL   ??Subroutine14_0 & 0xFFFF
   \                     ??CrossCallReturnLabel_19:
   \   000003                REQUIRE ??Subroutine12_0
   \   000003                ; // Fall through to label ??Subroutine12_0

   \                                 In  segment BANKED_CODE, align 1, keep-with-next
   \                     ??Subroutine12_0:
   \   000000   D083         POP     DPH
   \   000002   D082         POP     DPL
   \   000004   02....       LJMP    ?BRET

   \                                 In  segment BANKED_CODE, align 1, keep-with-next
   \                     ??Subroutine14_0:
   \   000000   7A05         MOV     R2,#0x5
   \   000002   7B00         MOV     R3,#0x0
   \   000004   12....       LCALL   ??Delay_1u?relay
   \   000007                ; Setup parameters for call to function WriteSCL0
   \   000007                ; Setup parameters for call to function WriteSCL0
   \   000007                ; Setup parameters for call to function WriteSCL0
   \   000007                ; Setup parameters for call to function WriteSCL0
   \   000007                ; Setup parameters for call to function WriteSCL0
   \   000007                REQUIRE ??Subroutine15_0
   \   000007                ; // Fall through to label ??Subroutine15_0

   \                                 In  segment BANKED_CODE, align 1, keep-with-next
   \                     ??Subroutine15_0:
   \   000000   12....       LCALL   ??WriteSCL0?relay
   \   000003                ; Setup parameters for call to function Delay_1u
   \   000003                ; Setup parameters for call to function Delay_1u
   \   000003                ; Setup parameters for call to function Delay_1u
   \   000003                ; Setup parameters for call to function Delay_1u
   \   000003                ; Setup parameters for call to function Delay_1u
   \   000003                ; Setup parameters for call to function Delay_1u
   \   000003                ; Setup parameters for call to function Delay_1u
   \   000003   80..         SJMP    ?Subroutine9
     93          
     94          /* 停止信号 */

   \                                 In  segment BANKED_CODE, align 1, keep-with-next
     95          void BH1750_Stop()
   \                     BH1750_Stop:
     96          {
   \   000000   C082         PUSH    DPL
   \   000002   C083         PUSH    DPH
   \   000004                ; Saved register size: 2
   \   000004                ; Auto size: 0
     97              WriteSDA0();
   \   000004                ; Setup parameters for call to function WriteSDA0
   \   000004   12....       LCALL   ??WriteSDA0?relay
     98              WriteSCL1();
   \   000007                ; Setup parameters for call to function WriteSCL1
   \   000007   12....       LCALL   ?Subroutine1 & 0xFFFF
     99              Delay_1u(5);
    100              WriteSDA1();
   \                     ??CrossCallReturnLabel_23:
   \   00000A                ; Setup parameters for call to function WriteSDA1
   \   00000A   12....       LCALL   ??WriteSDA1?relay
    101              Delay_1u(5);
   \   00000D                ; Setup parameters for call to function Delay_1u
   \   00000D   80..         SJMP    ?Subroutine7
    102              WriteSCL0();
    103              Delay_1u(5);
    104          }
    105          
    106          /* 发送应答信号-入口参数:ack (0:ACK 1:NAK) */

   \                                 In  segment BANKED_CODE, align 1, keep-with-next
    107          void BH1750_SendACK(uchar ack)
   \                     BH1750_SendACK:
    108          {
   \   000000   C082         PUSH    DPL
   \   000002   C083         PUSH    DPH
   \   000004                ; Saved register size: 2
   \   000004                ; Auto size: 0
    109             if(ack)
   \   000004   E9           MOV     A,R1
   \   000005   6005         JZ      ??BH1750_SendACK_0
    110             {
    111                 WriteSDA1();
   \   000007                ; Setup parameters for call to function WriteSDA1
   \   000007   12....       LCALL   ??WriteSDA1?relay
   \   00000A   8003         SJMP    ??BH1750_SendACK_1
    112             }
    113             else
    114             {
    115                 WriteSDA0();
   \                     ??BH1750_SendACK_0:
   \   00000C                ; Setup parameters for call to function WriteSDA0
   \   00000C   12....       LCALL   ??WriteSDA0?relay
    116             }  
    117               
    118                 Delay_1u(5);
   \                     ??BH1750_SendACK_1:
   \   00000F                ; Setup parameters for call to function Delay_1u
   \   00000F   7A05         MOV     R2,#0x5
   \   000011   7B00         MOV     R3,#0x0
   \   000013   12....       LCALL   ??Delay_1u?relay
    119                 WriteSCL1();   
   \   000016                ; Setup parameters for call to function WriteSCL1
   \   000016   12....       LCALL   ?Subroutine1 & 0xFFFF
    120                 Delay_1u(5);
    121                 WriteSCL0();
   \                     ??CrossCallReturnLabel_24:
   \   000019                ; Setup parameters for call to function WriteSCL0
   \   000019   12....       LCALL   ??WriteSCL0?relay
    122          }
   \   00001C   80..         SJMP    ??Subroutine12_0
    123          
    124          /* 接收应答信号 */

   \                                 In  segment BANKED_CODE, align 1, keep-with-next
    125          uchar BH1750_RecvACK()
   \                     BH1750_RecvACK:
    126          {        
   \   000000   C082         PUSH    DPL
   \   000002   C083         PUSH    DPH
   \   000004                ; Saved register size: 2
   \   000004                ; Auto size: 0
    127              //unsigned int i=10;
    128              ReadSDA();F0=SDA;
   \   000004   53FEF7       ANL     0xfe,#0xf7
   \   000007   A293         MOV     C,0x90.3
   \   000009   92D5         MOV     0xd0.5,C
    129              WriteSCL1();
   \   00000B                ; Setup parameters for call to function WriteSCL1
   \   00000B   12....       LCALL   ??Subroutine13_0 & 0xFFFF
    130              Delay_1u(5);
    131              WriteSCL0();
    132              Delay_1u(5);
    133              P1DIR |= 0x08;
   \                     ??CrossCallReturnLabel_18:
   \   00000E   43FE08       ORL     0xfe,#0x8
    134              return F0;
   \   000011   A2D5         MOV     C,0xd0.5
   \   000013   E4           CLR     A
   \   000014   92E0         MOV     0xE0 /* A   */.0,C
   \   000016   F9           MOV     R1,A
   \   000017   80..         SJMP    ??Subroutine12_0
   \   000019                REQUIRE _A_P1
   \   000019                REQUIRE _A_PSW
   \   000019                REQUIRE P1DIR
    135          }

   \                                 In  segment BANKED_CODE, align 1, keep-with-next
   \                     ??Subroutine13_0:
   \   000000   12....       LCALL   ??WriteSCL1?relay
   \   000003                ; Setup parameters for call to function Delay_1u
   \   000003                ; Setup parameters for call to function Delay_1u
   \   000003                ; Setup parameters for call to function Delay_1u
   \   000003                REQUIRE ??Subroutine14_0
   \   000003                ; // Fall through to label ??Subroutine14_0
    136          
    137          /* 发送0，在SCL为高电平时使SDA信号为低 */

   \                                 In  segment BANKED_CODE, align 1, keep-with-next
   \                     ?Subroutine0:
   \   000000   7A05         MOV     R2,#0x5
   \   000002   7B00         MOV     R3,#0x0
   \   000004   12....       LCALL   ??Delay_1u?relay
   \   000007                ; Setup parameters for call to function WriteSCL1
   \   000007                ; Setup parameters for call to function WriteSCL1
   \   000007                REQUIRE ??Subroutine13_0
   \   000007                ; // Fall through to label ??Subroutine13_0

   \                                 In  segment BANKED_CODE, align 1, keep-with-next
    138          void SEND_0_1(void)   /* SEND ACK */
   \                     SEND_0_1:
    139          {
   \   000000   C082         PUSH    DPL
   \   000002   C083         PUSH    DPH
   \   000004                ; Saved register size: 2
   \   000004                ; Auto size: 0
    140              WriteSDA0();
   \   000004                ; Setup parameters for call to function WriteSDA0
   \   000004   12....       LCALL   ??WriteSDA0?relay
    141              Delay_1u(5);
   \   000007                ; Setup parameters for call to function Delay_1u
   \   000007                REQUIRE ?Subroutine11
   \   000007                ; // Fall through to label ?Subroutine11
    142              WriteSCL1();
    143              Delay_1u(5);
    144              WriteSCL0();
    145              Delay_1u(5);
    146          }

   \                                 In  segment BANKED_CODE, align 1, keep-with-next
   \                     ?Subroutine11:
   \   000000   12....       LCALL   ?Subroutine0 & 0xFFFF
   \                     ??CrossCallReturnLabel_17:
   \   000003   80..         SJMP    ??Subroutine12_0
    147          
    148          /* 发送1，在SCL为高电平时使SDA信号为高 */

   \                                 In  segment BANKED_CODE, align 1, keep-with-next
    149          void SEND_1_1(void)
   \                     SEND_1_1:
    150          {
   \   000000   C082         PUSH    DPL
   \   000002   C083         PUSH    DPH
   \   000004                ; Saved register size: 2
   \   000004                ; Auto size: 0
    151              WriteSDA1();
   \   000004                ; Setup parameters for call to function WriteSDA1
   \   000004   12....       LCALL   ??WriteSDA1?relay
    152              Delay_1u(5);
   \   000007                ; Setup parameters for call to function Delay_1u
   \   000007   80..         SJMP    ?Subroutine11
    153              WriteSCL1();
    154              Delay_1u(5);
    155              WriteSCL0();
    156              Delay_1u(5);
    157          }
    158          
    159          /* 向IIC总线发送一个字节数据 */

   \                                 In  segment BANKED_CODE, align 1, keep-with-next
    160          void BH1750_SendByte(uchar dat)
   \                     BH1750_SendByte:
    161          {
   \   000000   74F6         MOV     A,#-0xa
   \   000002   12....       LCALL   ?BANKED_ENTER_XDATA
   \   000005                ; Saved register size: 10
   \   000005                ; Auto size: 0
   \   000005   E9           MOV     A,R1
   \   000006   FF           MOV     R7,A
    162              char i;
    163              WriteSCL0();
   \   000007                ; Setup parameters for call to function WriteSCL0
   \   000007   12....       LCALL   ??WriteSCL0?relay
    164              for(i=0;i<8;i++)
   \   00000A   7E00         MOV     R6,#0x0
    165              {
    166                  if((dat<<i)&0x80)
   \                     ??BH1750_SendByte_0:
   \   00000C   8F..         MOV     ?V0 + 0,R7
   \   00000E   75..00       MOV     ?V0 + 1,#0x0
   \   000011   EE           MOV     A,R6
   \   000012   78..         MOV     R0,#?V0 + 0
   \   000014   12....       LCALL   ?S_SHL
   \   000017   E5..         MOV     A,?V0 + 0
   \   000019   5480         ANL     A,#0x80
   \   00001B   6005         JZ      ??BH1750_SendByte_1
    167                  {
    168                      SEND_1_1();
   \   00001D                ; Setup parameters for call to function SEND_1_1
   \   00001D   12....       LCALL   ??SEND_1_1?relay
   \   000020   8003         SJMP    ??BH1750_SendByte_2
    169                  }
    170                  else
    171                  {
    172                      SEND_0_1();
   \                     ??BH1750_SendByte_1:
   \   000022                ; Setup parameters for call to function SEND_0_1
   \   000022   12....       LCALL   ??SEND_0_1?relay
    173                  }
    174              }
   \                     ??BH1750_SendByte_2:
   \   000025   0E           INC     R6
   \   000026   EE           MOV     A,R6
   \   000027   C3           CLR     C
   \   000028   9408         SUBB    A,#0x8
   \   00002A   40E0         JC      ??BH1750_SendByte_0
    175              BH1750_RecvACK();     
   \   00002C                ; Setup parameters for call to function BH1750_RecvACK
   \   00002C   12....       LCALL   ??BH1750_RecvACK?relay
    176          }
   \   00002F   02....       LJMP    ?Subroutine8 & 0xFFFF
    177          
    178          /* 从IIC总线接收一个字节数据 */

   \                                 In  segment BANKED_CODE, align 1, keep-with-next
    179          uchar BH1750_RecvByte()
   \                     BH1750_RecvByte:
    180          {
   \   000000   74F7         MOV     A,#-0x9
   \   000002   12....       LCALL   ?BANKED_ENTER_XDATA
   \   000005                ; Saved register size: 9
   \   000005                ; Auto size: 0
    181              char b=0,i;    
   \   000005   7F00         MOV     R7,#0x0
    182              WriteSCL0();
   \   000007                ; Setup parameters for call to function WriteSCL0
   \   000007   12....       LCALL   ??Subroutine15_0 & 0xFFFF
    183              Delay_1u(5);
    184              for(i=0;i<8;i++)
   \                     ??CrossCallReturnLabel_20:
   \   00000A   7E08         MOV     R6,#0x8
    185              {   
    186                  ReadSDA();
   \                     ??BH1750_RecvByte_0:
   \   00000C   53FEF7       ANL     0xfe,#0xf7
    187                  WriteSCL1();
   \   00000F                ; Setup parameters for call to function WriteSCL1
   \   00000F   12....       LCALL   ?Subroutine1 & 0xFFFF
    188                  Delay_1u(5);
    189                  F0=SDA; //寄存器中的一位,用于存储SDA中的一位数据
   \                     ??CrossCallReturnLabel_25:
   \   000012   A293         MOV     C,0x90.3
   \   000014   92D5         MOV     0xd0.5,C
    190                  if(F0)
   \   000016   EF           MOV     A,R7
   \   000017   C3           CLR     C
   \   000018   33           RLC     A
   \   000019   FA           MOV     R2,A
   \   00001A   A2D5         MOV     C,0xd0.5
   \   00001C   5003         JNC     ??BH1750_RecvByte_1
    191                  {
    192                      b=b<<1;
    193                      b=b|0x01;
   \   00001E   7401         MOV     A,#0x1
   \   000020   4A           ORL     A,R2
    194                  }
    195                  else
    196                  {b=b<<1;}
   \                     ??BH1750_RecvByte_1:
   \   000021   FF           MOV     R7,A
    197                  WriteSCL0();
   \   000022                ; Setup parameters for call to function WriteSCL0
   \   000022   12....       LCALL   ??Subroutine15_0 & 0xFFFF
    198                  Delay_1u(5);
    199              }
   \                     ??CrossCallReturnLabel_21:
   \   000025   1E           DEC     R6
   \   000026   EE           MOV     A,R6
   \   000027   70E3         JNZ     ??BH1750_RecvByte_0
    200              P1DIR |= 0x08;
   \   000029   43FE08       ORL     0xfe,#0x8
    201              return b;
   \   00002C   EF           MOV     A,R7
   \   00002D   F9           MOV     R1,A
   \   00002E                REQUIRE ?Subroutine10
   \   00002E                REQUIRE _A_P1
   \   00002E                REQUIRE _A_PSW
   \   00002E                REQUIRE P1DIR
   \   00002E                ; // Fall through to label ?Subroutine10
    202          }

   \                                 In  segment BANKED_CODE, align 1, keep-with-next
   \                     ?Subroutine10:
   \   000000   7F01         MOV     R7,#0x1
   \   000002   02....       LJMP    ?BANKED_LEAVE_XDATA
    203          

   \                                 In  segment BANKED_CODE, align 1, keep-with-next
    204          uchar Read_BH1750()
   \                     Read_BH1750:
    205          {
   \   000000   74F0         MOV     A,#-0x10
   \   000002   12....       LCALL   ?BANKED_ENTER_XDATA
   \   000005                ; Saved register size: 16
   \   000005                ; Auto size: 0
    206              uchar t0,t1,t;
    207              BH1750_Start();
   \   000005                ; Setup parameters for call to function BH1750_Start
   \   000005   12....       LCALL   ?Subroutine2 & 0xFFFF
    208              BH1750_SendByte(SlaveAddress);      //发送设备地址+写信号
    209              if(F0)
   \                     ??CrossCallReturnLabel_0:
   \   000008   5003         JNC     ??CrossCallReturnLabel_3
    210              {
    211                  BH1750_Start();                 //起始信号
   \   00000A                ; Setup parameters for call to function BH1750_Start
   \   00000A   12....       LCALL   ?Subroutine3 & 0xFFFF
    212                  BH1750_SendByte(SlaveAddress);  //发送设备地址+写信号
    213              }
    214              BH1750_SendByte(0x00);              // 断电
   \                     ??CrossCallReturnLabel_3:
   \   00000D                ; Setup parameters for call to function BH1750_SendByte
   \   00000D   7900         MOV     R1,#0x0
   \   00000F   12....       LCALL   ?Subroutine6 & 0xFFFF
    215              if(F0)
   \                     ??CrossCallReturnLabel_13:
   \   000012   5005         JNC     ??Read_BH1750_0
    216              {
    217                  BH1750_SendByte(0x00);      
   \   000014                ; Setup parameters for call to function BH1750_SendByte
   \   000014   7900         MOV     R1,#0x0
   \   000016   12....       LCALL   ??BH1750_SendByte?relay
    218              }
    219              BH1750_Stop();
   \                     ??Read_BH1750_0:
   \   000019                ; Setup parameters for call to function BH1750_Stop
   \   000019   12....       LCALL   ??BH1750_Stop?relay
    220              Delay_1ms(30);
   \   00001C                ; Setup parameters for call to function Delay_1ms
   \   00001C   7A1E         MOV     R2,#0x1e
   \   00001E   7B00         MOV     R3,#0x0
   \   000020   12....       LCALL   ??Delay_1ms?relay
    221          
    222              BH1750_Start();                     //起始信号
   \   000023                ; Setup parameters for call to function BH1750_Start
   \   000023   12....       LCALL   ?Subroutine2 & 0xFFFF
    223              BH1750_SendByte(SlaveAddress);      //发送设备地址+写信号
    224              if(F0)
   \                     ??CrossCallReturnLabel_1:
   \   000026   5003         JNC     ??CrossCallReturnLabel_4
    225              {
    226                  BH1750_Start();                 //起始信号
   \   000028                ; Setup parameters for call to function BH1750_Start
   \   000028   12....       LCALL   ?Subroutine3 & 0xFFFF
    227                  BH1750_SendByte(SlaveAddress);  //发送设备地址+写信号
    228              }
    229              BH1750_SendByte(0x01);              // 上电
   \                     ??CrossCallReturnLabel_4:
   \   00002B                ; Setup parameters for call to function BH1750_SendByte
   \   00002B   7901         MOV     R1,#0x1
   \   00002D   12....       LCALL   ?Subroutine6 & 0xFFFF
    230              if(F0)
   \                     ??CrossCallReturnLabel_14:
   \   000030   5005         JNC     ??Read_BH1750_1
    231              {
    232                  BH1750_SendByte(0x01);      
   \   000032                ; Setup parameters for call to function BH1750_SendByte
   \   000032   7901         MOV     R1,#0x1
   \   000034   12....       LCALL   ??BH1750_SendByte?relay
    233              }
    234              BH1750_Stop();
   \                     ??Read_BH1750_1:
   \   000037                ; Setup parameters for call to function BH1750_Stop
   \   000037   12....       LCALL   ??BH1750_Stop?relay
    235          
    236              BH1750_Start();                          //起始信号
   \   00003A                ; Setup parameters for call to function BH1750_Start
   \   00003A   12....       LCALL   ?Subroutine2 & 0xFFFF
    237              BH1750_SendByte(SlaveAddress);           //发送设备地址+写信号
    238              if(F0)
   \                     ??CrossCallReturnLabel_2:
   \   00003D   5003         JNC     ??CrossCallReturnLabel_5
    239              {
    240                  BH1750_Start();                          //起始信号
   \   00003F                ; Setup parameters for call to function BH1750_Start
   \   00003F   12....       LCALL   ?Subroutine3 & 0xFFFF
    241                  BH1750_SendByte(SlaveAddress);           //发送设备地址+写信号
    242              }
    243              BH1750_SendByte(0x10);                  // H- resolution mode
   \                     ??CrossCallReturnLabel_5:
   \   000042                ; Setup parameters for call to function BH1750_SendByte
   \   000042   7910         MOV     R1,#0x10
   \   000044   12....       LCALL   ?Subroutine6 & 0xFFFF
    244              if(F0)
   \                     ??CrossCallReturnLabel_15:
   \   000047   5005         JNC     ??Read_BH1750_2
    245              {
    246                  BH1750_SendByte(0x10);      
   \   000049                ; Setup parameters for call to function BH1750_SendByte
   \   000049   7910         MOV     R1,#0x10
   \   00004B   12....       LCALL   ??BH1750_SendByte?relay
    247              }
    248              BH1750_Stop();
   \                     ??Read_BH1750_2:
   \   00004E                ; Setup parameters for call to function BH1750_Stop
   \   00004E   12....       LCALL   ??BH1750_Stop?relay
    249              Delay_1ms(180);               //延时180ms                //发送存储单元地址，从0开始       
   \   000051                ; Setup parameters for call to function Delay_1ms
   \   000051   7AB4         MOV     R2,#-0x4c
   \   000053   7B00         MOV     R3,#0x0
   \   000055   12....       LCALL   ??Delay_1ms?relay
    250             
    251              BH1750_Start();                          //起始信号
   \   000058                ; Setup parameters for call to function BH1750_Start
   \   000058   12....       LCALL   ?Subroutine4 & 0xFFFF
    252              BH1750_SendByte(SlaveAddress+1);         //发送设备地址+读信号
    253              if(F0)
   \                     ??CrossCallReturnLabel_7:
   \   00005B   A2D5         MOV     C,0xd0.5
   \   00005D   5003         JNC     ??CrossCallReturnLabel_8
    254              {
    255                  BH1750_Start();                          //起始信号
   \   00005F                ; Setup parameters for call to function BH1750_Start
   \   00005F   12....       LCALL   ?Subroutine4 & 0xFFFF
    256                  BH1750_SendByte(SlaveAddress+1);           //发送设备地址+写信号
    257              }
    258             
    259              t0= BH1750_RecvByte();          //BUF[0]存储0x32地址中的数据
   \                     ??CrossCallReturnLabel_8:
   \   000062                ; Setup parameters for call to function BH1750_RecvByte
   \   000062   12....       LCALL   ??BH1750_RecvByte?relay
   \   000065   E9           MOV     A,R1
   \   000066   FE           MOV     R6,A
    260              BH1750_SendACK(0);                //最后一个数据需要回NOACK
   \   000067                ; Setup parameters for call to function BH1750_SendACK
   \   000067   7900         MOV     R1,#0x0
   \   000069   12....       LCALL   ??BH1750_SendACK?relay
    261          
    262              t1= BH1750_RecvByte();
   \   00006C                ; Setup parameters for call to function BH1750_RecvByte
   \   00006C   12....       LCALL   ??BH1750_RecvByte?relay
   \   00006F   E9           MOV     A,R1
   \   000070   F5..         MOV     ?V0 + 0,A
    263              BH1750_SendACK(1);                //回应ACK
   \   000072                ; Setup parameters for call to function BH1750_SendACK
   \   000072   7901         MOV     R1,#0x1
   \   000074   12....       LCALL   ??BH1750_SendACK?relay
    264                
    265              BH1750_Stop();                           //停止信号
   \   000077                ; Setup parameters for call to function BH1750_Stop
   \   000077   12....       LCALL   ??BH1750_Stop?relay
    266              t=((t0<<8)+t1)/1.2;
                      ^
Warning[Pa093]: implicit conversion from floating point to integer
    267              Delay_1ms(5);
   \   00007A                ; Setup parameters for call to function Delay_1ms
   \   00007A   7A05         MOV     R2,#0x5
   \   00007C   7B00         MOV     R3,#0x0
   \   00007E   12....       LCALL   ??Delay_1ms?relay
    268              return t;
   \   000081   EE           MOV     A,R6
   \   000082   F9           MOV     R1,A
   \   000083   E5..         MOV     A,?V0 + 0
   \   000085   2400         ADD     A,#0x0
   \   000087   E4           CLR     A
   \   000088   39           ADDC    A,R1
   \   000089   F5..         MOV     ?V0 + 1,A
   \   00008B   33           RLC     A
   \   00008C   95E0         SUBB    A,0xE0 /* A   */
   \   00008E   F5..         MOV     ?V0 + 2,A
   \   000090   F5..         MOV     ?V0 + 3,A
   \   000092   78..         MOV     R0,#?V0 + 0
   \   000094   12....       LCALL   ?L_TO_FLT
   \   000097   90....       MOV     DPTR,#__Constant_3f99999a
   \   00009A   78..         MOV     R0,#?V0 + 4
   \   00009C   12....       LCALL   ?L_MOV_X
   \   00009F   78..         MOV     R0,#?V0 + 0
   \   0000A1   79..         MOV     R1,#?V0 + 4
   \   0000A3   12....       LCALL   ?FLT_DIV
   \   0000A6   78..         MOV     R0,#?V0 + 0
   \   0000A8   12....       LCALL   ?FLT_TO_L
   \   0000AB   A9..         MOV     R1,?V0 + 0
   \   0000AD   7F08         MOV     R7,#0x8
   \   0000AF   02....       LJMP    ?BANKED_LEAVE_XDATA
   \   0000B2                REQUIRE _A_PSW
    269          }

   \                                 In  segment BANKED_CODE, align 1, keep-with-next
   \                     ?Subroutine4:
   \   000000   12....       LCALL   ??BH1750_Start?relay
   \   000003                ; Setup parameters for call to function BH1750_SendByte
   \   000003                ; Setup parameters for call to function BH1750_SendByte
   \   000003   7947         MOV     R1,#0x47
   \   000005   12....       LCALL   ??BH1750_SendByte?relay
   \   000008   22           RET

   \                                 In  segment BANKED_CODE, align 1, keep-with-next
   \                     ?Subroutine2:
   \   000000   12....       LCALL   ??BH1750_Start?relay
   \   000003                ; Setup parameters for call to function BH1750_SendByte
   \   000003                ; Setup parameters for call to function BH1750_SendByte
   \   000003                ; Setup parameters for call to function BH1750_SendByte
   \   000003   7946         MOV     R1,#0x46
   \   000005   12....       LCALL   ?Subroutine6 & 0xFFFF
   \                     ??CrossCallReturnLabel_16:
   \   000008   22           RET

   \                                 In  segment BANKED_CODE, align 1, keep-with-next
   \                     ?Subroutine6:
   \   000000   12....       LCALL   ??BH1750_SendByte?relay
   \   000003   A2D5         MOV     C,0xd0.5
   \   000005   22           RET

   \                                 In  segment BANKED_CODE, align 1, keep-with-next
   \                     ?Subroutine3:
   \   000000   12....       LCALL   ??BH1750_Start?relay
   \   000003                ; Setup parameters for call to function BH1750_SendByte
   \   000003                ; Setup parameters for call to function BH1750_SendByte
   \   000003                ; Setup parameters for call to function BH1750_SendByte
   \   000003                ; Setup parameters for call to function BH1750_SendByte
   \   000003   7946         MOV     R1,#0x46
   \   000005   12....       LCALL   ??BH1750_SendByte?relay
   \   000008   22           RET
    270          

   \                                 In  segment BANKED_CODE, align 1, keep-with-next
    271          void Single_Write_BH1750(uchar REG_Address)
   \                     Single_Write_BH1750:
    272          {
   \   000000   74F7         MOV     A,#-0x9
   \   000002   12....       LCALL   ?BANKED_ENTER_XDATA
   \   000005                ; Saved register size: 9
   \   000005                ; Auto size: 0
   \   000005   E9           MOV     A,R1
   \   000006   FE           MOV     R6,A
    273              BH1750_Start();                  //起始信号
   \   000007                ; Setup parameters for call to function BH1750_Start
   \   000007   12....       LCALL   ?Subroutine3 & 0xFFFF
    274              BH1750_SendByte(SlaveAddress);   //发送设备地址+写信号
    275              BH1750_SendByte(REG_Address);    //内部寄存器地址，
   \                     ??CrossCallReturnLabel_6:
   \   00000A                ; Setup parameters for call to function BH1750_SendByte
   \   00000A   EE           MOV     A,R6
   \   00000B   F9           MOV     R1,A
   \   00000C   12....       LCALL   ??BH1750_SendByte?relay
    276              BH1750_Stop();                   //发送停止信号
   \   00000F                ; Setup parameters for call to function BH1750_Stop
   \   00000F   12....       LCALL   ??BH1750_Stop?relay
    277          }
   \   000012   02....       LJMP    ?Subroutine10 & 0xFFFF
    278          

   \                                 In  segment BANKED_CODE, align 1, keep-with-next
    279          void Init_BH1750()
   \                     Init_BH1750:
    280          {
   \   000000   C082         PUSH    DPL
   \   000002   C083         PUSH    DPH
   \   000004                ; Saved register size: 2
   \   000004                ; Auto size: 0
    281              BH1750_SendByte(0x01);  
   \   000004                ; Setup parameters for call to function BH1750_SendByte
   \   000004   7901         MOV     R1,#0x1
   \   000006   12....       LCALL   ??BH1750_SendByte?relay
    282          }
   \   000009   02....       LJMP    ??Subroutine12_0 & 0xFFFF
    283          
    284          /* 字符转换 */

   \                                 In  segment BANKED_CODE, align 1, keep-with-next
    285          void conversion(uint temp_data)  //  数据转换出 个，十，百，千，万
   \                     conversion:
    286          {  
   \   000000   74F6         MOV     A,#-0xa
   \   000002   12....       LCALL   ?BANKED_ENTER_XDATA
   \   000005                ; Saved register size: 10
   \   000005                ; Auto size: 0
   \   000005   EA           MOV     A,R2
   \   000006   FC           MOV     R4,A
   \   000007   EB           MOV     A,R3
   \   000008   FD           MOV     R5,A
    287              wan=temp_data/10000+0x30 ;
   \   000009   EC           MOV     A,R4
   \   00000A   F8           MOV     R0,A
   \   00000B   ED           MOV     A,R5
   \   00000C   F9           MOV     R1,A
   \   00000D   7A10         MOV     R2,#0x10
   \   00000F   7B27         MOV     R3,#0x27
   \   000011   12....       LCALL   ?US_DIV_MOD
   \   000014   E8           MOV     A,R0
   \   000015   2430         ADD     A,#0x30
   \   000017   90....       MOV     DPTR,#wan
   \   00001A   12....       LCALL   ?Subroutine5 & 0xFFFF
    288              temp_data=temp_data%10000;   //取余运算
   \                     ??CrossCallReturnLabel_9:
   \   00001D   7A10         MOV     R2,#0x10
   \   00001F   7B27         MOV     R3,#0x27
   \   000021   12....       LCALL   ?US_DIV_MOD
   \   000024   8A..         MOV     ?V0 + 0,R2
   \   000026   8B..         MOV     ?V0 + 1,R3
   \   000028   AC..         MOV     R4,?V0 + 0
   \   00002A   AD..         MOV     R5,?V0 + 1
    289              qian=temp_data/1000+0x30 ;
   \   00002C   EC           MOV     A,R4
   \   00002D   F8           MOV     R0,A
   \   00002E   ED           MOV     A,R5
   \   00002F   F9           MOV     R1,A
   \   000030   7AE8         MOV     R2,#-0x18
   \   000032   7B03         MOV     R3,#0x3
   \   000034   12....       LCALL   ?US_DIV_MOD
   \   000037   E8           MOV     A,R0
   \   000038   2430         ADD     A,#0x30
   \   00003A   90....       MOV     DPTR,#qian
   \   00003D   12....       LCALL   ?Subroutine5 & 0xFFFF
    290              temp_data=temp_data%1000;    //取余运算
   \                     ??CrossCallReturnLabel_10:
   \   000040   7AE8         MOV     R2,#-0x18
   \   000042   7B03         MOV     R3,#0x3
   \   000044   12....       LCALL   ?US_DIV_MOD
   \   000047   8A..         MOV     ?V0 + 0,R2
   \   000049   8B..         MOV     ?V0 + 1,R3
   \   00004B   AC..         MOV     R4,?V0 + 0
   \   00004D   AD..         MOV     R5,?V0 + 1
    291              bai=temp_data/100+0x30   ;
   \   00004F   EC           MOV     A,R4
   \   000050   F8           MOV     R0,A
   \   000051   ED           MOV     A,R5
   \   000052   F9           MOV     R1,A
   \   000053   7A64         MOV     R2,#0x64
   \   000055   7B00         MOV     R3,#0x0
   \   000057   12....       LCALL   ?US_DIV_MOD
   \   00005A   E8           MOV     A,R0
   \   00005B   2430         ADD     A,#0x30
   \   00005D   90....       MOV     DPTR,#bai
   \   000060   12....       LCALL   ?Subroutine5 & 0xFFFF
    292              temp_data=temp_data%100;     //取余运算
   \                     ??CrossCallReturnLabel_11:
   \   000063   7A64         MOV     R2,#0x64
   \   000065   7B00         MOV     R3,#0x0
   \   000067   12....       LCALL   ?US_DIV_MOD
   \   00006A   8A..         MOV     ?V0 + 0,R2
   \   00006C   8B..         MOV     ?V0 + 1,R3
   \   00006E   AC..         MOV     R4,?V0 + 0
   \   000070   AD..         MOV     R5,?V0 + 1
    293              shi=temp_data/10+0x30    ;
   \   000072   EC           MOV     A,R4
   \   000073   F8           MOV     R0,A
   \   000074   ED           MOV     A,R5
   \   000075   F9           MOV     R1,A
   \   000076   7A0A         MOV     R2,#0xa
   \   000078   7B00         MOV     R3,#0x0
   \   00007A   12....       LCALL   ?US_DIV_MOD
   \   00007D   E8           MOV     A,R0
   \   00007E   2430         ADD     A,#0x30
   \   000080   90....       MOV     DPTR,#shi
   \   000083   12....       LCALL   ?Subroutine5 & 0xFFFF
    294              temp_data=temp_data%10;      //取余运算
    295              ge=temp_data+0x30;        
   \                     ??CrossCallReturnLabel_12:
   \   000086   7A0A         MOV     R2,#0xa
   \   000088   7B00         MOV     R3,#0x0
   \   00008A   12....       LCALL   ?US_DIV_MOD
   \   00008D   EA           MOV     A,R2
   \   00008E   2430         ADD     A,#0x30
   \   000090   90....       MOV     DPTR,#`ge`
   \   000093   F0           MOVX    @DPTR,A
    296              Light[0]=(unsigned char)wan;
   \   000094   90....       MOV     DPTR,#wan
   \   000097   E0           MOVX    A,@DPTR
   \   000098   90....       MOV     DPTR,#Light
   \   00009B   F0           MOVX    @DPTR,A
    297              Light[1]=(unsigned char)qian;
   \   00009C   90....       MOV     DPTR,#qian
   \   00009F   E0           MOVX    A,@DPTR
   \   0000A0   90....       MOV     DPTR,#(Light + 1)
   \   0000A3   F0           MOVX    @DPTR,A
    298              Light[2]=(unsigned char)bai;
   \   0000A4   90....       MOV     DPTR,#bai
   \   0000A7   E0           MOVX    A,@DPTR
   \   0000A8   90....       MOV     DPTR,#(Light + 2)
   \   0000AB   F0           MOVX    @DPTR,A
    299              Light[3]=(unsigned char)shi;
   \   0000AC   90....       MOV     DPTR,#shi
   \   0000AF   E0           MOVX    A,@DPTR
   \   0000B0   90....       MOV     DPTR,#(Light + 3)
   \   0000B3   F0           MOVX    @DPTR,A
    300              Light[4]=(unsigned char)ge;
   \   0000B4   90....       MOV     DPTR,#`ge`
   \   0000B7   E0           MOVX    A,@DPTR
   \   0000B8   90....       MOV     DPTR,#(Light + 4)
   \   0000BB   F0           MOVX    @DPTR,A
    301          }
   \   0000BC   02....       LJMP    ?Subroutine8 & 0xFFFF

   \                                 In  segment BANKED_CODE, align 1, keep-with-next
   \                     ?Subroutine5:
   \   000000   F0           MOVX    @DPTR,A
   \   000001   EC           MOV     A,R4
   \   000002   F8           MOV     R0,A
   \   000003   ED           MOV     A,R5
   \   000004   F9           MOV     R1,A
   \   000005   22           RET
    302          
    303          /* 光度数据采集 */

   \                                 In  segment BANKED_CODE, align 1, keep-with-next
    304          void LIGHT()
   \                     LIGHT:
    305          {
   \   000000   74F4         MOV     A,#-0xc
   \   000002   12....       LCALL   ?BANKED_ENTER_XDATA
   \   000005                ; Saved register size: 12
   \   000005                ; Auto size: 0
    306              Delay_1ms(100);
   \   000005                ; Setup parameters for call to function Delay_1ms
   \   000005   7A64         MOV     R2,#0x64
   \   000007   7B00         MOV     R3,#0x0
   \   000009   12....       LCALL   ??Delay_1ms?relay
    307          
    308              Init_BH1750();
   \   00000C                ; Setup parameters for call to function BH1750_SendByte
   \   00000C   7901         MOV     R1,#0x1
   \   00000E   12....       LCALL   ??BH1750_SendByte?relay
    309              float lx;
    310            
    311              lx = Read_BH1750();
   \   000011                ; Setup parameters for call to function Read_BH1750
   \   000011   12....       LCALL   ??Read_BH1750?relay
   \   000014   E9           MOV     A,R1
   \   000015   F5..         MOV     ?V0 + 0,A
   \   000017   75..00       MOV     ?V0 + 1,#0x0
   \   00001A   75..00       MOV     ?V0 + 2,#0x0
   \   00001D   75..00       MOV     ?V0 + 3,#0x0
   \   000020   78..         MOV     R0,#?V0 + 0
   \   000022   12....       LCALL   ?UL_TO_FLT
    312              conversion(lx);    
                                ^
Warning[Pa093]: implicit conversion from floating point to integer
   \   000025                ; Setup parameters for call to function conversion
   \   000025   78..         MOV     R0,#?V0 + 0
   \   000027   12....       LCALL   ?FLT_TO_L
   \   00002A   AA..         MOV     R2,?V0 + 0
   \   00002C   AB..         MOV     R3,?V0 + 1
   \   00002E   12....       LCALL   ??conversion?relay
    313              Delay_1ms(1000);
   \   000031                ; Setup parameters for call to function Delay_1ms
   \   000031   7AE8         MOV     R2,#-0x18
   \   000033   7B03         MOV     R3,#0x3
   \   000035   12....       LCALL   ??Delay_1ms?relay
    314          }
   \   000038   7F04         MOV     R7,#0x4
   \   00003A   02....       LJMP    ?BANKED_LEAVE_XDATA

   \                                 In  segment XDATA_ROM_C, align 1
   \                     __Constant_3f99999a:
   \   000000   9A99993F     DD 3F99999AH

   \                                 In  segment BANK_RELAYS, align 1
   \                     ??Delay_1u?relay:
   \   000000   12....       LCALL   ?BDISPATCH
   \   000003   ......       DC24    Delay_1u

   \                                 In  segment BANK_RELAYS, align 1
   \                     ??Delay_1ms?relay:
   \   000000   12....       LCALL   ?BDISPATCH
   \   000003   ......       DC24    Delay_1ms

   \                                 In  segment BANK_RELAYS, align 1
   \                     ??WriteSDA1?relay:
   \   000000   12....       LCALL   ?BDISPATCH
   \   000003   ......       DC24    WriteSDA1

   \                                 In  segment BANK_RELAYS, align 1
   \                     ??WriteSDA0?relay:
   \   000000   12....       LCALL   ?BDISPATCH
   \   000003   ......       DC24    WriteSDA0

   \                                 In  segment BANK_RELAYS, align 1
   \                     ??WriteSCL1?relay:
   \   000000   12....       LCALL   ?BDISPATCH
   \   000003   ......       DC24    WriteSCL1

   \                                 In  segment BANK_RELAYS, align 1
   \                     ??WriteSCL0?relay:
   \   000000   12....       LCALL   ?BDISPATCH
   \   000003   ......       DC24    WriteSCL0

   \                                 In  segment BANK_RELAYS, align 1
   \                     ??ReadSDA?relay:
   \   000000   12....       LCALL   ?BDISPATCH
   \   000003   ......       DC24    ReadSDA

   \                                 In  segment BANK_RELAYS, align 1
   \                     ??BH1750_Start?relay:
   \   000000   12....       LCALL   ?BDISPATCH
   \   000003   ......       DC24    BH1750_Start

   \                                 In  segment BANK_RELAYS, align 1
   \                     ??BH1750_Stop?relay:
   \   000000   12....       LCALL   ?BDISPATCH
   \   000003   ......       DC24    BH1750_Stop

   \                                 In  segment BANK_RELAYS, align 1
   \                     ??BH1750_SendACK?relay:
   \   000000   12....       LCALL   ?BDISPATCH
   \   000003   ......       DC24    BH1750_SendACK

   \                                 In  segment BANK_RELAYS, align 1
   \                     ??BH1750_RecvACK?relay:
   \   000000   12....       LCALL   ?BDISPATCH
   \   000003   ......       DC24    BH1750_RecvACK

   \                                 In  segment BANK_RELAYS, align 1
   \                     ??SEND_0_1?relay:
   \   000000   12....       LCALL   ?BDISPATCH
   \   000003   ......       DC24    SEND_0_1

   \                                 In  segment BANK_RELAYS, align 1
   \                     ??SEND_1_1?relay:
   \   000000   12....       LCALL   ?BDISPATCH
   \   000003   ......       DC24    SEND_1_1

   \                                 In  segment BANK_RELAYS, align 1
   \                     ??BH1750_SendByte?relay:
   \   000000   12....       LCALL   ?BDISPATCH
   \   000003   ......       DC24    BH1750_SendByte

   \                                 In  segment BANK_RELAYS, align 1
   \                     ??BH1750_RecvByte?relay:
   \   000000   12....       LCALL   ?BDISPATCH
   \   000003   ......       DC24    BH1750_RecvByte

   \                                 In  segment BANK_RELAYS, align 1
   \                     ??Read_BH1750?relay:
   \   000000   12....       LCALL   ?BDISPATCH
   \   000003   ......       DC24    Read_BH1750

   \                                 In  segment BANK_RELAYS, align 1
   \                     ??Single_Write_BH1750?relay:
   \   000000   12....       LCALL   ?BDISPATCH
   \   000003   ......       DC24    Single_Write_BH1750

   \                                 In  segment BANK_RELAYS, align 1
   \                     ??Init_BH1750?relay:
   \   000000   12....       LCALL   ?BDISPATCH
   \   000003   ......       DC24    Init_BH1750

   \                                 In  segment BANK_RELAYS, align 1
   \                     ??conversion?relay:
   \   000000   12....       LCALL   ?BDISPATCH
   \   000003   ......       DC24    conversion

   \                                 In  segment BANK_RELAYS, align 1
   \                     ??LIGHT?relay:
   \   000000   12....       LCALL   ?BDISPATCH
   \   000003   ......       DC24    LIGHT

   Maximum stack usage in bytes:

     Function             ISTACK PSTACK XSTACK
     --------             ------ ------ ------
     BH1750_RecvACK           2      0     10
       -> WriteSCL1           4      0      0
       -> Delay_1u            4      0      0
       -> WriteSCL0           4      0      0
       -> Delay_1u            4      0      0
     BH1750_RecvByte          0      0     25
       -> WriteSCL0           0      0     18
       -> Delay_1u            0      0     18
       -> WriteSCL1           0      0     18
       -> Delay_1u            0      0     18
       -> WriteSCL0           0      0     18
       -> Delay_1u            0      0     18
     BH1750_SendACK           2      0     16
       -> WriteSDA1           4      0      0
       -> WriteSDA0           4      0      0
       -> Delay_1u            4      0      0
       -> WriteSCL1           4      0      0
       -> Delay_1u            4      0      0
       -> WriteSCL0           4      0      0
     BH1750_SendByte          0      0     26
       -> WriteSCL0           0      0     20
       -> SEND_1_1            0      0     20
       -> SEND_0_1            0      0     20
       -> BH1750_RecvACK      0      0     20
     BH1750_Start             2      0     16
       -> WriteSDA1           4      0      0
       -> WriteSCL1           4      0      0
       -> Delay_1u            4      0      0
       -> WriteSDA0           4      0      0
       -> Delay_1u            4      0      0
       -> WriteSCL0           4      0      0
       -> Delay_1u            4      0      0
     BH1750_Stop              2      0     16
       -> WriteSDA0           4      0      0
       -> WriteSCL1           4      0      0
       -> Delay_1u            4      0      0
       -> WriteSDA1           4      0      0
       -> Delay_1u            4      0      0
       -> WriteSCL0           4      0      0
       -> Delay_1u            4      0      0
     Delay_1ms                0      0     26
       -> Delay_1u            0      0     20
     Delay_1u                 0      0     10
     Init_BH1750              2      0      0
       -> BH1750_SendByte     4      0      0
     LIGHT                    0      0     12
       -> Delay_1ms           0      0     24
       -> BH1750_SendByte     0      0     24
       -> Read_BH1750         0      0     24
       -> conversion          0      0     24
       -> Delay_1ms           0      0     24
     ReadSDA                  0      0      0
     Read_BH1750              0      0     28
       -> BH1750_Start        0      0     32
       -> BH1750_SendByte     0      0     32
       -> BH1750_Start        0      0     32
       -> BH1750_SendByte     0      0     32
       -> BH1750_SendByte     0      0     32
       -> BH1750_SendByte     0      0     32
       -> BH1750_Stop         0      0     32
       -> Delay_1ms           0      0     32
       -> BH1750_Start        0      0     32
       -> BH1750_SendByte     0      0     32
       -> BH1750_Start        0      0     32
       -> BH1750_SendByte     0      0     32
       -> BH1750_SendByte     0      0     32
       -> BH1750_SendByte     0      0     32
       -> BH1750_Stop         0      0     32
       -> BH1750_Start        0      0     32
       -> BH1750_SendByte     0      0     32
       -> BH1750_Start        0      0     32
       -> BH1750_SendByte     0      0     32
       -> BH1750_SendByte     0      0     32
       -> BH1750_SendByte     0      0     32
       -> BH1750_Stop         0      0     32
       -> Delay_1ms           0      0     32
       -> BH1750_Start        0      0     32
       -> BH1750_SendByte     0      0     32
       -> BH1750_Start        0      0     32
       -> BH1750_SendByte     0      0     32
       -> BH1750_RecvByte     0      0     32
       -> BH1750_SendACK      0      0     32
       -> BH1750_RecvByte     0      0     32
       -> BH1750_SendACK      0      0     32
       -> BH1750_Stop         0      0     32
       -> Delay_1ms           0      0     32
     SEND_0_1                 2      0     10
       -> WriteSDA0           4      0      0
       -> Delay_1u            4      0      0
       -> WriteSCL1           4      0      0
       -> Delay_1u            4      0      0
       -> WriteSCL0           4      0      0
       -> Delay_1u            4      0      0
     SEND_1_1                 2      0     10
       -> WriteSDA1           4      0      0
       -> Delay_1u            4      0      0
       -> WriteSCL1           4      0      0
       -> Delay_1u            4      0      0
       -> WriteSCL0           4      0      0
       -> Delay_1u            4      0      0
     Single_Write_BH1750      0      0      9
       -> BH1750_Start        0      0     18
       -> BH1750_SendByte     0      0     18
       -> BH1750_SendByte     0      0     18
       -> BH1750_Stop         0      0     18
     WriteSCL0                0      0     10
     WriteSCL1                0      0      9
     WriteSDA0                0      0      0
     WriteSDA1                0      0      0
     conversion               0      0     22


   Segment part sizes:

     Function/Label              Bytes
     --------------              -----
     _A_P1                          1
     _A_PSW                         1
     P1DIR                          1
     ge                             1
     shi                            1
     bai                            1
     qian                           1
     wan                            1
     Light                          5
     Delay_1u                      55
     Delay_1ms                     39
     ?Subroutine8                   5
     WriteSDA1                      8
     WriteSDA0                      8
     WriteSCL1                      8
     WriteSCL0                      8
     ReadSDA                        6
     BH1750_Start                  15
     ?Subroutine1                   3
     ?Subroutine9                   8
     ?Subroutine7                   3
     ??Subroutine12_0               7
     ??Subroutine14_0               7
     ??Subroutine15_0               5
     BH1750_Stop                   15
     BH1750_SendACK                30
     BH1750_RecvACK                25
     ??Subroutine13_0               3
     ?Subroutine0                   7
     SEND_0_1                       7
     ?Subroutine11                  5
     SEND_1_1                       9
     BH1750_SendByte               50
     BH1750_RecvByte               46
     ?Subroutine10                  5
     Read_BH1750                  178
     ?Subroutine4                   9
     ?Subroutine2                   9
     ?Subroutine6                   6
     ?Subroutine3                   9
     Single_Write_BH1750           21
     Init_BH1750                   12
     conversion                   191
     ?Subroutine5                   6
     LIGHT                         61
     __Constant_3f99999a            4
     ??Delay_1u?relay               6
     ??Delay_1ms?relay              6
     ??WriteSDA1?relay              6
     ??WriteSDA0?relay              6
     ??WriteSCL1?relay              6
     ??WriteSCL0?relay              6
     ??ReadSDA?relay                6
     ??BH1750_Start?relay           6
     ??BH1750_Stop?relay            6
     ??BH1750_SendACK?relay         6
     ??BH1750_RecvACK?relay         6
     ??SEND_0_1?relay               6
     ??SEND_1_1?relay               6
     ??BH1750_SendByte?relay        6
     ??BH1750_RecvByte?relay        6
     ??Read_BH1750?relay            6
     ??Single_Write_BH1750?relay    6
     ??Init_BH1750?relay            6
     ??conversion?relay             6
     ??LIGHT?relay                  6

 
 889 bytes in segment BANKED_CODE
 120 bytes in segment BANK_RELAYS
   3 bytes in segment SFR_AN
   4 bytes in segment XDATA_ROM_C
  10 bytes in segment XDATA_Z
 
 1 009 bytes of CODE  memory
     0 bytes of CONST memory (+ 4 bytes shared)
     0 bytes of DATA  memory (+ 3 bytes shared)
    10 bytes of XDATA memory

Errors: none
Warnings: 2
