###############################################################################
#                                                                             #
# IAR C/C++ Compiler V7.51A/W32 for 8051                07/May/2015  10:56:18 #
# Copyright 2004-2009 IAR Systems AB.                                         #
#                                                                             #
#    Core               =  plain                                              #
#    Code model         =  banked                                             #
#    Data model         =  large                                              #
#    Calling convention =  xdata reentrant                                    #
#    Constant location  =  data_rom                                           #
#    Dptr setup         =  1,16                                               #
#    Source file        =  C:\Texas Instruments\ZStack-CC2530-2.3.0-1.4.0\Com #
#                          ponents\mac\low_level\srf04\mac_sleep.c            #
#    Command line       =  -f "C:\Texas Instruments\ZStack-CC2530-2.3.0-1.4.0 #
#                          \Projects\zstack\Samples\ParkingS\CC2530DB\..\..\. #
#                          .\Tools\CC2530DB\f8wEndev.cfg" (-DCPU32MHZ         #
#                          -DROOT=__near_func -DBLINK_LEDS) -f "C:\Texas      #
#                          Instruments\ZStack-CC2530-2.3.0-1.4.0\Projects\zst #
#                          ack\Samples\ParkingS\CC2530DB\..\..\..\Tools\CC253 #
#                          0DB\f8wConfig.cfg" (-DSECURE=0                     #
#                          -DZG_SECURE_DYNAMIC=0 -DREFLECTOR                  #
#                          -DDEFAULT_CHANLIST=0x00000800                      #
#                          -DZDAPP_CONFIG_PAN_ID=0xFFFF                       #
#                          -DNWK_START_DELAY=100 -DEXTENDED_JOINING_RANDOM_MA #
#                          SK=0x007F -DBEACON_REQUEST_DELAY=100               #
#                          -DBEACON_REQ_DELAY_MASK=0x00FF                     #
#                          -DROUTE_EXPIRY_TIME=30 -DAPSC_ACK_WAIT_DURATION_PO #
#                          LLED=3000 -DNWK_INDIRECT_MSG_TIMEOUT=7             #
#                          -DMAX_RREQ_ENTRIES=8 -DAPSC_MAX_FRAME_RETRIES=3    #
#                          -DNWK_MAX_DATA_RETRIES=2                           #
#                          -DMAX_POLL_FAILURE_RETRIES=2 -DMAX_BCAST=9         #
#                          -DAPS_MAX_GROUPS=16 -DMAX_RTG_ENTRIES=40           #
#                          -DNWK_MAX_BINDING_ENTRIES=4                        #
#                          -DMAX_BINDING_CLUSTER_IDS=4 "-DDEFAULT_KEY={0x01,  #
#                          0x03, 0x05, 0x07, 0x09, 0x0B, 0x0D, 0x0F, 0x00,    #
#                          0x02, 0x04, 0x06, 0x08, 0x0A, 0x0C, 0x0D}"         #
#                          -DMAC_MAX_FRAME_SIZE=116 "-DCONST=const __code"    #
#                          -DGENERIC=__generic -DRFD_RCVC_ALWAYS_ON=FALSE     #
#                          -DPOLL_RATE=1000 -DQUEUED_POLL_RATE=100            #
#                          -DRESPONSE_POLL_RATE=100) -DREJOIN_POLL_RATE=440   #
#                          "C:\Texas Instruments\ZStack-CC2530-2.3.0-1.4.0\Co #
#                          mponents\mac\low_level\srf04\mac_sleep.c" -D       #
#                          ZIGBEEPRO -D NWK_AUTO_POLL -D ZTOOL_P1 -D MT_TASK  #
#                          -D MT_SYS_FUNC -D MT_ZDO_FUNC -D                   #
#                          LCD_SUPPORTED=DEBUG -lC "C:\Texas                  #
#                          Instruments\ZStack-CC2530-2.3.0-1.4.0\Projects\zst #
#                          ack\Samples\ParkingS\CC2530DB\EndDeviceEB-Pro\List #
#                          \" -lA "C:\Texas Instruments\ZStack-CC2530-2.3.0-1 #
#                          .4.0\Projects\zstack\Samples\ParkingS\CC2530DB\End #
#                          DeviceEB-Pro\List\" --diag_suppress Pe001,Pa010    #
#                          -o "C:\Texas Instruments\ZStack-CC2530-2.3.0-1.4.0 #
#                          \Projects\zstack\Samples\ParkingS\CC2530DB\EndDevi #
#                          ceEB-Pro\Obj\" -e --require_prototypes --debug     #
#                          --core=plain --dptr=16,1 --data_model=large        #
#                          --code_model=banked --calling_convention=xdata_ree #
#                          ntrant --place_constants=data_rom                  #
#                          --nr_virtual_regs 16 -I "C:\Texas                  #
#                          Instruments\ZStack-CC2530-2.3.0-1.4.0\Projects\zst #
#                          ack\Samples\ParkingS\CC2530DB\" -I "C:\Texas       #
#                          Instruments\ZStack-CC2530-2.3.0-1.4.0\Projects\zst #
#                          ack\Samples\ParkingS\CC2530DB\..\SOURCE\" -I       #
#                          "C:\Texas Instruments\ZStack-CC2530-2.3.0-1.4.0\Pr #
#                          ojects\zstack\Samples\ParkingS\CC2530DB\..\..\..\Z #
#                          MAIN\TI2530DB\" -I "C:\Texas                       #
#                          Instruments\ZStack-CC2530-2.3.0-1.4.0\Projects\zst #
#                          ack\Samples\ParkingS\CC2530DB\..\..\..\..\..\COMPO #
#                          NENTS\MT\" -I "C:\Texas Instruments\ZStack-CC2530- #
#                          2.3.0-1.4.0\Projects\zstack\Samples\ParkingS\CC253 #
#                          0DB\..\..\..\..\..\COMPONENTS\HAL\INCLUDE\" -I     #
#                          "C:\Texas Instruments\ZStack-CC2530-2.3.0-1.4.0\Pr #
#                          ojects\zstack\Samples\ParkingS\CC2530DB\..\..\..\. #
#                          .\..\COMPONENTS\HAL\TARGET\CC2530EB\" -I           #
#                          "C:\Texas Instruments\ZStack-CC2530-2.3.0-1.4.0\Pr #
#                          ojects\zstack\Samples\ParkingS\CC2530DB\..\..\..\. #
#                          .\..\COMPONENTS\OSAL\MCU\CCSOC\" -I "C:\Texas      #
#                          Instruments\ZStack-CC2530-2.3.0-1.4.0\Projects\zst #
#                          ack\Samples\ParkingS\CC2530DB\..\..\..\..\..\COMPO #
#                          NENTS\OSAL\INCLUDE\" -I "C:\Texas                  #
#                          Instruments\ZStack-CC2530-2.3.0-1.4.0\Projects\zst #
#                          ack\Samples\ParkingS\CC2530DB\..\..\..\..\..\COMPO #
#                          NENTS\STACK\AF\" -I "C:\Texas                      #
#                          Instruments\ZStack-CC2530-2.3.0-1.4.0\Projects\zst #
#                          ack\Samples\ParkingS\CC2530DB\..\..\..\..\..\COMPO #
#                          NENTS\STACK\NWK\" -I "C:\Texas                     #
#                          Instruments\ZStack-CC2530-2.3.0-1.4.0\Projects\zst #
#                          ack\Samples\ParkingS\CC2530DB\..\..\..\..\..\COMPO #
#                          NENTS\STACK\SEC\" -I "C:\Texas                     #
#                          Instruments\ZStack-CC2530-2.3.0-1.4.0\Projects\zst #
#                          ack\Samples\ParkingS\CC2530DB\..\..\..\..\..\COMPO #
#                          NENTS\STACK\SAPI\" -I "C:\Texas                    #
#                          Instruments\ZStack-CC2530-2.3.0-1.4.0\Projects\zst #
#                          ack\Samples\ParkingS\CC2530DB\..\..\..\..\..\COMPO #
#                          NENTS\STACK\SYS\" -I "C:\Texas                     #
#                          Instruments\ZStack-CC2530-2.3.0-1.4.0\Projects\zst #
#                          ack\Samples\ParkingS\CC2530DB\..\..\..\..\..\COMPO #
#                          NENTS\STACK\ZDO\" -I "C:\Texas                     #
#                          Instruments\ZStack-CC2530-2.3.0-1.4.0\Projects\zst #
#                          ack\Samples\ParkingS\CC2530DB\..\..\..\..\..\COMPO #
#                          NENTS\ZMAC\F8W\" -I "C:\Texas                      #
#                          Instruments\ZStack-CC2530-2.3.0-1.4.0\Projects\zst #
#                          ack\Samples\ParkingS\CC2530DB\..\..\..\..\..\COMPO #
#                          NENTS\ZMAC\" -I "C:\Texas                          #
#                          Instruments\ZStack-CC2530-2.3.0-1.4.0\Projects\zst #
#                          ack\Samples\ParkingS\CC2530DB\..\..\..\..\..\COMPO #
#                          NENTS\SERVICES\SADDR\" -I "C:\Texas                #
#                          Instruments\ZStack-CC2530-2.3.0-1.4.0\Projects\zst #
#                          ack\Samples\ParkingS\CC2530DB\..\..\..\..\..\COMPO #
#                          NENTS\SERVICES\SDATA\" -I "C:\Texas                #
#                          Instruments\ZStack-CC2530-2.3.0-1.4.0\Projects\zst #
#                          ack\Samples\ParkingS\CC2530DB\..\..\..\..\..\COMPO #
#                          NENTS\MAC\INCLUDE\" -I "C:\Texas                   #
#                          Instruments\ZStack-CC2530-2.3.0-1.4.0\Projects\zst #
#                          ack\Samples\ParkingS\CC2530DB\..\..\..\..\..\COMPO #
#                          NENTS\MAC\HIGH_LEVEL\" -I "C:\Texas                #
#                          Instruments\ZStack-CC2530-2.3.0-1.4.0\Projects\zst #
#                          ack\Samples\ParkingS\CC2530DB\..\..\..\..\..\COMPO #
#                          NENTS\MAC\LOW_LEVEL\srf04\" -I "C:\Texas           #
#                          Instruments\ZStack-CC2530-2.3.0-1.4.0\Projects\zst #
#                          ack\Samples\ParkingS\CC2530DB\..\..\..\..\..\COMPO #
#                          NENTS\MAC\LOW_LEVEL\srf04\SINGLE_CHIP\" -I         #
#                          "C:\Program Files\IAR Systems\Embedded Workbench   #
#                          5.3\8051\INC\" -I "C:\Program Files\IAR            #
#                          Systems\Embedded Workbench 5.3\8051\INC\CLIB\"     #
#                          -Ohz                                               #
#    List file          =  C:\Texas Instruments\ZStack-CC2530-2.3.0-1.4.0\Pro #
#                          jects\zstack\Samples\ParkingS\CC2530DB\EndDeviceEB #
#                          -Pro\List\mac_sleep.lst                            #
#    Object file        =  C:\Texas Instruments\ZStack-CC2530-2.3.0-1.4.0\Pro #
#                          jects\zstack\Samples\ParkingS\CC2530DB\EndDeviceEB #
#                          -Pro\Obj\mac_sleep.r51                             #
#                                                                             #
#                                                                             #
###############################################################################

C:\Texas Instruments\ZStack-CC2530-2.3.0-1.4.0\Components\mac\low_level\srf04\mac_sleep.c
      1          /**************************************************************************************************
      2            Filename:       mac_sleep.c
      3            Revised:        $Date: 2007-10-29 19:11:44 -0700 (Mon, 29 Oct 2007) $
      4            Revision:       $Revision: 15810 $
      5          
      6            Description:    Describe the purpose and contents of the file.
      7          
      8          
      9            Copyright 2006-2009 Texas Instruments Incorporated. All rights reserved.
     10          
     11            IMPORTANT: Your use of this Software is limited to those specific rights
     12            granted under the terms of a software license agreement between the user
     13            who downloaded the software, his/her employer (which must be your employer)
     14            and Texas Instruments Incorporated (the "License").  You may not use this
     15            Software unless you agree to abide by the terms of the License. The License
     16            limits your use, and you acknowledge, that the Software may not be modified,
     17            copied or distributed unless embedded on a Texas Instruments microcontroller
     18            or used solely and exclusively in conjunction with a Texas Instruments radio
     19            frequency transceiver, which is integrated into your product.  Other than for
     20            the foregoing purpose, you may not use, reproduce, copy, prepare derivative
     21            works of, modify, distribute, perform, display or sell this Software and/or
     22            its documentation for any purpose.
     23          
     24            YOU FURTHER ACKNOWLEDGE AND AGREE THAT THE SOFTWARE AND DOCUMENTATION ARE
     25            PROVIDED “AS IS” WITHOUT WARRANTY OF ANY KIND, EITHER EXPRESS OR IMPLIED, 
     26            INCLUDING WITHOUT LIMITATION, ANY WARRANTY OF MERCHANTABILITY, TITLE, 
     27            NON-INFRINGEMENT AND FITNESS FOR A PARTICULAR PURPOSE. IN NO EVENT SHALL
     28            TEXAS INSTRUMENTS OR ITS LICENSORS BE LIABLE OR OBLIGATED UNDER CONTRACT,
     29            NEGLIGENCE, STRICT LIABILITY, CONTRIBUTION, BREACH OF WARRANTY, OR OTHER
     30            LEGAL EQUITABLE THEORY ANY DIRECT OR INDIRECT DAMAGES OR EXPENSES
     31            INCLUDING BUT NOT LIMITED TO ANY INCIDENTAL, SPECIAL, INDIRECT, PUNITIVE
     32            OR CONSEQUENTIAL DAMAGES, LOST PROFITS OR LOST DATA, COST OF PROCUREMENT
     33            OF SUBSTITUTE GOODS, TECHNOLOGY, SERVICES, OR ANY CLAIMS BY THIRD PARTIES
     34            (INCLUDING BUT NOT LIMITED TO ANY DEFENSE THEREOF), OR OTHER SIMILAR COSTS.
     35          
     36            Should you have any questions regarding your right to use this Software,
     37            contact Texas Instruments Incorporated at www.TI.com. 
     38          **************************************************************************************************/
     39          
     40          /* ------------------------------------------------------------------------------------------------
     41           *                                          Includes
     42           * ------------------------------------------------------------------------------------------------
     43           */
     44          
     45          /* hal */
     46          #include "hal_types.h"
     47          
     48          /* high-level */
     49          #include "mac_pib.h"
     50          
     51          /* exported low-level */
     52          #include "mac_low_level.h"
     53          
     54          /* low-level specific */
     55          #include "mac_sleep.h"
     56          #include "mac_radio.h"
     57          #include "mac_tx.h"
     58          #include "mac_rx.h"
     59          #include "mac_rx_onoff.h"
     60          
     61          /* target specific */
     62          #include "mac_radio_defs.h"

   \                                 In  segment SFR_AN, at 0x94
   \   unsigned char volatile __sfr T2CTRL
   \                     T2CTRL:
   \   000000                DS 1

   \                                 In  segment SFR_AN, at 0x9d
   \   unsigned char volatile __sfr SLEEPSTA
   \                     SLEEPSTA:
   \   000000                DS 1

   \                                 In  segment SFR_AN, at 0xa8
   \   union <unnamed> volatile __sfr _A_IEN0
   \                     _A_IEN0:
   \   000000                DS 1
     63          
     64          /* debug */
     65          #include "mac_assert.h"
     66          
     67          
     68          /* ------------------------------------------------------------------------------------------------
     69           *                                         Global Variables
     70           * ------------------------------------------------------------------------------------------------
     71           */

   \                                 In  segment XDATA_I, align 1, keep-with-next
     72          uint8 macSleepState = MAC_SLEEP_STATE_RADIO_OFF;
   \                     macSleepState:
   \   000000                DS 1
   \   000001                REQUIRE `?<Initializer for macSleepState>`
   \   000001                REQUIRE __INIT_XDATA_I
     73          
     74          
     75          /**************************************************************************************************
     76           * @fn          macSleepWakeUp
     77           *
     78           * @brief       Wake up the radio from sleep mode.
     79           *
     80           * @param       none
     81           *
     82           * @return      none
     83           **************************************************************************************************
     84           */

   \                                 In  segment BANKED_CODE, align 1, keep-with-next
     85          MAC_INTERNAL_API void macSleepWakeUp(void)
   \                     macSleepWakeUp:
     86          {
   \   000000   C082         PUSH    DPL
   \   000002   C083         PUSH    DPH
   \   000004                ; Saved register size: 2
   \   000004                ; Auto size: 0
     87            /* don't wake up radio if it's already awake */
     88            if (macSleepState == MAC_SLEEP_STATE_AWAKE)
   \   000004   90....       MOV     DPTR,#macSleepState
   \   000007   E0           MOVX    A,@DPTR
   \   000008   602F         JZ      ??macSleepWakeUp_0
     89            {
     90              return;
     91            }
     92          
     93            /* wake up MAC timer */
     94            MAC_RADIO_TIMER_WAKE_UP();
   \   00000A   439401       ORL     0x94,#0x1
   \                     ??macSleepWakeUp_1:
   \   00000D   E594         MOV     A,0x94
   \   00000F   A2E2         MOV     C,0xE0 /* A   */.2
   \   000011   50FA         JNC     ??macSleepWakeUp_1
     95          
     96            /* if radio was completely off, restore from that state first */
     97            if (macSleepState == MAC_SLEEP_STATE_RADIO_OFF)
   \   000013   E0           MOVX    A,@DPTR
   \   000014   6402         XRL     A,#0x2
   \   000016   7008         JNZ     ??macSleepWakeUp_2
     98            {
     99              /* turn on radio power (turns on oscillator too) */
    100              MAC_RADIO_TURN_ON_POWER();
   \   000018                ; Setup parameters for call to function macRadioTurnOnPower
   \   000018   12....       LCALL   ??macRadioTurnOnPower?relay
    101          
    102              /* power-up initialization of receive logic */
    103              macRxRadioPowerUpInit();
   \   00001B                ; Setup parameters for call to function macRxRadioPowerUpInit
   \   00001B   12....       LCALL   ??macRxRadioPowerUpInit?relay
   \   00001E   8011         SJMP    ??macSleepWakeUp_3
    104            }
    105            else
    106            {
    107              MAC_ASSERT(macSleepState == MAC_SLEEP_STATE_OSC_OFF);
   \                     ??macSleepWakeUp_2:
   \   000020   E0           MOVX    A,@DPTR
   \   000021   6401         XRL     A,#0x1
   \   000023   6003         JZ      ??macSleepWakeUp_4
   \   000025                ; Setup parameters for call to function halAssertHandler
   \   000025   12....       LCALL   ??halAssertHandler?relay
    108          
    109              /* turn on the oscillator */
    110              MAC_RADIO_TURN_ON_OSC();
   \                     ??macSleepWakeUp_4:
   \   000028   E59D         MOV     A,0x9d
   \   00002A   A2E6         MOV     C,0xE0 /* A   */.6
   \   00002C   4003         JC      ??macSleepWakeUp_3
   \   00002E                ; Setup parameters for call to function halAssertHandler
   \   00002E   12....       LCALL   ??halAssertHandler?relay
    111            }
    112          
    113            /* update sleep state here before requesting to turn on receiver */
    114            macSleepState = MAC_SLEEP_STATE_AWAKE;
   \                     ??macSleepWakeUp_3:
   \   000031   E4           CLR     A
   \   000032   90....       MOV     DPTR,#macSleepState
   \   000035   F0           MOVX    @DPTR,A
    115          
    116            /* turn on the receiver if enabled */
    117            macRxOnRequest();
   \   000036                ; Setup parameters for call to function macRxOnRequest
   \   000036   12....       LCALL   ??macRxOnRequest?relay
    118          }
   \                     ??macSleepWakeUp_0:
   \   000039   D083         POP     DPH
   \   00003B   D082         POP     DPL
   \   00003D   02....       LJMP    ?BRET
   \   000040                REQUIRE T2CTRL
   \   000040                REQUIRE SLEEPSTA
    119          
    120          
    121          /**************************************************************************************************
    122           * @fn          macSleep
    123           *
    124           * @brief       Puts radio into the selected sleep mode.
    125           *
    126           * @param       sleepState - selected sleep level, see #defines in .h file
    127           *
    128           * @return      TRUE if radio was successfully put into selected sleep mode.
    129           *              FALSE if it was not safe for radio to go to sleep.
    130           **************************************************************************************************
    131           */

   \                                 In  segment BANKED_CODE, align 1, keep-with-next
    132          MAC_INTERNAL_API uint8 macSleep(uint8 sleepState)
   \                     macSleep:
    133          {
   \   000000   74F7         MOV     A,#-0x9
   \   000002   12....       LCALL   ?BANKED_ENTER_XDATA
   \   000005                ; Saved register size: 9
   \   000005                ; Auto size: 0
   \   000005   E9           MOV     A,R1
   \   000006   FE           MOV     R6,A
    134            halIntState_t  s;
    135          
    136            /* disable interrupts until macSleepState can be set */
    137            HAL_ENTER_CRITICAL_SECTION(s);
   \   000007   A2AF         MOV     C,0xa8.7
   \   000009   E4           CLR     A
   \   00000A   92E0         MOV     0xE0 /* A   */.0,C
   \   00000C   FF           MOV     R7,A
   \   00000D   C2AF         CLR     0xa8.7
    138          
    139            /* assert checks */
    140            MAC_ASSERT(macSleepState == MAC_SLEEP_STATE_AWAKE); /* radio must be awake to put it to sleep */
   \   00000F   90....       MOV     DPTR,#macSleepState
   \   000012   E0           MOVX    A,@DPTR
   \   000013   6003         JZ      ??macSleep_0
   \   000015                ; Setup parameters for call to function halAssertHandler
   \   000015   12....       LCALL   ??halAssertHandler?relay
    141            MAC_ASSERT(macRxFilter == RX_FILTER_OFF); /* do not sleep when scanning or in promiscuous mode */
   \                     ??macSleep_0:
   \   000018   90....       MOV     DPTR,#macRxFilter
   \   00001B   E0           MOVX    A,@DPTR
   \   00001C   6003         JZ      ??macSleep_1
   \   00001E                ; Setup parameters for call to function halAssertHandler
   \   00001E   12....       LCALL   ??halAssertHandler?relay
    142          
    143            /* if either RX or TX is active or any RX enable flags are set, it's not OK to sleep */
    144            if (macRxActive || macRxOutgoingAckFlag || macTxActive || macRxEnableFlags)
   \                     ??macSleep_1:
   \   000021   90....       MOV     DPTR,#macRxActive
   \   000024   E0           MOVX    A,@DPTR
   \   000025   7012         JNZ     ??macSleep_2
   \   000027   90....       MOV     DPTR,#macRxOutgoingAckFlag
   \   00002A   E0           MOVX    A,@DPTR
   \   00002B   700C         JNZ     ??macSleep_2
   \   00002D   90....       MOV     DPTR,#macTxActive
   \   000030   E0           MOVX    A,@DPTR
   \   000031   7006         JNZ     ??macSleep_2
   \   000033   90....       MOV     DPTR,#macRxEnableFlags
   \   000036   E0           MOVX    A,@DPTR
   \   000037   6009         JZ      ??macSleep_3
    145            {
    146              HAL_EXIT_CRITICAL_SECTION(s);
   \                     ??macSleep_2:
   \   000039   EF           MOV     A,R7
   \   00003A   A2E0         MOV     C,0xE0 /* A   */.0
   \   00003C   92AF         MOV     0xa8.7,C
    147              return(FALSE);
   \   00003E   7900         MOV     R1,#0x0
   \   000040   8028         SJMP    ??macSleep_4
    148            }
    149          
    150            /* turn off the receiver */
    151            macRxOff();
   \                     ??macSleep_3:
   \   000042                ; Setup parameters for call to function macRxOff
   \   000042   12....       LCALL   ??macRxOff?relay
    152          
    153            /* update sleep state variable */
    154            macSleepState = sleepState;
   \   000045   EE           MOV     A,R6
   \   000046   90....       MOV     DPTR,#macSleepState
   \   000049   F0           MOVX    @DPTR,A
    155          
    156            /* macSleepState is now set, re-enable interrupts */
    157            HAL_EXIT_CRITICAL_SECTION(s);
   \   00004A   EF           MOV     A,R7
   \   00004B   A2E0         MOV     C,0xE0 /* A   */.0
   \   00004D   92AF         MOV     0xa8.7,C
    158          
    159            /* put MAC timer to sleep */
    160            MAC_RADIO_TIMER_SLEEP();
   \   00004F   5394FE       ANL     0x94,#0xfe
   \                     ??macSleep_5:
   \   000052   E594         MOV     A,0x94
   \   000054   A2E2         MOV     C,0xE0 /* A   */.2
   \   000056   40FA         JC      ??macSleep_5
    161          
    162            /* put radio in selected sleep mode */
    163            if (sleepState == MAC_SLEEP_STATE_OSC_OFF)
   \   000058   7401         MOV     A,#0x1
   \   00005A   6E           XRL     A,R6
   \   00005B   600B         JZ      ??macSleep_6
    164            {
    165              MAC_RADIO_TURN_OFF_OSC();
    166            }
    167            else
    168            {
    169              MAC_ASSERT(sleepState == MAC_SLEEP_STATE_RADIO_OFF); /* unknown sleep state */
   \   00005D   7402         MOV     A,#0x2
   \   00005F   6E           XRL     A,R6
   \   000060   6003         JZ      ??macSleep_7
   \   000062                ; Setup parameters for call to function halAssertHandler
   \   000062   12....       LCALL   ??halAssertHandler?relay
    170              MAC_RADIO_TURN_OFF_POWER();
   \                     ??macSleep_7:
   \   000065                ; Setup parameters for call to function macRadioTurnOffPower
   \   000065   12....       LCALL   ??macRadioTurnOffPower?relay
    171            }
    172          
    173            /* radio successfully entered sleep mode */
    174            return(TRUE);
   \                     ??macSleep_6:
   \   000068   7901         MOV     R1,#0x1
   \                     ??macSleep_4:
   \   00006A   7F01         MOV     R7,#0x1
   \   00006C   02....       LJMP    ?BANKED_LEAVE_XDATA
   \   00006F                REQUIRE T2CTRL
   \   00006F                REQUIRE _A_IEN0
    175          }

   \                                 In  segment XDATA_ID, align 1, keep-with-next
   \                     `?<Initializer for macSleepState>`:
   \   000000   02           DB 2

   \                                 In  segment BANK_RELAYS, align 1
   \                     ??macSleepWakeUp?relay:
   \   000000   12....       LCALL   ?BDISPATCH
   \   000003   ......       DC24    macSleepWakeUp

   \                                 In  segment BANK_RELAYS, align 1
   \                     ??macSleep?relay:
   \   000000   12....       LCALL   ?BDISPATCH
   \   000003   ......       DC24    macSleep
    176          
    177          
    178          
    179          /**************************************************************************************************
    180           *                                  Compile Time Integrity Checks
    181           **************************************************************************************************
    182           */
    183          #if ((MAC_SLEEP_STATE_AWAKE == MAC_SLEEP_STATE_OSC_OFF) ||  \
    184               (MAC_SLEEP_STATE_AWAKE == MAC_SLEEP_STATE_RADIO_OFF))
    185          #error "ERROR!  Non-unique state values."
    186          #endif
    187          
    188          
    189          /**************************************************************************************************
    190          */

   Maximum stack usage in bytes:

     Function                   ISTACK PSTACK XSTACK
     --------                   ------ ------ ------
     macSleep                       0      0      9
       -> halAssertHandler          0      0     18
       -> halAssertHandler          0      0     18
       -> macRxOff                  0      0     18
       -> halAssertHandler          0      0     18
       -> macRadioTurnOffPower      0      0     18
     macSleepWakeUp                 2      0      0
       -> macRadioTurnOnPower       4      0      0
       -> macRxRadioPowerUpInit     4      0      0
       -> halAssertHandler          4      0      0
       -> halAssertHandler          4      0      0
       -> macRxOnRequest            4      0      0


   Segment part sizes:

     Function/Label                   Bytes
     --------------                   -----
     T2CTRL                              1
     SLEEPSTA                            1
     _A_IEN0                             1
     macSleepState                       1
     macSleepWakeUp                     64
     macSleep                          111
     ?<Initializer for macSleepState>    1
     ??macSleepWakeUp?relay              6
     ??macSleep?relay                    6

 
 175 bytes in segment BANKED_CODE
  12 bytes in segment BANK_RELAYS
   3 bytes in segment SFR_AN
   1 byte  in segment XDATA_I
   1 byte  in segment XDATA_ID
 
 188 bytes of CODE  memory
   0 bytes of DATA  memory (+ 3 bytes shared)
   1 byte  of XDATA memory

Errors: none
Warnings: none
