///////////////////////////////////////////////////////////////////////////////
//                                                                            /
// IAR C/C++ Compiler V7.51A/W32 for 8051               07/May/2015  10:56:05 /
// Copyright 2004-2009 IAR Systems AB.                                        /
//                                                                            /
//    Core               =  plain                                             /
//    Code model         =  banked                                            /
//    Data model         =  large                                             /
//    Calling convention =  xdata reentrant                                   /
//    Constant location  =  data_rom                                          /
//    Dptr setup         =  1,16                                              /
//    Source file        =  C:\Texas Instruments\ZStack-CC2530-2.3.0-1.4.0\Co /
//                          mponents\mt\MT_AF.c                               /
//    Command line       =  -f "C:\Texas Instruments\ZStack-CC2530-2.3.0-1.4. /
//                          0\Projects\zstack\Samples\ParkingS\CC2530DB\..\.. /
//                          \..\Tools\CC2530DB\f8wEndev.cfg" (-DCPU32MHZ      /
//                          -DROOT=__near_func -DBLINK_LEDS) -f "C:\Texas     /
//                          Instruments\ZStack-CC2530-2.3.0-1.4.0\Projects\zs /
//                          tack\Samples\ParkingS\CC2530DB\..\..\..\Tools\CC2 /
//                          530DB\f8wConfig.cfg" (-DSECURE=0                  /
//                          -DZG_SECURE_DYNAMIC=0 -DREFLECTOR                 /
//                          -DDEFAULT_CHANLIST=0x00000800                     /
//                          -DZDAPP_CONFIG_PAN_ID=0xFFFF                      /
//                          -DNWK_START_DELAY=100 -DEXTENDED_JOINING_RANDOM_M /
//                          ASK=0x007F -DBEACON_REQUEST_DELAY=100             /
//                          -DBEACON_REQ_DELAY_MASK=0x00FF                    /
//                          -DROUTE_EXPIRY_TIME=30 -DAPSC_ACK_WAIT_DURATION_P /
//                          OLLED=3000 -DNWK_INDIRECT_MSG_TIMEOUT=7           /
//                          -DMAX_RREQ_ENTRIES=8 -DAPSC_MAX_FRAME_RETRIES=3   /
//                          -DNWK_MAX_DATA_RETRIES=2                          /
//                          -DMAX_POLL_FAILURE_RETRIES=2 -DMAX_BCAST=9        /
//                          -DAPS_MAX_GROUPS=16 -DMAX_RTG_ENTRIES=40          /
//                          -DNWK_MAX_BINDING_ENTRIES=4                       /
//                          -DMAX_BINDING_CLUSTER_IDS=4                       /
//                          "-DDEFAULT_KEY={0x01, 0x03, 0x05, 0x07, 0x09,     /
//                          0x0B, 0x0D, 0x0F, 0x00, 0x02, 0x04, 0x06, 0x08,   /
//                          0x0A, 0x0C, 0x0D}" -DMAC_MAX_FRAME_SIZE=116       /
//                          "-DCONST=const __code" -DGENERIC=__generic        /
//                          -DRFD_RCVC_ALWAYS_ON=FALSE -DPOLL_RATE=1000       /
//                          -DQUEUED_POLL_RATE=100 -DRESPONSE_POLL_RATE=100)  /
//                          -DREJOIN_POLL_RATE=440 "C:\Texas                  /
//                          Instruments\ZStack-CC2530-2.3.0-1.4.0\Components\ /
//                          mt\MT_AF.c" -D ZIGBEEPRO -D NWK_AUTO_POLL -D      /
//                          ZTOOL_P1 -D MT_TASK -D MT_SYS_FUNC -D             /
//                          MT_ZDO_FUNC -D LCD_SUPPORTED=DEBUG -lC "C:\Texas  /
//                          Instruments\ZStack-CC2530-2.3.0-1.4.0\Projects\zs /
//                          tack\Samples\ParkingS\CC2530DB\EndDeviceEB-Pro\Li /
//                          st\" -lA "C:\Texas Instruments\ZStack-CC2530-2.3. /
//                          0-1.4.0\Projects\zstack\Samples\ParkingS\CC2530DB /
//                          \EndDeviceEB-Pro\List\" --diag_suppress           /
//                          Pe001,Pa010 -o "C:\Texas                          /
//                          Instruments\ZStack-CC2530-2.3.0-1.4.0\Projects\zs /
//                          tack\Samples\ParkingS\CC2530DB\EndDeviceEB-Pro\Ob /
//                          j\" -e --require_prototypes --debug --core=plain  /
//                          --dptr=16,1 --data_model=large                    /
//                          --code_model=banked --calling_convention=xdata_re /
//                          entrant --place_constants=data_rom                /
//                          --nr_virtual_regs 16 -I "C:\Texas                 /
//                          Instruments\ZStack-CC2530-2.3.0-1.4.0\Projects\zs /
//                          tack\Samples\ParkingS\CC2530DB\" -I "C:\Texas     /
//                          Instruments\ZStack-CC2530-2.3.0-1.4.0\Projects\zs /
//                          tack\Samples\ParkingS\CC2530DB\..\SOURCE\" -I     /
//                          "C:\Texas Instruments\ZStack-CC2530-2.3.0-1.4.0\P /
//                          rojects\zstack\Samples\ParkingS\CC2530DB\..\..\.. /
//                          \ZMAIN\TI2530DB\" -I "C:\Texas                    /
//                          Instruments\ZStack-CC2530-2.3.0-1.4.0\Projects\zs /
//                          tack\Samples\ParkingS\CC2530DB\..\..\..\..\..\COM /
//                          PONENTS\MT\" -I "C:\Texas                         /
//                          Instruments\ZStack-CC2530-2.3.0-1.4.0\Projects\zs /
//                          tack\Samples\ParkingS\CC2530DB\..\..\..\..\..\COM /
//                          PONENTS\HAL\INCLUDE\" -I "C:\Texas                /
//                          Instruments\ZStack-CC2530-2.3.0-1.4.0\Projects\zs /
//                          tack\Samples\ParkingS\CC2530DB\..\..\..\..\..\COM /
//                          PONENTS\HAL\TARGET\CC2530EB\" -I "C:\Texas        /
//                          Instruments\ZStack-CC2530-2.3.0-1.4.0\Projects\zs /
//                          tack\Samples\ParkingS\CC2530DB\..\..\..\..\..\COM /
//                          PONENTS\OSAL\MCU\CCSOC\" -I "C:\Texas             /
//                          Instruments\ZStack-CC2530-2.3.0-1.4.0\Projects\zs /
//                          tack\Samples\ParkingS\CC2530DB\..\..\..\..\..\COM /
//                          PONENTS\OSAL\INCLUDE\" -I "C:\Texas               /
//                          Instruments\ZStack-CC2530-2.3.0-1.4.0\Projects\zs /
//                          tack\Samples\ParkingS\CC2530DB\..\..\..\..\..\COM /
//                          PONENTS\STACK\AF\" -I "C:\Texas                   /
//                          Instruments\ZStack-CC2530-2.3.0-1.4.0\Projects\zs /
//                          tack\Samples\ParkingS\CC2530DB\..\..\..\..\..\COM /
//                          PONENTS\STACK\NWK\" -I "C:\Texas                  /
//                          Instruments\ZStack-CC2530-2.3.0-1.4.0\Projects\zs /
//                          tack\Samples\ParkingS\CC2530DB\..\..\..\..\..\COM /
//                          PONENTS\STACK\SEC\" -I "C:\Texas                  /
//                          Instruments\ZStack-CC2530-2.3.0-1.4.0\Projects\zs /
//                          tack\Samples\ParkingS\CC2530DB\..\..\..\..\..\COM /
//                          PONENTS\STACK\SAPI\" -I "C:\Texas                 /
//                          Instruments\ZStack-CC2530-2.3.0-1.4.0\Projects\zs /
//                          tack\Samples\ParkingS\CC2530DB\..\..\..\..\..\COM /
//                          PONENTS\STACK\SYS\" -I "C:\Texas                  /
//                          Instruments\ZStack-CC2530-2.3.0-1.4.0\Projects\zs /
//                          tack\Samples\ParkingS\CC2530DB\..\..\..\..\..\COM /
//                          PONENTS\STACK\ZDO\" -I "C:\Texas                  /
//                          Instruments\ZStack-CC2530-2.3.0-1.4.0\Projects\zs /
//                          tack\Samples\ParkingS\CC2530DB\..\..\..\..\..\COM /
//                          PONENTS\ZMAC\F8W\" -I "C:\Texas                   /
//                          Instruments\ZStack-CC2530-2.3.0-1.4.0\Projects\zs /
//                          tack\Samples\ParkingS\CC2530DB\..\..\..\..\..\COM /
//                          PONENTS\ZMAC\" -I "C:\Texas                       /
//                          Instruments\ZStack-CC2530-2.3.0-1.4.0\Projects\zs /
//                          tack\Samples\ParkingS\CC2530DB\..\..\..\..\..\COM /
//                          PONENTS\SERVICES\SADDR\" -I "C:\Texas             /
//                          Instruments\ZStack-CC2530-2.3.0-1.4.0\Projects\zs /
//                          tack\Samples\ParkingS\CC2530DB\..\..\..\..\..\COM /
//                          PONENTS\SERVICES\SDATA\" -I "C:\Texas             /
//                          Instruments\ZStack-CC2530-2.3.0-1.4.0\Projects\zs /
//                          tack\Samples\ParkingS\CC2530DB\..\..\..\..\..\COM /
//                          PONENTS\MAC\INCLUDE\" -I "C:\Texas                /
//                          Instruments\ZStack-CC2530-2.3.0-1.4.0\Projects\zs /
//                          tack\Samples\ParkingS\CC2530DB\..\..\..\..\..\COM /
//                          PONENTS\MAC\HIGH_LEVEL\" -I "C:\Texas             /
//                          Instruments\ZStack-CC2530-2.3.0-1.4.0\Projects\zs /
//                          tack\Samples\ParkingS\CC2530DB\..\..\..\..\..\COM /
//                          PONENTS\MAC\LOW_LEVEL\srf04\" -I "C:\Texas        /
//                          Instruments\ZStack-CC2530-2.3.0-1.4.0\Projects\zs /
//                          tack\Samples\ParkingS\CC2530DB\..\..\..\..\..\COM /
//                          PONENTS\MAC\LOW_LEVEL\srf04\SINGLE_CHIP\" -I      /
//                          "C:\Program Files\IAR Systems\Embedded Workbench  /
//                          5.3\8051\INC\" -I "C:\Program Files\IAR           /
//                          Systems\Embedded Workbench 5.3\8051\INC\CLIB\"    /
//                          -Ohz                                              /
//    List file          =  C:\Texas Instruments\ZStack-CC2530-2.3.0-1.4.0\Pr /
//                          ojects\zstack\Samples\ParkingS\CC2530DB\EndDevice /
//                          EB-Pro\List\MT_AF.s51                             /
//                                                                            /
//                                                                            /
///////////////////////////////////////////////////////////////////////////////

        NAME MT_AF

        RTMODEL "__calling_convention", "xdata_reentrant"
        RTMODEL "__code_model", "banked"
        RTMODEL "__core", "plain"
        RTMODEL "__data_model", "large"
        RTMODEL "__dptr_size", "16"
        RTMODEL "__extended_stack", "disabled"
        RTMODEL "__location_for_constants", "data"
        RTMODEL "__number_of_dptrs", "1"
        RTMODEL "__rt_version", "1"

        RSEG DOVERLAY:DATA:NOROOT(0)
        RSEG IOVERLAY:IDATA:NOROOT(0)
        RSEG ISTACK:IDATA:NOROOT(0)
        RSEG PSTACK:XDATA:NOROOT(0)
        RSEG XSTACK:XDATA:NOROOT(0)

        EXTERN ??MT_AfDataRequest?relay
        EXTERN ??MT_AfDataRequestSrcRtg?relay
        EXTERN ??MT_AfRegister?relay
        EXTERN ?ALLOC_XSTACK8
        EXTERN ?BANKED_ENTER_XDATA
        EXTERN ?BANKED_LEAVE_XDATA
        EXTERN ?BDISPATCH
        EXTERN ?BRET
        EXTERN ?DEALLOC_XSTACK8
        EXTERN ?L_MOV_X
        EXTERN ?PUSH_XSTACK_I_ONE
        EXTERN ?PUSH_XSTACK_I_THREE
        EXTERN ?PUSH_XSTACK_I_TWO
        EXTERN ?UC_SWITCH_DENSE
        EXTERN ?UL_SHR
        EXTERN ?V0
        EXTERN ?XSP
        EXTERN ?XSTACK_DISP0_8

        PUBLIC ??MT_AfCommandProcessing?relay
        FUNCTION ??MT_AfCommandProcessing?relay,0203H
        PUBLIC ??MT_AfDataConfirm?relay
        FUNCTION ??MT_AfDataConfirm?relay,0203H
        PUBLIC ??MT_AfDataRequest?relay
        FUNCTION ??MT_AfDataRequest?relay,0203H
        PUBLIC ??MT_AfDataRequestSrcRtg?relay
        FUNCTION ??MT_AfDataRequestSrcRtg?relay,0203H
        PUBLIC ??MT_AfIncomingMsg?relay
        FUNCTION ??MT_AfIncomingMsg?relay,0203H
        PUBLIC ??MT_AfRegister?relay
        FUNCTION ??MT_AfRegister?relay,0203H
        PUBLIC MT_AfCommandProcessing
        FUNCTION MT_AfCommandProcessing,0a1203H
        ARGFRAME XSTACK, 0, STACK
        LOCFRAME XSTACK, 9, STACK
        PUBLIC MT_AfDataConfirm
        FUNCTION MT_AfDataConfirm,021203H
        ARGFRAME XSTACK, 0, STACK
        LOCFRAME ISTACK, 3, STACK
        LOCFRAME XSTACK, 3, STACK
        PUBLIC MT_AfDataRequest
        FUNCTION MT_AfDataRequest,021203H
        ARGFRAME XSTACK, 9, STACK
        ARGFRAME IOVERLAY, 0, STATIC
        ARGFRAME DOVERLAY, 0, STATIC
        LOCFRAME ISTACK, 1, STACK
        LOCFRAME XSTACK, 37, STACK
        PUBLIC MT_AfDataRequestSrcRtg
        FUNCTION MT_AfDataRequestSrcRtg,021203H
        ARGFRAME XSTACK, 9, STACK
        ARGFRAME IOVERLAY, 0, STATIC
        ARGFRAME DOVERLAY, 0, STATIC
        LOCFRAME ISTACK, 1, STACK
        LOCFRAME XSTACK, 48, STACK
        PUBLIC MT_AfIncomingMsg
        FUNCTION MT_AfIncomingMsg,021203H
        ARGFRAME XSTACK, 0, STACK
        LOCFRAME ISTACK, 1, STACK
        LOCFRAME XSTACK, 25, STACK
        PUBLIC MT_AfRegister
        FUNCTION MT_AfRegister,021203H
        ARGFRAME XSTACK, 9, STACK
        ARGFRAME IOVERLAY, 0, STATIC
        ARGFRAME DOVERLAY, 0, STATIC
        LOCFRAME ISTACK, 1, STACK
        LOCFRAME XSTACK, 15, STACK
        
        CFI Names cfiNames0
        CFI StackFrame CFA_SP SP IDATA
        CFI StackFrame CFA_PSP16 PSP16 XDATA
        CFI StackFrame CFA_XSP16 XSP16 XDATA
        CFI StaticOverlayFrame CFA_IOVERLAY IOVERLAY
        CFI StaticOverlayFrame CFA_DOVERLAY DOVERLAY
        CFI Resource `PSW.CY`:1, `B.BR0`:1, `B.BR1`:1, `B.BR2`:1, `B.BR3`:1
        CFI Resource `B.BR4`:1, `B.BR5`:1, `B.BR6`:1, `B.BR7`:1, `VB.BR8`:1
        CFI Resource `VB.BR9`:1, `VB.BR10`:1, `VB.BR11`:1, `VB.BR12`:1
        CFI Resource `VB.BR13`:1, `VB.BR14`:1, `VB.BR15`:1, VB:8, B:8, A:8
        CFI Resource PSW:8, DPL0:8, DPH0:8, R0:8, R1:8, R2:8, R3:8, R4:8, R5:8
        CFI Resource R6:8, R7:8, V0:8, V1:8, V2:8, V3:8, V4:8, V5:8, V6:8, V7:8
        CFI Resource V8:8, V9:8, V10:8, V11:8, V12:8, V13:8, V14:8, V15:8, SP:8
        CFI Resource PSPH:8, PSPL:8, PSP16:16, XSPH:8, XSPL:8, XSP16:16
        CFI VirtualResource ?RET:24
        CFI Resource ?BRET_EXT:8
        CFI VirtualResource ?RET_HIGH:8, ?RET_LOW:8
        CFI ResourceParts PSP16 PSPH, PSPL
        CFI ResourceParts XSP16 XSPH, XSPL
        CFI ResourceParts ?RET ?BRET_EXT, ?RET_HIGH, ?RET_LOW
        CFI EndNames cfiNames0
        
        CFI Common cfiCommon0 Using cfiNames0
        CFI CodeAlign 1
        CFI DataAlign -1
        CFI ReturnAddress ?RET CODE
        CFI CFA_DOVERLAY Used
        CFI CFA_IOVERLAY Used
        CFI CFA_SP SP+-3
        CFI CFA_PSP16 PSP16+0
        CFI CFA_XSP16 XSP16+0
        CFI `PSW.CY` SameValue
        CFI `B.BR0` SameValue
        CFI `B.BR1` SameValue
        CFI `B.BR2` SameValue
        CFI `B.BR3` SameValue
        CFI `B.BR4` SameValue
        CFI `B.BR5` SameValue
        CFI `B.BR6` SameValue
        CFI `B.BR7` SameValue
        CFI `VB.BR8` SameValue
        CFI `VB.BR9` SameValue
        CFI `VB.BR10` SameValue
        CFI `VB.BR11` SameValue
        CFI `VB.BR12` SameValue
        CFI `VB.BR13` SameValue
        CFI `VB.BR14` SameValue
        CFI `VB.BR15` SameValue
        CFI VB SameValue
        CFI B Undefined
        CFI A Undefined
        CFI PSW SameValue
        CFI DPL0 SameValue
        CFI DPH0 SameValue
        CFI R0 Undefined
        CFI R1 Undefined
        CFI R2 Undefined
        CFI R3 Undefined
        CFI R4 Undefined
        CFI R5 Undefined
        CFI R6 SameValue
        CFI R7 SameValue
        CFI V0 SameValue
        CFI V1 SameValue
        CFI V2 SameValue
        CFI V3 SameValue
        CFI V4 SameValue
        CFI V5 SameValue
        CFI V6 SameValue
        CFI V7 SameValue
        CFI V8 SameValue
        CFI V9 SameValue
        CFI V10 SameValue
        CFI V11 SameValue
        CFI V12 SameValue
        CFI V13 SameValue
        CFI V14 SameValue
        CFI V15 SameValue
        CFI PSPH Undefined
        CFI PSPL Undefined
        CFI XSPH Undefined
        CFI XSPL Undefined
        CFI ?RET Concat
        CFI ?BRET_EXT Frame(CFA_SP, 3)
        CFI ?RET_HIGH Frame(CFA_SP, 2)
        CFI ?RET_LOW Frame(CFA_SP, 1)
        CFI EndCommon cfiCommon0
        
        
        CFI Common cfiCommon1 Using cfiNames0
        CFI CodeAlign 1
        CFI DataAlign -1
        CFI ReturnAddress ?RET CODE
        CFI CFA_DOVERLAY Used
        CFI CFA_IOVERLAY Used
        CFI CFA_SP SP+-2
        CFI CFA_PSP16 PSP16+0
        CFI CFA_XSP16 XSP16+0
        CFI `PSW.CY` SameValue
        CFI `B.BR0` SameValue
        CFI `B.BR1` SameValue
        CFI `B.BR2` SameValue
        CFI `B.BR3` SameValue
        CFI `B.BR4` SameValue
        CFI `B.BR5` SameValue
        CFI `B.BR6` SameValue
        CFI `B.BR7` SameValue
        CFI `VB.BR8` SameValue
        CFI `VB.BR9` SameValue
        CFI `VB.BR10` SameValue
        CFI `VB.BR11` SameValue
        CFI `VB.BR12` SameValue
        CFI `VB.BR13` SameValue
        CFI `VB.BR14` SameValue
        CFI `VB.BR15` SameValue
        CFI VB SameValue
        CFI B SameValue
        CFI A SameValue
        CFI PSW SameValue
        CFI DPL0 SameValue
        CFI DPH0 SameValue
        CFI R0 SameValue
        CFI R1 SameValue
        CFI R2 SameValue
        CFI R3 SameValue
        CFI R4 SameValue
        CFI R5 SameValue
        CFI R6 SameValue
        CFI R7 SameValue
        CFI V0 SameValue
        CFI V1 SameValue
        CFI V2 SameValue
        CFI V3 SameValue
        CFI V4 SameValue
        CFI V5 SameValue
        CFI V6 SameValue
        CFI V7 SameValue
        CFI V8 SameValue
        CFI V9 SameValue
        CFI V10 SameValue
        CFI V11 SameValue
        CFI V12 SameValue
        CFI V13 SameValue
        CFI V14 SameValue
        CFI V15 SameValue
        CFI PSPH Undefined
        CFI PSPL Undefined
        CFI XSPH Undefined
        CFI XSPL Undefined
        CFI ?RET Concat
        CFI ?BRET_EXT SameValue
        CFI ?RET_HIGH Frame(CFA_SP, 2)
        CFI ?RET_LOW Frame(CFA_SP, 1)
        CFI EndCommon cfiCommon1
        
osal_mem_alloc      SYMBOL "osal_mem_alloc"
MT_BuildEndpointDesc SYMBOL "MT_BuildEndpointDesc"
afRegister          SYMBOL "afRegister"
osal_mem_free       SYMBOL "osal_mem_free"
MT_BuildAndSendZToolResponse SYMBOL "MT_BuildAndSendZToolResponse"
osal_memcpy         SYMBOL "osal_memcpy"
afFindEndPointDesc  SYMBOL "afFindEndPointDesc"
AF_DataRequest      SYMBOL "AF_DataRequest"
osal_memset         SYMBOL "osal_memset"
AF_DataRequestSrcRtg SYMBOL "AF_DataRequestSrcRtg"
??AF_DataRequest?relay SYMBOL "?relay", AF_DataRequest
??AF_DataRequestSrcRtg?relay SYMBOL "?relay", AF_DataRequestSrcRtg
??MT_BuildAndSendZToolResponse?relay SYMBOL "?relay", MT_BuildAndSendZToolResponse
??MT_BuildEndpointDesc?relay SYMBOL "?relay", MT_BuildEndpointDesc
??afFindEndPointDesc?relay SYMBOL "?relay", afFindEndPointDesc
??afRegister?relay  SYMBOL "?relay", afRegister
??osal_mem_alloc?relay SYMBOL "?relay", osal_mem_alloc
??osal_mem_free?relay SYMBOL "?relay", osal_mem_free
??osal_memcpy?relay SYMBOL "?relay", osal_memcpy
??osal_memset?relay SYMBOL "?relay", osal_memset
MT_AfCommandProcessing SYMBOL "MT_AfCommandProcessing"
??MT_AfCommandProcessing?relay SYMBOL "?relay", MT_AfCommandProcessing
MT_AfDataConfirm    SYMBOL "MT_AfDataConfirm"
??MT_AfDataConfirm?relay SYMBOL "?relay", MT_AfDataConfirm
MT_AfDataRequest    SYMBOL "MT_AfDataRequest"
??MT_AfDataRequest?relay SYMBOL "?relay", MT_AfDataRequest
MT_AfDataRequestSrcRtg SYMBOL "MT_AfDataRequestSrcRtg"
??MT_AfDataRequestSrcRtg?relay SYMBOL "?relay", MT_AfDataRequestSrcRtg
MT_AfIncomingMsg    SYMBOL "MT_AfIncomingMsg"
??MT_AfIncomingMsg?relay SYMBOL "?relay", MT_AfIncomingMsg
MT_AfRegister       SYMBOL "MT_AfRegister"
??MT_AfRegister?relay SYMBOL "?relay", MT_AfRegister

        EXTERN osal_mem_alloc
        FUNCTION osal_mem_alloc,0202H
        ARGFRAME ISTACK, 0, STACK
        ARGFRAME PSTACK, 0, STACK
        ARGFRAME XSTACK, 36, STACK
        ARGFRAME IOVERLAY, 0, STATIC
        ARGFRAME DOVERLAY, 0, STATIC
        EXTERN MT_BuildEndpointDesc
        FUNCTION MT_BuildEndpointDesc,0202H
        ARGFRAME ISTACK, 0, STACK
        ARGFRAME PSTACK, 0, STACK
        ARGFRAME XSTACK, 15, STACK
        ARGFRAME IOVERLAY, 0, STATIC
        ARGFRAME DOVERLAY, 0, STATIC
        EXTERN afRegister
        FUNCTION afRegister,0202H
        ARGFRAME ISTACK, 0, STACK
        ARGFRAME PSTACK, 0, STACK
        ARGFRAME XSTACK, 15, STACK
        ARGFRAME IOVERLAY, 0, STATIC
        ARGFRAME DOVERLAY, 0, STATIC
        EXTERN osal_mem_free
        FUNCTION osal_mem_free,0202H
        ARGFRAME ISTACK, 0, STACK
        ARGFRAME PSTACK, 0, STACK
        ARGFRAME XSTACK, 36, STACK
        ARGFRAME IOVERLAY, 0, STATIC
        ARGFRAME DOVERLAY, 0, STATIC
        EXTERN MT_BuildAndSendZToolResponse
        FUNCTION MT_BuildAndSendZToolResponse,0202H
        ARGFRAME ISTACK, 2, STACK
        ARGFRAME PSTACK, 0, STACK
        ARGFRAME XSTACK, 36, STACK
        ARGFRAME IOVERLAY, 0, STATIC
        ARGFRAME DOVERLAY, 0, STATIC
        EXTERN osal_memcpy
        FUNCTION osal_memcpy,0202H
        ARGFRAME ISTACK, 0, STACK
        ARGFRAME PSTACK, 0, STACK
        ARGFRAME XSTACK, 31, STACK
        ARGFRAME IOVERLAY, 0, STATIC
        ARGFRAME DOVERLAY, 0, STATIC
        EXTERN afFindEndPointDesc
        FUNCTION afFindEndPointDesc,0202H
        ARGFRAME ISTACK, 0, STACK
        ARGFRAME PSTACK, 0, STACK
        ARGFRAME XSTACK, 36, STACK
        ARGFRAME IOVERLAY, 0, STATIC
        ARGFRAME DOVERLAY, 0, STATIC
        EXTERN AF_DataRequest
        FUNCTION AF_DataRequest,0202H
        ARGFRAME ISTACK, 0, STACK
        ARGFRAME PSTACK, 0, STACK
        ARGFRAME XSTACK, 37, STACK
        ARGFRAME IOVERLAY, 0, STATIC
        ARGFRAME DOVERLAY, 0, STATIC
        EXTERN osal_memset
        FUNCTION osal_memset,0202H
        ARGFRAME ISTACK, 0, STACK
        ARGFRAME PSTACK, 0, STACK
        ARGFRAME XSTACK, 36, STACK
        ARGFRAME IOVERLAY, 0, STATIC
        ARGFRAME DOVERLAY, 0, STATIC
        EXTERN AF_DataRequestSrcRtg
        FUNCTION AF_DataRequestSrcRtg,0202H
        ARGFRAME ISTACK, 0, STACK
        ARGFRAME PSTACK, 0, STACK
        ARGFRAME XSTACK, 48, STACK
        ARGFRAME IOVERLAY, 0, STATIC
        ARGFRAME DOVERLAY, 0, STATIC
        EXTERN ??AF_DataRequest?relay
        FUNCTION ??AF_DataRequest?relay,00H
        EXTERN ??AF_DataRequestSrcRtg?relay
        FUNCTION ??AF_DataRequestSrcRtg?relay,00H
        EXTERN ??MT_BuildAndSendZToolResponse?relay
        FUNCTION ??MT_BuildAndSendZToolResponse?relay,00H
        EXTERN ??MT_BuildEndpointDesc?relay
        FUNCTION ??MT_BuildEndpointDesc?relay,00H
        EXTERN ??afFindEndPointDesc?relay
        FUNCTION ??afFindEndPointDesc?relay,00H
        EXTERN ??afRegister?relay
        FUNCTION ??afRegister?relay,00H
        EXTERN ??osal_mem_alloc?relay
        FUNCTION ??osal_mem_alloc?relay,00H
        EXTERN ??osal_mem_free?relay
        FUNCTION ??osal_mem_free?relay,00H
        EXTERN ??osal_memcpy?relay
        FUNCTION ??osal_memcpy?relay,00H
        EXTERN ??osal_memset?relay
        FUNCTION ??osal_memset?relay,00H
        EXTERN MT_TaskID

// C:\Texas Instruments\ZStack-CC2530-2.3.0-1.4.0\Components\mt\MT_AF.c
//    1 /**************************************************************************************************
//    2   Filename:       MT_AF.c
//    3   Revised:        $Date: 2010-01-08 16:52:37 -0800 (Fri, 08 Jan 2010) $
//    4   Revision:       $Revision: 21471 $
//    5 
//    6 
//    7   Description:    MonitorTest functions for the AF layer.
//    8 
//    9 
//   10   Copyright 2007-2010 Texas Instruments Incorporated. All rights reserved.
//   11 
//   12   IMPORTANT: Your use of this Software is limited to those specific rights
//   13   granted under the terms of a software license agreement between the user
//   14   who downloaded the software, his/her employer (which must be your employer)
//   15   and Texas Instruments Incorporated (the "License").  You may not use this
//   16   Software unless you agree to abide by the terms of the License. The License
//   17   limits your use, and you acknowledge, that the Software may not be modified,
//   18   copied or distributed unless embedded on a Texas Instruments microcontroller
//   19   or used solely and exclusively in conjunction with a Texas Instruments radio
//   20   frequency transceiver, which is integrated into your product.  Other than for
//   21   the foregoing purpose, you may not use, reproduce, copy, prepare derivative
//   22   works of, modify, distribute, perform, display or sell this Software and/or
//   23   its documentation for any purpose.
//   24 
//   25   YOU FURTHER ACKNOWLEDGE AND AGREE THAT THE SOFTWARE AND DOCUMENTATION ARE
//   26   PROVIDED “AS IS” WITHOUT WARRANTY OF ANY KIND, EITHER EXPRESS OR IMPLIED,
//   27   INCLUDING WITHOUT LIMITATION, ANY WARRANTY OF MERCHANTABILITY, TITLE,
//   28   NON-INFRINGEMENT AND FITNESS FOR A PARTICULAR PURPOSE. IN NO EVENT SHALL
//   29   TEXAS INSTRUMENTS OR ITS LICENSORS BE LIABLE OR OBLIGATED UNDER CONTRACT,
//   30   NEGLIGENCE, STRICT LIABILITY, CONTRIBUTION, BREACH OF WARRANTY, OR OTHER
//   31   LEGAL EQUITABLE THEORY ANY DIRECT OR INDIRECT DAMAGES OR EXPENSES
//   32   INCLUDING BUT NOT LIMITED TO ANY INCIDENTAL, SPECIAL, INDIRECT, PUNITIVE
//   33   OR CONSEQUENTIAL DAMAGES, LOST PROFITS OR LOST DATA, COST OF PROCUREMENT
//   34   OF SUBSTITUTE GOODS, TECHNOLOGY, SERVICES, OR ANY CLAIMS BY THIRD PARTIES
//   35   (INCLUDING BUT NOT LIMITED TO ANY DEFENSE THEREOF), OR OTHER SIMILAR COSTS.
//   36 
//   37   Should you have any questions regarding your right to use this Software,
//   38   contact Texas Instruments Incorporated at www.TI.com.
//   39 
//   40 **************************************************************************************************/
//   41 
//   42 /***************************************************************************************************
//   43  * INCLUDES
//   44  ***************************************************************************************************/
//   45 #include "ZComDef.h"
//   46 #include "OSAL.h"
//   47 #include "MT.h"
//   48 #include "MT_AF.h"
//   49 #include "MT_ZDO.h"
//   50 #include "nwk.h"
//   51 #include "OnBoard.h"
//   52 #include "MT_UART.h"
//   53 
//   54 #if defined INTER_PAN
//   55 #include "stub_aps.h"
//   56 #endif
//   57 
//   58 /***************************************************************************************************
//   59  * GLOBAL VARIABLES
//   60  ***************************************************************************************************/
//   61 
//   62 #if defined ( MT_AF_CB_FUNC )
//   63 uint16 _afCallbackSub;
//   64 #endif
//   65 
//   66 /***************************************************************************************************
//   67  * LOCAL FUNCTIONS
//   68  ***************************************************************************************************/
//   69 void MT_AfRegister(uint8 *pBuf);
//   70 void MT_AfDataRequest(uint8 *pBuf);
//   71 
//   72 #if defined ( ZIGBEE_SOURCE_ROUTING )
//   73 void MT_AfDataRequestSrcRtg(uint8 *pBuf);
//   74 #endif
//   75 
//   76 #if defined INTER_PAN
//   77 static void MT_AfInterPanCtl(uint8 *pBuf);
//   78 #endif
//   79 
//   80 /***************************************************************************************************
//   81  * @fn      MT_afCommandProcessing
//   82  *
//   83  * @brief   Process all the AF commands that are issued by test tool
//   84  *
//   85  * @param   pBuf - pointer to the received buffer
//   86  *
//   87  * @return  status
//   88  ***************************************************************************************************/

        RSEG BANKED_CODE:CODE:NOROOT(0)
//   89 uint8 MT_AfCommandProcessing(uint8 *pBuf)
MT_AfCommandProcessing:
        CFI Block cfiBlock0 Using cfiCommon0
        CFI Function MT_AfCommandProcessing
//   90 {
        FUNCALL MT_AfCommandProcessing, MT_AfRegister
        LOCFRAME ISTACK, 0, STACK
        LOCFRAME PSTACK, 0, STACK
        LOCFRAME XSTACK, 9, STACK
        LOCFRAME IOVERLAY, 0, STATIC
        LOCFRAME DOVERLAY, 0, STATIC
        ARGFRAME ISTACK, 0, STACK
        ARGFRAME PSTACK, 0, STACK
        ARGFRAME XSTACK, 9, STACK
        ARGFRAME IOVERLAY, 0, STATIC
        ARGFRAME DOVERLAY, 0, STATIC
        FUNCALL MT_AfCommandProcessing, MT_AfDataRequest
        LOCFRAME ISTACK, 0, STACK
        LOCFRAME PSTACK, 0, STACK
        LOCFRAME XSTACK, 9, STACK
        LOCFRAME IOVERLAY, 0, STATIC
        LOCFRAME DOVERLAY, 0, STATIC
        ARGFRAME ISTACK, 0, STACK
        ARGFRAME PSTACK, 0, STACK
        ARGFRAME XSTACK, 9, STACK
        ARGFRAME IOVERLAY, 0, STATIC
        ARGFRAME DOVERLAY, 0, STATIC
        FUNCALL MT_AfCommandProcessing, MT_AfDataRequestSrcRtg
        LOCFRAME ISTACK, 0, STACK
        LOCFRAME PSTACK, 0, STACK
        LOCFRAME XSTACK, 9, STACK
        LOCFRAME IOVERLAY, 0, STATIC
        LOCFRAME DOVERLAY, 0, STATIC
        ARGFRAME ISTACK, 0, STACK
        ARGFRAME PSTACK, 0, STACK
        ARGFRAME XSTACK, 9, STACK
        ARGFRAME IOVERLAY, 0, STATIC
        ARGFRAME DOVERLAY, 0, STATIC
        MOV     A,#-0x9
        LCALL   ?BANKED_ENTER_XDATA
        CFI DPH0 load(1, XDATA, add(CFA_XSP16, literal(-1)))
        CFI DPL0 load(1, XDATA, add(CFA_XSP16, literal(-2)))
        CFI ?BRET_EXT load(1, XDATA, add(CFA_XSP16, literal(-3)))
        CFI ?RET_HIGH load(1, XDATA, add(CFA_XSP16, literal(-4)))
        CFI ?RET_LOW load(1, XDATA, add(CFA_XSP16, literal(-5)))
        CFI R7 load(1, XDATA, add(CFA_XSP16, literal(-6)))
        CFI V0 load(1, XDATA, add(CFA_XSP16, literal(-7)))
        CFI VB load(1, XDATA, add(CFA_XSP16, literal(-8)))
        CFI R6 load(1, XDATA, add(CFA_XSP16, literal(-9)))
        CFI CFA_SP SP+0
        CFI CFA_XSP16 add(XSP16, 9)
        ; Saved register size: 9
        ; Auto size: 0
//   91   uint8 status = MT_RPC_SUCCESS;
        MOV     R6,#0x0
//   92 
//   93   switch (pBuf[MT_RPC_POS_CMD1])
        MOV     DPL,R2
        MOV     DPH,R3
        INC     DPTR
        INC     DPTR
        MOVX    A,@DPTR
        LCALL   ?UC_SWITCH_DENSE
`?<Jumptable for MT_AfCommandProcessing>_0`:
        DATA
        DB        0
        DB        3
        DW        ??MT_AfCommandProcessing_0
        DW        ??MT_AfCommandProcessing_1
        DW        ??MT_AfCommandProcessing_2
        DW        ??MT_AfCommandProcessing_2
        DW        ??MT_AfCommandProcessing_3
        CODE
//   94   {
//   95     case MT_AF_REGISTER:
//   96       MT_AfRegister(pBuf);
??MT_AfCommandProcessing_1:
        ; Setup parameters for call to function MT_AfRegister
        LCALL   ??MT_AfRegister?relay
        SJMP    ??MT_AfCommandProcessing_4
//   97       break;
//   98 
//   99     case MT_AF_DATA_REQUEST:
//  100     case MT_AF_DATA_REQUEST_EXT:
//  101       MT_AfDataRequest(pBuf);
??MT_AfCommandProcessing_2:
        ; Setup parameters for call to function MT_AfDataRequest
        LCALL   ??MT_AfDataRequest?relay
        SJMP    ??MT_AfCommandProcessing_4
//  102       break;
//  103       
//  104 #if defined ( ZIGBEE_SOURCE_ROUTING )
//  105     case MT_AF_DATA_REQUEST_SRCRTG:
//  106       MT_AfDataRequestSrcRtg(pBuf);
??MT_AfCommandProcessing_3:
        ; Setup parameters for call to function MT_AfDataRequestSrcRtg
        LCALL   ??MT_AfDataRequestSrcRtg?relay
        SJMP    ??MT_AfCommandProcessing_4
//  107       break;
//  108 #endif
//  109       
//  110 #if defined INTER_PAN
//  111     case MT_AF_INTER_PAN_CTL:
//  112       MT_AfInterPanCtl(pBuf);
//  113       break; 
//  114 #endif
//  115       
//  116     default:
//  117       status = MT_RPC_ERR_COMMAND_ID;
??MT_AfCommandProcessing_0:
        INC     R6
        INC     R6
//  118       break;
//  119   }
//  120 
//  121   return status;
??MT_AfCommandProcessing_4:
        MOV     A,R6
        MOV     R1,A
        MOV     R7,#0x1
        LJMP    ?BANKED_LEAVE_XDATA
        CFI EndBlock cfiBlock0
//  122 }
//  123 
//  124 /***************************************************************************************************
//  125  * @fn      MT_AfRegister
//  126  *
//  127  * @brief   Process AF Register command
//  128  *
//  129  * @param   pBuf - pointer to the received buffer
//  130  *
//  131  * @return  none
//  132  ***************************************************************************************************/

        RSEG BANKED_CODE:CODE:NOROOT(0)
//  133 void MT_AfRegister(uint8 *pBuf)
MT_AfRegister:
        CFI Block cfiBlock1 Using cfiCommon0
        CFI Function MT_AfRegister
//  134 {
        FUNCALL MT_AfRegister, osal_mem_alloc
        LOCFRAME ISTACK, 0, STACK
        LOCFRAME PSTACK, 0, STACK
        LOCFRAME XSTACK, 15, STACK
        LOCFRAME IOVERLAY, 0, STATIC
        LOCFRAME DOVERLAY, 0, STATIC
        ARGFRAME ISTACK, 0, STACK
        ARGFRAME PSTACK, 0, STACK
        ARGFRAME XSTACK, 15, STACK
        ARGFRAME IOVERLAY, 0, STATIC
        ARGFRAME DOVERLAY, 0, STATIC
        FUNCALL MT_AfRegister, MT_BuildEndpointDesc
        LOCFRAME ISTACK, 0, STACK
        LOCFRAME PSTACK, 0, STACK
        LOCFRAME XSTACK, 15, STACK
        LOCFRAME IOVERLAY, 0, STATIC
        LOCFRAME DOVERLAY, 0, STATIC
        ARGFRAME ISTACK, 0, STACK
        ARGFRAME PSTACK, 0, STACK
        ARGFRAME XSTACK, 15, STACK
        ARGFRAME IOVERLAY, 0, STATIC
        ARGFRAME DOVERLAY, 0, STATIC
        FUNCALL MT_AfRegister, afRegister
        LOCFRAME ISTACK, 0, STACK
        LOCFRAME PSTACK, 0, STACK
        LOCFRAME XSTACK, 15, STACK
        LOCFRAME IOVERLAY, 0, STATIC
        LOCFRAME DOVERLAY, 0, STATIC
        ARGFRAME ISTACK, 0, STACK
        ARGFRAME PSTACK, 0, STACK
        ARGFRAME XSTACK, 15, STACK
        ARGFRAME IOVERLAY, 0, STATIC
        ARGFRAME DOVERLAY, 0, STATIC
        FUNCALL MT_AfRegister, osal_mem_free
        LOCFRAME ISTACK, 0, STACK
        LOCFRAME PSTACK, 0, STACK
        LOCFRAME XSTACK, 15, STACK
        LOCFRAME IOVERLAY, 0, STATIC
        LOCFRAME DOVERLAY, 0, STATIC
        ARGFRAME ISTACK, 0, STACK
        ARGFRAME PSTACK, 0, STACK
        ARGFRAME XSTACK, 15, STACK
        ARGFRAME IOVERLAY, 0, STATIC
        ARGFRAME DOVERLAY, 0, STATIC
        FUNCALL MT_AfRegister, MT_BuildAndSendZToolResponse
        LOCFRAME ISTACK, 0, STACK
        LOCFRAME PSTACK, 0, STACK
        LOCFRAME XSTACK, 15, STACK
        LOCFRAME IOVERLAY, 0, STATIC
        LOCFRAME DOVERLAY, 0, STATIC
        ARGFRAME ISTACK, 0, STACK
        ARGFRAME PSTACK, 0, STACK
        ARGFRAME XSTACK, 15, STACK
        ARGFRAME IOVERLAY, 0, STATIC
        ARGFRAME DOVERLAY, 0, STATIC
        MOV     A,#-0xe
        LCALL   ?BANKED_ENTER_XDATA
        CFI DPH0 load(1, XDATA, add(CFA_XSP16, literal(-1)))
        CFI DPL0 load(1, XDATA, add(CFA_XSP16, literal(-2)))
        CFI ?BRET_EXT load(1, XDATA, add(CFA_XSP16, literal(-3)))
        CFI ?RET_HIGH load(1, XDATA, add(CFA_XSP16, literal(-4)))
        CFI ?RET_LOW load(1, XDATA, add(CFA_XSP16, literal(-5)))
        CFI R7 load(1, XDATA, add(CFA_XSP16, literal(-6)))
        CFI V5 load(1, XDATA, add(CFA_XSP16, literal(-7)))
        CFI V4 load(1, XDATA, add(CFA_XSP16, literal(-8)))
        CFI V3 load(1, XDATA, add(CFA_XSP16, literal(-9)))
        CFI V2 load(1, XDATA, add(CFA_XSP16, literal(-10)))
        CFI V1 load(1, XDATA, add(CFA_XSP16, literal(-11)))
        CFI V0 load(1, XDATA, add(CFA_XSP16, literal(-12)))
        CFI VB load(1, XDATA, add(CFA_XSP16, literal(-13)))
        CFI R6 load(1, XDATA, add(CFA_XSP16, literal(-14)))
        CFI CFA_SP SP+0
        CFI CFA_XSP16 add(XSP16, 14)
        ; Saved register size: 14
        ; Auto size: 1
        MOV     A,#-0x1
        LCALL   ?ALLOC_XSTACK8
        CFI CFA_XSP16 add(XSP16, 15)
        MOV     ?V0 + 0,R2
        MOV     ?V0 + 1,R3
//  135   uint8 cmdId;
//  136   uint8 retValue = ZMemError;
        MOV     A,#0x10
        LCALL   ?Subroutine12 & 0xFFFF
//  137   endPointDesc_t *epDesc;
//  138 
//  139   /* parse header */
//  140   cmdId = pBuf[MT_RPC_POS_CMD1];
??CrossCallReturnLabel_15:
        MOV     ?V0 + 2,A
//  141   pBuf += MT_RPC_FRAME_HDR_SZ;
//  142 
//  143   epDesc = (endPointDesc_t *)osal_mem_alloc(sizeof(endPointDesc_t));
        ; Setup parameters for call to function osal_mem_alloc
        MOV     R2,#0x6
        MOV     R3,#0x0
        LCALL   ??osal_mem_alloc?relay
        MOV     ?V0 + 4,R2
        MOV     ?V0 + 5,R3
        MOV     R6,?V0 + 4
        MOV     R7,?V0 + 5
//  144   if ( epDesc )
        MOV     A,R6
        JNZ     ??MT_AfRegister_0
        MOV     A,R7
??MT_AfRegister_0:
        JZ      ??MT_AfRegister_1
//  145   {
//  146     epDesc->task_id = &MT_TaskID;
        MOV     DPL,R6
        MOV     DPH,R7
        INC     DPTR
        MOV     A,#(MT_TaskID & 0xff)
        MOVX    @DPTR,A
        INC     DPTR
        MOV     A,#((MT_TaskID >> 8) & 0xff)
        MOVX    @DPTR,A
//  147     retValue = MT_BuildEndpointDesc( pBuf, epDesc );
        ; Setup parameters for call to function MT_BuildEndpointDesc
        MOV     A,R6
        MOV     R4,A
        MOV     A,R7
        MOV     R5,A
        MOV     A,?V0 + 0
        ADD     A,#0x3
        MOV     R2,A
        MOV     A,?V0 + 1
        ADDC    A,#0x0
        MOV     R3,A
        LCALL   ??MT_BuildEndpointDesc?relay
        MOV     A,R1
        MOV     DPL,?XSP + 0
        MOV     DPH,?XSP + 1
        MOVX    @DPTR,A
//  148     if ( retValue == ZSuccess )
        JNZ     ??MT_AfRegister_2
//  149     {
//  150       retValue = afRegister( epDesc );
        ; Setup parameters for call to function afRegister
        MOV     A,R6
        MOV     R2,A
        MOV     A,R7
        MOV     R3,A
        LCALL   ??afRegister?relay
        MOV     A,R1
        MOV     DPL,?XSP + 0
        MOV     DPH,?XSP + 1
        MOVX    @DPTR,A
//  151     }
//  152 
//  153     if ( retValue != ZSuccess )
??MT_AfRegister_2:
        MOVX    A,@DPTR
        JZ      ??MT_AfRegister_1
//  154     {
//  155       osal_mem_free( epDesc );
        ; Setup parameters for call to function osal_mem_free
        MOV     A,R6
        MOV     R2,A
        MOV     A,R7
        MOV     R3,A
        LCALL   ??osal_mem_free?relay
//  156     }
//  157   }
//  158 
//  159   /* Build and send back the response */
//  160   MT_BuildAndSendZToolResponse(((uint8)MT_RPC_CMD_SRSP | (uint8)MT_RPC_SYS_AF), cmdId, 1, &retValue);
??MT_AfRegister_1:
        ; Setup parameters for call to function MT_BuildAndSendZToolResponse
        MOV     DPL,?XSP + 0
        MOV     DPH,?XSP + 1
        MOV     R4,DPL
        MOV     R5,DPH
        MOV     R3,#0x1
        MOV     R2,?V0 + 2
        MOV     R1,#0x64
        LCALL   ??MT_BuildAndSendZToolResponse?relay
//  161 }
        MOV     A,#0x1
        CFI EndBlock cfiBlock1
        REQUIRE ?Subroutine21
        ; // Fall through to label ?Subroutine21

        RSEG BANKED_CODE:CODE:NOROOT(0)
?Subroutine21:
        CFI Block cfiBlock2 Using cfiCommon0
        CFI NoFunction
        CFI CFA_SP SP+0
        CFI CFA_XSP16 add(XSP16, 15)
        CFI VB load(1, XDATA, add(CFA_XSP16, literal(-13)))
        CFI DPL0 load(1, XDATA, add(CFA_XSP16, literal(-2)))
        CFI DPH0 load(1, XDATA, add(CFA_XSP16, literal(-1)))
        CFI R6 load(1, XDATA, add(CFA_XSP16, literal(-14)))
        CFI R7 load(1, XDATA, add(CFA_XSP16, literal(-6)))
        CFI V0 load(1, XDATA, add(CFA_XSP16, literal(-12)))
        CFI V1 load(1, XDATA, add(CFA_XSP16, literal(-11)))
        CFI V2 load(1, XDATA, add(CFA_XSP16, literal(-10)))
        CFI V3 load(1, XDATA, add(CFA_XSP16, literal(-9)))
        CFI V4 load(1, XDATA, add(CFA_XSP16, literal(-8)))
        CFI V5 load(1, XDATA, add(CFA_XSP16, literal(-7)))
        CFI ?BRET_EXT load(1, XDATA, add(CFA_XSP16, literal(-3)))
        CFI ?RET_HIGH load(1, XDATA, add(CFA_XSP16, literal(-4)))
        CFI ?RET_LOW load(1, XDATA, add(CFA_XSP16, literal(-5)))
        CFI Invalid
        LCALL   ?DEALLOC_XSTACK8
        CFI CFA_XSP16 add(XSP16, 14)
        CFI Valid
        MOV     R7,#0x6
        LJMP    ?BANKED_LEAVE_XDATA
        CFI EndBlock cfiBlock2
//  162 
//  163 /***************************************************************************************************
//  164  * @fn      MT_AfDataRequest
//  165  *
//  166  * @brief   Process AF Register command
//  167  *
//  168  * @param   pBuf - pointer to the received buffer
//  169  *
//  170  * @return  none
//  171  ***************************************************************************************************/

        RSEG BANKED_CODE:CODE:NOROOT(0)
//  172 void MT_AfDataRequest(uint8 *pBuf)
MT_AfDataRequest:
        CFI Block cfiBlock3 Using cfiCommon0
        CFI Function MT_AfDataRequest
//  173 {
        FUNCALL MT_AfDataRequest, osal_memcpy
        LOCFRAME ISTACK, 0, STACK
        LOCFRAME PSTACK, 0, STACK
        LOCFRAME XSTACK, 31, STACK
        LOCFRAME IOVERLAY, 0, STATIC
        LOCFRAME DOVERLAY, 0, STATIC
        ARGFRAME ISTACK, 0, STACK
        ARGFRAME PSTACK, 0, STACK
        ARGFRAME XSTACK, 31, STACK
        ARGFRAME IOVERLAY, 0, STATIC
        ARGFRAME DOVERLAY, 0, STATIC
        FUNCALL MT_AfDataRequest, afFindEndPointDesc
        LOCFRAME ISTACK, 0, STACK
        LOCFRAME PSTACK, 0, STACK
        LOCFRAME XSTACK, 28, STACK
        LOCFRAME IOVERLAY, 0, STATIC
        LOCFRAME DOVERLAY, 0, STATIC
        ARGFRAME ISTACK, 0, STACK
        ARGFRAME PSTACK, 0, STACK
        ARGFRAME XSTACK, 28, STACK
        ARGFRAME IOVERLAY, 0, STATIC
        ARGFRAME DOVERLAY, 0, STATIC
        FUNCALL MT_AfDataRequest, AF_DataRequest
        LOCFRAME ISTACK, 0, STACK
        LOCFRAME PSTACK, 0, STACK
        LOCFRAME XSTACK, 37, STACK
        LOCFRAME IOVERLAY, 0, STATIC
        LOCFRAME DOVERLAY, 0, STATIC
        ARGFRAME ISTACK, 0, STACK
        ARGFRAME PSTACK, 0, STACK
        ARGFRAME XSTACK, 37, STACK
        ARGFRAME IOVERLAY, 0, STATIC
        ARGFRAME DOVERLAY, 0, STATIC
        FUNCALL MT_AfDataRequest, MT_BuildAndSendZToolResponse
        LOCFRAME ISTACK, 0, STACK
        LOCFRAME PSTACK, 0, STACK
        LOCFRAME XSTACK, 28, STACK
        LOCFRAME IOVERLAY, 0, STATIC
        LOCFRAME DOVERLAY, 0, STATIC
        ARGFRAME ISTACK, 0, STACK
        ARGFRAME PSTACK, 0, STACK
        ARGFRAME XSTACK, 28, STACK
        ARGFRAME IOVERLAY, 0, STATIC
        ARGFRAME DOVERLAY, 0, STATIC
        MOV     A,#-0xe
        LCALL   ?BANKED_ENTER_XDATA
        CFI DPH0 load(1, XDATA, add(CFA_XSP16, literal(-1)))
        CFI DPL0 load(1, XDATA, add(CFA_XSP16, literal(-2)))
        CFI ?BRET_EXT load(1, XDATA, add(CFA_XSP16, literal(-3)))
        CFI ?RET_HIGH load(1, XDATA, add(CFA_XSP16, literal(-4)))
        CFI ?RET_LOW load(1, XDATA, add(CFA_XSP16, literal(-5)))
        CFI R7 load(1, XDATA, add(CFA_XSP16, literal(-6)))
        CFI V5 load(1, XDATA, add(CFA_XSP16, literal(-7)))
        CFI V4 load(1, XDATA, add(CFA_XSP16, literal(-8)))
        CFI V3 load(1, XDATA, add(CFA_XSP16, literal(-9)))
        CFI V2 load(1, XDATA, add(CFA_XSP16, literal(-10)))
        CFI V1 load(1, XDATA, add(CFA_XSP16, literal(-11)))
        CFI V0 load(1, XDATA, add(CFA_XSP16, literal(-12)))
        CFI VB load(1, XDATA, add(CFA_XSP16, literal(-13)))
        CFI R6 load(1, XDATA, add(CFA_XSP16, literal(-14)))
        CFI CFA_SP SP+0
        CFI CFA_XSP16 add(XSP16, 14)
        ; Saved register size: 14
        ; Auto size: 14
        MOV     A,#-0xe
        LCALL   ?ALLOC_XSTACK8
        CFI CFA_XSP16 add(XSP16, 28)
//  174   uint8 cmd0, cmd1, tempLen = 0;
//  175   uint8 retValue = ZFailure;
        MOV     A,#0x1
        MOV     DPL,?XSP + 0
        MOV     DPH,?XSP + 1
        LCALL   ?Subroutine13 & 0xFFFF
//  176   endPointDesc_t *epDesc;
//  177   byte transId;
//  178   afAddrType_t dstAddr;
//  179   cId_t cId;
//  180   byte txOpts, radius, srcEP;
//  181 
//  182   /* Parse header */
//  183   cmd0 = pBuf[MT_RPC_POS_CMD0];
??CrossCallReturnLabel_17:
        MOVX    A,@DPTR
        MOV     R6,A
//  184   cmd1 = pBuf[MT_RPC_POS_CMD1];
        MOV     DPL,R2
        MOV     DPH,R3
        INC     DPTR
        INC     DPTR
        MOVX    A,@DPTR
        MOV     R7,A
//  185   pBuf += MT_RPC_FRAME_HDR_SZ;
        MOV     A,R2
        ADD     A,#0x3
        MOV     ?V0 + 4,A
        MOV     A,R3
        LCALL   ?Subroutine18 & 0xFFFF
//  186 
//  187   if (cmd1 == MT_AF_DATA_REQUEST_EXT)
??CrossCallReturnLabel_31:
        INC     DPTR
        MOV     ?V0 + 0,DPL
        MOV     ?V0 + 1,DPH
        MOV     A,#0x2
        XRL     A,R7
        JNZ     ??MT_AfDataRequest_0
//  188   {
//  189     dstAddr.addrMode = (afAddrMode_t)*pBuf++;
        MOV     DPL,?V0 + 4
        MOV     DPH,?V0 + 5
        MOVX    A,@DPTR
        MOV     R2,A
        MOV     A,#0xa
        LCALL   ?XSTACK_DISP0_8
        MOV     A,R2
        MOVX    @DPTR,A
        MOV     ?V0 + 4,?V0 + 0
        MOV     ?V0 + 5,?V0 + 1
//  190 
//  191     if (dstAddr.addrMode == afAddr64Bit)
        MOV     A,#0x3
        XRL     A,R2
        JNZ     ??MT_AfDataRequest_1
//  192     {
//  193       (void)osal_memcpy(dstAddr.addr.extAddr, pBuf, Z_EXTADDR_LEN);
        ; Setup parameters for call to function osal_memcpy
        MOV     ?V0 + 2,#0x0
        MOV     R0,#?V0 + 0
        LCALL   ?PUSH_XSTACK_I_THREE
        CFI CFA_XSP16 add(XSP16, 31)
        MOV     R4,#0x8
        MOV     R5,#0x0
        MOV     A,#0x5
        LCALL   ?XSTACK_DISP0_8
        MOV     R2,DPL
        MOV     R3,DPH
        LCALL   ??osal_memcpy?relay
        MOV     A,#0x3
        LCALL   ?DEALLOC_XSTACK8
        CFI CFA_XSP16 add(XSP16, 28)
        SJMP    ??MT_AfDataRequest_2
//  194     }
//  195     else
//  196     {
//  197       dstAddr.addr.shortAddr = BUILD_UINT16(pBuf[0], pBuf[1]);
??MT_AfDataRequest_1:
        MOV     DPL,?V0 + 4
        MOV     DPH,?V0 + 5
        LCALL   ?Subroutine5 & 0xFFFF
//  198     }
??CrossCallReturnLabel_4:
        LCALL   ?XSTACK_DISP0_8
        MOV     A,R0
        MOVX    @DPTR,A
        INC     DPTR
        MOV     A,R1
        MOVX    @DPTR,A
//  199     pBuf += Z_EXTADDR_LEN;
??MT_AfDataRequest_2:
        MOV     A,?V0 + 4
        ADD     A,#0x8
        LCALL   ??Subroutine23_0 & 0xFFFF
//  200 
//  201     dstAddr.endPoint = *pBuf++;
??CrossCallReturnLabel_29:
        PUSH    A
        CFI CFA_SP SP+-1
        MOV     A,#0xb
        LCALL   ?XSTACK_DISP0_8
        POP     A
        CFI CFA_SP SP+0
        LCALL   ?Subroutine9 & 0xFFFF
//  202     dstAddr.panId = BUILD_UINT16(pBuf[0], pBuf[1]);
??CrossCallReturnLabel_8:
        LCALL   ?Subroutine15 & 0xFFFF
??CrossCallReturnLabel_20:
        MOV     R0,A
        MOV     A,#0xc
        LCALL   ?XSTACK_DISP0_8
        MOV     A,R0
        MOVX    @DPTR,A
        INC     DPTR
        MOV     A,R1
        MOVX    @DPTR,A
//  203     pBuf += 2;
        MOV     A,?V0 + 4
        ADD     A,#0x2
        MOV     ?V0 + 4,A
        MOV     A,?V0 + 5
        ADDC    A,#0x0
        MOV     ?V0 + 5,A
        SJMP    ??MT_AfDataRequest_3
//  204   }
//  205   else
//  206   {
//  207     /* Destination address */
//  208     dstAddr.addrMode = afAddr16Bit;
??MT_AfDataRequest_0:
        MOV     A,#0xa
        LCALL   ?XSTACK_DISP0_8
        MOV     A,#0x2
        MOVX    @DPTR,A
//  209     dstAddr.addr.shortAddr = BUILD_UINT16(pBuf[0], pBuf[1]);
        MOV     DPL,?V0 + 4
        MOV     DPH,?V0 + 5
        MOVX    A,@DPTR
        MOV     R2,A
        MOV     DPL,?V0 + 0
        MOV     DPH,?V0 + 1
        MOVX    A,@DPTR
        MOV     R1,A
        MOV     A,R2
        MOV     R0,A
        MOV     A,#0x2
        LCALL   ?XSTACK_DISP0_8
        MOV     A,R0
        MOVX    @DPTR,A
        INC     DPTR
        MOV     A,R1
        MOVX    @DPTR,A
//  210     pBuf += 2;
        LCALL   ?Subroutine7 & 0xFFFF
//  211 
//  212     /* Destination endpoint */
//  213     dstAddr.endPoint = *pBuf++;
??CrossCallReturnLabel_27:
        PUSH    A
        CFI CFA_SP SP+-1
        MOV     A,#0xb
        LCALL   ?XSTACK_DISP0_8
        POP     A
        CFI CFA_SP SP+0
        LCALL   ?Subroutine9 & 0xFFFF
//  214     dstAddr.panId = 0;
??CrossCallReturnLabel_9:
        MOV     A,#0xc
        LCALL   ?XSTACK_DISP0_8
        CLR     A
        MOVX    @DPTR,A
        INC     DPTR
        MOVX    @DPTR,A
//  215   }
//  216 
//  217   /* Source endpoint */
//  218   srcEP = *pBuf++;
??MT_AfDataRequest_3:
        MOV     DPL,?V0 + 4
        MOV     DPH,?V0 + 5
        MOVX    A,@DPTR
        MOV     R1,A
        INC     DPTR
        MOV     ?V0 + 4,DPL
        MOV     ?V0 + 5,DPH
//  219   epDesc = afFindEndPointDesc( srcEP );
        ; Setup parameters for call to function afFindEndPointDesc
        LCALL   ??afFindEndPointDesc?relay
        MOV     ?V0 + 0,R2
        MOV     ?V0 + 1,R3
        MOV     R4,?V0 + 0
        MOV     R5,?V0 + 1
//  220 
//  221   /* ClusterId */
//  222   cId = BUILD_UINT16(pBuf[0], pBuf[1]);
        MOV     DPL,?V0 + 4
        MOV     DPH,?V0 + 5
        LCALL   ?Subroutine2 & 0xFFFF
//  223   pBuf +=2;
??CrossCallReturnLabel_0:
        LCALL   ?Subroutine7 & 0xFFFF
//  224 
//  225   /* TransId */
//  226   transId = *pBuf++;
??CrossCallReturnLabel_28:
        PUSH    A
        CFI CFA_SP SP+-1
        MOV     A,#0x1
        LCALL   ?XSTACK_DISP0_8
        POP     A
        CFI CFA_SP SP+0
        LCALL   ?Subroutine17 & 0xFFFF
//  227 
//  228   /* TxOption */
//  229   txOpts = *pBuf++;
??CrossCallReturnLabel_23:
        MOVX    A,@DPTR
        MOV     R1,A
        INC     DPTR
//  230 
//  231   /* Radius */
//  232   radius = *pBuf++;
        MOVX    A,@DPTR
        MOV     R3,A
        INC     DPTR
//  233 
//  234   /* Length */
//  235   tempLen = *pBuf++;
        MOVX    A,@DPTR
        MOV     R2,A
        INC     DPTR
        MOV     ?V0 + 4,DPL
        MOV     ?V0 + 5,DPH
//  236 
//  237   if ( epDesc == NULL )
        MOV     A,R4
        JNZ     ??MT_AfDataRequest_4
        MOV     A,R5
??MT_AfDataRequest_4:
        JNZ     ??MT_AfDataRequest_5
//  238   {
//  239     retValue = afStatus_INVALID_PARAMETER;
        MOV     A,#0x2
        SJMP    ??MT_AfDataRequest_6
//  240   }
//  241   else
//  242   {
//  243     retValue = AF_DataRequest( &dstAddr, epDesc, cId, tempLen, pBuf, &transId, txOpts, radius );
??MT_AfDataRequest_5:
        ; Setup parameters for call to function AF_DataRequest
        MOV     A,R3
        MOV     ?V0 + 0,A
        MOV     R0,#?V0 + 0
        LCALL   ?PUSH_XSTACK_I_ONE
        CFI CFA_XSP16 add(XSP16, 29)
        MOV     A,#0x2
        LCALL   ?XSTACK_DISP0_8
        MOV     ?V0 + 0,DPL
        MOV     ?V0 + 1,DPH
        MOV     R0,#?V0 + 0
        LCALL   ?PUSH_XSTACK_I_TWO
        CFI CFA_XSP16 add(XSP16, 31)
        MOV     R0,#?V0 + 4
        LCALL   ?PUSH_XSTACK_I_TWO
        CFI CFA_XSP16 add(XSP16, 33)
        MOV     ?V0 + 0,R2
        MOV     ?V0 + 1,#0x0
        MOV     R0,#?V0 + 0
        LCALL   ?PUSH_XSTACK_I_TWO
        CFI CFA_XSP16 add(XSP16, 35)
        MOV     R0,#?V0 + 2
        LCALL   ?PUSH_XSTACK_I_TWO
        CFI CFA_XSP16 add(XSP16, 37)
        MOV     A,#0xb
        LCALL   ?XSTACK_DISP0_8
        MOV     R2,DPL
        MOV     R3,DPH
        LCALL   ??AF_DataRequest?relay
        MOV     A,#0x9
        LCALL   ?DEALLOC_XSTACK8
        CFI CFA_XSP16 add(XSP16, 28)
        MOV     A,R1
??MT_AfDataRequest_6:
        MOV     DPL,?XSP + 0
        MOV     DPH,?XSP + 1
        MOVX    @DPTR,A
//  244   }
//  245 
//  246   if (MT_RPC_CMD_SREQ == (cmd0 & MT_RPC_CMD_TYPE_MASK))
        MOV     A,#-0x20
        ANL     A,R6
        XRL     A,#0x20
        JNZ     ??MT_AfDataRequest_7
//  247   {
//  248     MT_BuildAndSendZToolResponse(((uint8)MT_RPC_CMD_SRSP|(uint8)MT_RPC_SYS_AF), cmd1, 1, &retValue);
        ; Setup parameters for call to function MT_BuildAndSendZToolResponse
        MOV     R4,DPL
        MOV     R5,DPH
        MOV     R3,#0x1
        MOV     A,R7
        MOV     R2,A
        MOV     R1,#0x64
        LCALL   ??MT_BuildAndSendZToolResponse?relay
//  249   }
//  250 }
??MT_AfDataRequest_7:
        MOV     A,#0xe
        LJMP    ?Subroutine21 & 0xFFFF
        CFI EndBlock cfiBlock3

        RSEG BANKED_CODE:CODE:NOROOT(0)
?Subroutine9:
        CFI Block cfiCond4 Using cfiCommon0
        CFI NoFunction
        CFI Conditional ??CrossCallReturnLabel_8
        CFI R6 load(1, XDATA, add(CFA_XSP16, literal(-14)))
        CFI VB load(1, XDATA, add(CFA_XSP16, literal(-13)))
        CFI V0 load(1, XDATA, add(CFA_XSP16, literal(-12)))
        CFI V1 load(1, XDATA, add(CFA_XSP16, literal(-11)))
        CFI V2 load(1, XDATA, add(CFA_XSP16, literal(-10)))
        CFI V3 load(1, XDATA, add(CFA_XSP16, literal(-9)))
        CFI V4 load(1, XDATA, add(CFA_XSP16, literal(-8)))
        CFI V5 load(1, XDATA, add(CFA_XSP16, literal(-7)))
        CFI R7 load(1, XDATA, add(CFA_XSP16, literal(-6)))
        CFI ?RET_LOW load(1, XDATA, add(CFA_XSP16, literal(-5)))
        CFI ?RET_HIGH load(1, XDATA, add(CFA_XSP16, literal(-4)))
        CFI ?BRET_EXT load(1, XDATA, add(CFA_XSP16, literal(-3)))
        CFI DPL0 load(1, XDATA, add(CFA_XSP16, literal(-2)))
        CFI DPH0 load(1, XDATA, add(CFA_XSP16, literal(-1)))
        CFI CFA_SP SP+0
        CFI CFA_XSP16 add(XSP16, 28)
        CFI Block cfiCond5 Using cfiCommon0
        CFI (cfiCond5) NoFunction
        CFI (cfiCond5) Conditional ??CrossCallReturnLabel_9
        CFI (cfiCond5) R6 load(1, XDATA, add(CFA_XSP16, literal(-14)))
        CFI (cfiCond5) VB load(1, XDATA, add(CFA_XSP16, literal(-13)))
        CFI (cfiCond5) V0 load(1, XDATA, add(CFA_XSP16, literal(-12)))
        CFI (cfiCond5) V1 load(1, XDATA, add(CFA_XSP16, literal(-11)))
        CFI (cfiCond5) V2 load(1, XDATA, add(CFA_XSP16, literal(-10)))
        CFI (cfiCond5) V3 load(1, XDATA, add(CFA_XSP16, literal(-9)))
        CFI (cfiCond5) V4 load(1, XDATA, add(CFA_XSP16, literal(-8)))
        CFI (cfiCond5) V5 load(1, XDATA, add(CFA_XSP16, literal(-7)))
        CFI (cfiCond5) R7 load(1, XDATA, add(CFA_XSP16, literal(-6)))
        CFI (cfiCond5) ?RET_LOW load(1, XDATA, add(CFA_XSP16, literal(-5)))
        CFI (cfiCond5) ?RET_HIGH load(1, XDATA, add(CFA_XSP16, literal(-4)))
        CFI (cfiCond5) ?BRET_EXT load(1, XDATA, add(CFA_XSP16, literal(-3)))
        CFI (cfiCond5) DPL0 load(1, XDATA, add(CFA_XSP16, literal(-2)))
        CFI (cfiCond5) DPH0 load(1, XDATA, add(CFA_XSP16, literal(-1)))
        CFI (cfiCond5) CFA_SP SP+0
        CFI (cfiCond5) CFA_XSP16 add(XSP16, 28)
        CFI Block cfiPicker6 Using cfiCommon1
        CFI (cfiPicker6) NoFunction
        CFI (cfiPicker6) Picker
        LCALL   ?Subroutine17 & 0xFFFF
??CrossCallReturnLabel_24:
        MOV     ?V0 + 4,DPL
        MOV     ?V0 + 5,DPH
        RET
        CFI EndBlock cfiCond4
        CFI EndBlock cfiCond5
        CFI EndBlock cfiPicker6

        RSEG BANKED_CODE:CODE:NOROOT(0)
?Subroutine17:
        CFI Block cfiCond7 Using cfiCommon0
        CFI NoFunction
        CFI Conditional ??CrossCallReturnLabel_23
        CFI R6 load(1, XDATA, add(CFA_XSP16, literal(-14)))
        CFI VB load(1, XDATA, add(CFA_XSP16, literal(-13)))
        CFI V0 load(1, XDATA, add(CFA_XSP16, literal(-12)))
        CFI V1 load(1, XDATA, add(CFA_XSP16, literal(-11)))
        CFI V2 load(1, XDATA, add(CFA_XSP16, literal(-10)))
        CFI V3 load(1, XDATA, add(CFA_XSP16, literal(-9)))
        CFI V4 load(1, XDATA, add(CFA_XSP16, literal(-8)))
        CFI V5 load(1, XDATA, add(CFA_XSP16, literal(-7)))
        CFI R7 load(1, XDATA, add(CFA_XSP16, literal(-6)))
        CFI ?RET_LOW load(1, XDATA, add(CFA_XSP16, literal(-5)))
        CFI ?RET_HIGH load(1, XDATA, add(CFA_XSP16, literal(-4)))
        CFI ?BRET_EXT load(1, XDATA, add(CFA_XSP16, literal(-3)))
        CFI DPL0 load(1, XDATA, add(CFA_XSP16, literal(-2)))
        CFI DPH0 load(1, XDATA, add(CFA_XSP16, literal(-1)))
        CFI CFA_SP SP+0
        CFI CFA_XSP16 add(XSP16, 28)
        CFI Block cfiCond8 Using cfiCommon0
        CFI (cfiCond8) NoFunction
        CFI (cfiCond8) Conditional ??CrossCallReturnLabel_24, ??CrossCallReturnLabel_8
        CFI (cfiCond8) R6 load(1, XDATA, add(CFA_XSP16, literal(-14)))
        CFI (cfiCond8) VB load(1, XDATA, add(CFA_XSP16, literal(-13)))
        CFI (cfiCond8) V0 load(1, XDATA, add(CFA_XSP16, literal(-12)))
        CFI (cfiCond8) V1 load(1, XDATA, add(CFA_XSP16, literal(-11)))
        CFI (cfiCond8) V2 load(1, XDATA, add(CFA_XSP16, literal(-10)))
        CFI (cfiCond8) V3 load(1, XDATA, add(CFA_XSP16, literal(-9)))
        CFI (cfiCond8) V4 load(1, XDATA, add(CFA_XSP16, literal(-8)))
        CFI (cfiCond8) V5 load(1, XDATA, add(CFA_XSP16, literal(-7)))
        CFI (cfiCond8) R7 load(1, XDATA, add(CFA_XSP16, literal(-6)))
        CFI (cfiCond8) ?RET_LOW load(1, XDATA, add(CFA_XSP16, literal(-5)))
        CFI (cfiCond8) ?RET_HIGH load(1, XDATA, add(CFA_XSP16, literal(-4)))
        CFI (cfiCond8) ?BRET_EXT load(1, XDATA, add(CFA_XSP16, literal(-3)))
        CFI (cfiCond8) DPL0 load(1, XDATA, add(CFA_XSP16, literal(-2)))
        CFI (cfiCond8) DPH0 load(1, XDATA, add(CFA_XSP16, literal(-1)))
        CFI (cfiCond8) CFA_SP SP+0
        CFI (cfiCond8) CFA_XSP16 add(XSP16, 28)
        CFI Block cfiCond9 Using cfiCommon0
        CFI (cfiCond9) NoFunction
        CFI (cfiCond9) Conditional ??CrossCallReturnLabel_24, ??CrossCallReturnLabel_9
        CFI (cfiCond9) R6 load(1, XDATA, add(CFA_XSP16, literal(-14)))
        CFI (cfiCond9) VB load(1, XDATA, add(CFA_XSP16, literal(-13)))
        CFI (cfiCond9) V0 load(1, XDATA, add(CFA_XSP16, literal(-12)))
        CFI (cfiCond9) V1 load(1, XDATA, add(CFA_XSP16, literal(-11)))
        CFI (cfiCond9) V2 load(1, XDATA, add(CFA_XSP16, literal(-10)))
        CFI (cfiCond9) V3 load(1, XDATA, add(CFA_XSP16, literal(-9)))
        CFI (cfiCond9) V4 load(1, XDATA, add(CFA_XSP16, literal(-8)))
        CFI (cfiCond9) V5 load(1, XDATA, add(CFA_XSP16, literal(-7)))
        CFI (cfiCond9) R7 load(1, XDATA, add(CFA_XSP16, literal(-6)))
        CFI (cfiCond9) ?RET_LOW load(1, XDATA, add(CFA_XSP16, literal(-5)))
        CFI (cfiCond9) ?RET_HIGH load(1, XDATA, add(CFA_XSP16, literal(-4)))
        CFI (cfiCond9) ?BRET_EXT load(1, XDATA, add(CFA_XSP16, literal(-3)))
        CFI (cfiCond9) DPL0 load(1, XDATA, add(CFA_XSP16, literal(-2)))
        CFI (cfiCond9) DPH0 load(1, XDATA, add(CFA_XSP16, literal(-1)))
        CFI (cfiCond9) CFA_SP SP+0
        CFI (cfiCond9) CFA_XSP16 add(XSP16, 28)
        CFI Block cfiPicker10 Using cfiCommon1
        CFI (cfiPicker10) NoFunction
        CFI (cfiPicker10) Picker
        MOVX    @DPTR,A
        MOV     DPL,?V0 + 4
        MOV     DPH,?V0 + 5
        INC     DPTR
        RET
        CFI EndBlock cfiCond7
        CFI EndBlock cfiCond8
        CFI EndBlock cfiCond9
        CFI EndBlock cfiPicker10

        RSEG BANKED_CODE:CODE:NOROOT(0)
?Subroutine7:
        CFI Block cfiCond11 Using cfiCommon0
        CFI NoFunction
        CFI Conditional ??CrossCallReturnLabel_27
        CFI R6 load(1, XDATA, add(CFA_XSP16, literal(-14)))
        CFI VB load(1, XDATA, add(CFA_XSP16, literal(-13)))
        CFI V0 load(1, XDATA, add(CFA_XSP16, literal(-12)))
        CFI V1 load(1, XDATA, add(CFA_XSP16, literal(-11)))
        CFI V2 load(1, XDATA, add(CFA_XSP16, literal(-10)))
        CFI V3 load(1, XDATA, add(CFA_XSP16, literal(-9)))
        CFI V4 load(1, XDATA, add(CFA_XSP16, literal(-8)))
        CFI V5 load(1, XDATA, add(CFA_XSP16, literal(-7)))
        CFI R7 load(1, XDATA, add(CFA_XSP16, literal(-6)))
        CFI ?RET_LOW load(1, XDATA, add(CFA_XSP16, literal(-5)))
        CFI ?RET_HIGH load(1, XDATA, add(CFA_XSP16, literal(-4)))
        CFI ?BRET_EXT load(1, XDATA, add(CFA_XSP16, literal(-3)))
        CFI DPL0 load(1, XDATA, add(CFA_XSP16, literal(-2)))
        CFI DPH0 load(1, XDATA, add(CFA_XSP16, literal(-1)))
        CFI CFA_SP SP+0
        CFI CFA_XSP16 add(XSP16, 28)
        CFI Block cfiCond12 Using cfiCommon0
        CFI (cfiCond12) NoFunction
        CFI (cfiCond12) Conditional ??CrossCallReturnLabel_28
        CFI (cfiCond12) R6 load(1, XDATA, add(CFA_XSP16, literal(-14)))
        CFI (cfiCond12) VB load(1, XDATA, add(CFA_XSP16, literal(-13)))
        CFI (cfiCond12) V0 load(1, XDATA, add(CFA_XSP16, literal(-12)))
        CFI (cfiCond12) V1 load(1, XDATA, add(CFA_XSP16, literal(-11)))
        CFI (cfiCond12) V2 load(1, XDATA, add(CFA_XSP16, literal(-10)))
        CFI (cfiCond12) V3 load(1, XDATA, add(CFA_XSP16, literal(-9)))
        CFI (cfiCond12) V4 load(1, XDATA, add(CFA_XSP16, literal(-8)))
        CFI (cfiCond12) V5 load(1, XDATA, add(CFA_XSP16, literal(-7)))
        CFI (cfiCond12) R7 load(1, XDATA, add(CFA_XSP16, literal(-6)))
        CFI (cfiCond12) ?RET_LOW load(1, XDATA, add(CFA_XSP16, literal(-5)))
        CFI (cfiCond12) ?RET_HIGH load(1, XDATA, add(CFA_XSP16, literal(-4)))
        CFI (cfiCond12) ?BRET_EXT load(1, XDATA, add(CFA_XSP16, literal(-3)))
        CFI (cfiCond12) DPL0 load(1, XDATA, add(CFA_XSP16, literal(-2)))
        CFI (cfiCond12) DPH0 load(1, XDATA, add(CFA_XSP16, literal(-1)))
        CFI (cfiCond12) CFA_SP SP+0
        CFI (cfiCond12) CFA_XSP16 add(XSP16, 28)
        CFI Block cfiPicker13 Using cfiCommon1
        CFI (cfiPicker13) NoFunction
        CFI (cfiPicker13) Picker
        MOV     A,?V0 + 4
        ADD     A,#0x2
        CFI EndBlock cfiCond11
        CFI EndBlock cfiCond12
        CFI EndBlock cfiPicker13
        REQUIRE ??Subroutine23_0
        ; // Fall through to label ??Subroutine23_0

        RSEG BANKED_CODE:CODE:NOROOT(0)
??Subroutine23_0:
        CFI Block cfiCond14 Using cfiCommon0
        CFI NoFunction
        CFI Conditional ??CrossCallReturnLabel_29
        CFI R6 load(1, XDATA, add(CFA_XSP16, literal(-14)))
        CFI VB load(1, XDATA, add(CFA_XSP16, literal(-13)))
        CFI V0 load(1, XDATA, add(CFA_XSP16, literal(-12)))
        CFI V1 load(1, XDATA, add(CFA_XSP16, literal(-11)))
        CFI V2 load(1, XDATA, add(CFA_XSP16, literal(-10)))
        CFI V3 load(1, XDATA, add(CFA_XSP16, literal(-9)))
        CFI V4 load(1, XDATA, add(CFA_XSP16, literal(-8)))
        CFI V5 load(1, XDATA, add(CFA_XSP16, literal(-7)))
        CFI R7 load(1, XDATA, add(CFA_XSP16, literal(-6)))
        CFI ?RET_LOW load(1, XDATA, add(CFA_XSP16, literal(-5)))
        CFI ?RET_HIGH load(1, XDATA, add(CFA_XSP16, literal(-4)))
        CFI ?BRET_EXT load(1, XDATA, add(CFA_XSP16, literal(-3)))
        CFI DPL0 load(1, XDATA, add(CFA_XSP16, literal(-2)))
        CFI DPH0 load(1, XDATA, add(CFA_XSP16, literal(-1)))
        CFI CFA_SP SP+0
        CFI CFA_XSP16 add(XSP16, 28)
        CFI Block cfiCond15 Using cfiCommon0
        CFI (cfiCond15) NoFunction
        CFI (cfiCond15) Conditional ??CrossCallReturnLabel_27
        CFI (cfiCond15) R6 load(1, XDATA, add(CFA_XSP16, literal(-14)))
        CFI (cfiCond15) VB load(1, XDATA, add(CFA_XSP16, literal(-13)))
        CFI (cfiCond15) V0 load(1, XDATA, add(CFA_XSP16, literal(-12)))
        CFI (cfiCond15) V1 load(1, XDATA, add(CFA_XSP16, literal(-11)))
        CFI (cfiCond15) V2 load(1, XDATA, add(CFA_XSP16, literal(-10)))
        CFI (cfiCond15) V3 load(1, XDATA, add(CFA_XSP16, literal(-9)))
        CFI (cfiCond15) V4 load(1, XDATA, add(CFA_XSP16, literal(-8)))
        CFI (cfiCond15) V5 load(1, XDATA, add(CFA_XSP16, literal(-7)))
        CFI (cfiCond15) R7 load(1, XDATA, add(CFA_XSP16, literal(-6)))
        CFI (cfiCond15) ?RET_LOW load(1, XDATA, add(CFA_XSP16, literal(-5)))
        CFI (cfiCond15) ?RET_HIGH load(1, XDATA, add(CFA_XSP16, literal(-4)))
        CFI (cfiCond15) ?BRET_EXT load(1, XDATA, add(CFA_XSP16, literal(-3)))
        CFI (cfiCond15) DPL0 load(1, XDATA, add(CFA_XSP16, literal(-2)))
        CFI (cfiCond15) DPH0 load(1, XDATA, add(CFA_XSP16, literal(-1)))
        CFI (cfiCond15) CFA_SP SP+0
        CFI (cfiCond15) CFA_XSP16 add(XSP16, 28)
        CFI Block cfiCond16 Using cfiCommon0
        CFI (cfiCond16) NoFunction
        CFI (cfiCond16) Conditional ??CrossCallReturnLabel_28
        CFI (cfiCond16) R6 load(1, XDATA, add(CFA_XSP16, literal(-14)))
        CFI (cfiCond16) VB load(1, XDATA, add(CFA_XSP16, literal(-13)))
        CFI (cfiCond16) V0 load(1, XDATA, add(CFA_XSP16, literal(-12)))
        CFI (cfiCond16) V1 load(1, XDATA, add(CFA_XSP16, literal(-11)))
        CFI (cfiCond16) V2 load(1, XDATA, add(CFA_XSP16, literal(-10)))
        CFI (cfiCond16) V3 load(1, XDATA, add(CFA_XSP16, literal(-9)))
        CFI (cfiCond16) V4 load(1, XDATA, add(CFA_XSP16, literal(-8)))
        CFI (cfiCond16) V5 load(1, XDATA, add(CFA_XSP16, literal(-7)))
        CFI (cfiCond16) R7 load(1, XDATA, add(CFA_XSP16, literal(-6)))
        CFI (cfiCond16) ?RET_LOW load(1, XDATA, add(CFA_XSP16, literal(-5)))
        CFI (cfiCond16) ?RET_HIGH load(1, XDATA, add(CFA_XSP16, literal(-4)))
        CFI (cfiCond16) ?BRET_EXT load(1, XDATA, add(CFA_XSP16, literal(-3)))
        CFI (cfiCond16) DPL0 load(1, XDATA, add(CFA_XSP16, literal(-2)))
        CFI (cfiCond16) DPH0 load(1, XDATA, add(CFA_XSP16, literal(-1)))
        CFI (cfiCond16) CFA_SP SP+0
        CFI (cfiCond16) CFA_XSP16 add(XSP16, 28)
        CFI Block cfiPicker17 Using cfiCommon1
        CFI (cfiPicker17) NoFunction
        CFI (cfiPicker17) Picker
        MOV     ?V0 + 4,A
        MOV     A,?V0 + 5
        CFI EndBlock cfiCond14
        CFI EndBlock cfiCond15
        CFI EndBlock cfiCond16
        CFI EndBlock cfiPicker17
        REQUIRE ??Subroutine24_0
        ; // Fall through to label ??Subroutine24_0

        RSEG BANKED_CODE:CODE:NOROOT(0)
??Subroutine24_0:
        CFI Block cfiCond18 Using cfiCommon0
        CFI NoFunction
        CFI Conditional ??CrossCallReturnLabel_30
        CFI R6 load(1, XDATA, add(CFA_XSP16, literal(-22)))
        CFI VB load(1, XDATA, add(CFA_XSP16, literal(-21)))
        CFI V0 load(1, XDATA, add(CFA_XSP16, literal(-20)))
        CFI V1 load(1, XDATA, add(CFA_XSP16, literal(-19)))
        CFI V2 load(1, XDATA, add(CFA_XSP16, literal(-18)))
        CFI V3 load(1, XDATA, add(CFA_XSP16, literal(-17)))
        CFI V4 load(1, XDATA, add(CFA_XSP16, literal(-16)))
        CFI V5 load(1, XDATA, add(CFA_XSP16, literal(-15)))
        CFI V6 load(1, XDATA, add(CFA_XSP16, literal(-14)))
        CFI V7 load(1, XDATA, add(CFA_XSP16, literal(-13)))
        CFI V8 load(1, XDATA, add(CFA_XSP16, literal(-12)))
        CFI V9 load(1, XDATA, add(CFA_XSP16, literal(-11)))
        CFI V10 load(1, XDATA, add(CFA_XSP16, literal(-10)))
        CFI V11 load(1, XDATA, add(CFA_XSP16, literal(-9)))
        CFI V12 load(1, XDATA, add(CFA_XSP16, literal(-8)))
        CFI V13 load(1, XDATA, add(CFA_XSP16, literal(-7)))
        CFI R7 load(1, XDATA, add(CFA_XSP16, literal(-6)))
        CFI ?RET_LOW load(1, XDATA, add(CFA_XSP16, literal(-5)))
        CFI ?RET_HIGH load(1, XDATA, add(CFA_XSP16, literal(-4)))
        CFI ?BRET_EXT load(1, XDATA, add(CFA_XSP16, literal(-3)))
        CFI DPL0 load(1, XDATA, add(CFA_XSP16, literal(-2)))
        CFI DPH0 load(1, XDATA, add(CFA_XSP16, literal(-1)))
        CFI CFA_SP SP+0
        CFI CFA_XSP16 add(XSP16, 22)
        CFI Block cfiCond19 Using cfiCommon0
        CFI (cfiCond19) NoFunction
        CFI (cfiCond19) Conditional ??CrossCallReturnLabel_29
        CFI (cfiCond19) R6 load(1, XDATA, add(CFA_XSP16, literal(-14)))
        CFI (cfiCond19) VB load(1, XDATA, add(CFA_XSP16, literal(-13)))
        CFI (cfiCond19) V0 load(1, XDATA, add(CFA_XSP16, literal(-12)))
        CFI (cfiCond19) V1 load(1, XDATA, add(CFA_XSP16, literal(-11)))
        CFI (cfiCond19) V2 load(1, XDATA, add(CFA_XSP16, literal(-10)))
        CFI (cfiCond19) V3 load(1, XDATA, add(CFA_XSP16, literal(-9)))
        CFI (cfiCond19) V4 load(1, XDATA, add(CFA_XSP16, literal(-8)))
        CFI (cfiCond19) V5 load(1, XDATA, add(CFA_XSP16, literal(-7)))
        CFI (cfiCond19) R7 load(1, XDATA, add(CFA_XSP16, literal(-6)))
        CFI (cfiCond19) ?RET_LOW load(1, XDATA, add(CFA_XSP16, literal(-5)))
        CFI (cfiCond19) ?RET_HIGH load(1, XDATA, add(CFA_XSP16, literal(-4)))
        CFI (cfiCond19) ?BRET_EXT load(1, XDATA, add(CFA_XSP16, literal(-3)))
        CFI (cfiCond19) DPL0 load(1, XDATA, add(CFA_XSP16, literal(-2)))
        CFI (cfiCond19) DPH0 load(1, XDATA, add(CFA_XSP16, literal(-1)))
        CFI (cfiCond19) CFA_SP SP+0
        CFI (cfiCond19) CFA_XSP16 add(XSP16, 28)
        CFI Block cfiCond20 Using cfiCommon0
        CFI (cfiCond20) NoFunction
        CFI (cfiCond20) Conditional ??CrossCallReturnLabel_27
        CFI (cfiCond20) R6 load(1, XDATA, add(CFA_XSP16, literal(-14)))
        CFI (cfiCond20) VB load(1, XDATA, add(CFA_XSP16, literal(-13)))
        CFI (cfiCond20) V0 load(1, XDATA, add(CFA_XSP16, literal(-12)))
        CFI (cfiCond20) V1 load(1, XDATA, add(CFA_XSP16, literal(-11)))
        CFI (cfiCond20) V2 load(1, XDATA, add(CFA_XSP16, literal(-10)))
        CFI (cfiCond20) V3 load(1, XDATA, add(CFA_XSP16, literal(-9)))
        CFI (cfiCond20) V4 load(1, XDATA, add(CFA_XSP16, literal(-8)))
        CFI (cfiCond20) V5 load(1, XDATA, add(CFA_XSP16, literal(-7)))
        CFI (cfiCond20) R7 load(1, XDATA, add(CFA_XSP16, literal(-6)))
        CFI (cfiCond20) ?RET_LOW load(1, XDATA, add(CFA_XSP16, literal(-5)))
        CFI (cfiCond20) ?RET_HIGH load(1, XDATA, add(CFA_XSP16, literal(-4)))
        CFI (cfiCond20) ?BRET_EXT load(1, XDATA, add(CFA_XSP16, literal(-3)))
        CFI (cfiCond20) DPL0 load(1, XDATA, add(CFA_XSP16, literal(-2)))
        CFI (cfiCond20) DPH0 load(1, XDATA, add(CFA_XSP16, literal(-1)))
        CFI (cfiCond20) CFA_SP SP+0
        CFI (cfiCond20) CFA_XSP16 add(XSP16, 28)
        CFI Block cfiCond21 Using cfiCommon0
        CFI (cfiCond21) NoFunction
        CFI (cfiCond21) Conditional ??CrossCallReturnLabel_28
        CFI (cfiCond21) R6 load(1, XDATA, add(CFA_XSP16, literal(-14)))
        CFI (cfiCond21) VB load(1, XDATA, add(CFA_XSP16, literal(-13)))
        CFI (cfiCond21) V0 load(1, XDATA, add(CFA_XSP16, literal(-12)))
        CFI (cfiCond21) V1 load(1, XDATA, add(CFA_XSP16, literal(-11)))
        CFI (cfiCond21) V2 load(1, XDATA, add(CFA_XSP16, literal(-10)))
        CFI (cfiCond21) V3 load(1, XDATA, add(CFA_XSP16, literal(-9)))
        CFI (cfiCond21) V4 load(1, XDATA, add(CFA_XSP16, literal(-8)))
        CFI (cfiCond21) V5 load(1, XDATA, add(CFA_XSP16, literal(-7)))
        CFI (cfiCond21) R7 load(1, XDATA, add(CFA_XSP16, literal(-6)))
        CFI (cfiCond21) ?RET_LOW load(1, XDATA, add(CFA_XSP16, literal(-5)))
        CFI (cfiCond21) ?RET_HIGH load(1, XDATA, add(CFA_XSP16, literal(-4)))
        CFI (cfiCond21) ?BRET_EXT load(1, XDATA, add(CFA_XSP16, literal(-3)))
        CFI (cfiCond21) DPL0 load(1, XDATA, add(CFA_XSP16, literal(-2)))
        CFI (cfiCond21) DPH0 load(1, XDATA, add(CFA_XSP16, literal(-1)))
        CFI (cfiCond21) CFA_SP SP+0
        CFI (cfiCond21) CFA_XSP16 add(XSP16, 28)
        CFI Block cfiPicker22 Using cfiCommon1
        CFI (cfiPicker22) NoFunction
        CFI (cfiPicker22) Picker
        LCALL   ?Subroutine18 & 0xFFFF
??CrossCallReturnLabel_32:
        MOVX    A,@DPTR
        RET
        CFI EndBlock cfiCond18
        CFI EndBlock cfiCond19
        CFI EndBlock cfiCond20
        CFI EndBlock cfiCond21
        CFI EndBlock cfiPicker22

        RSEG BANKED_CODE:CODE:NOROOT(0)
?Subroutine18:
        CFI Block cfiCond23 Using cfiCommon0
        CFI NoFunction
        CFI Conditional ??CrossCallReturnLabel_31
        CFI R6 load(1, XDATA, add(CFA_XSP16, literal(-14)))
        CFI VB load(1, XDATA, add(CFA_XSP16, literal(-13)))
        CFI V0 load(1, XDATA, add(CFA_XSP16, literal(-12)))
        CFI V1 load(1, XDATA, add(CFA_XSP16, literal(-11)))
        CFI V2 load(1, XDATA, add(CFA_XSP16, literal(-10)))
        CFI V3 load(1, XDATA, add(CFA_XSP16, literal(-9)))
        CFI V4 load(1, XDATA, add(CFA_XSP16, literal(-8)))
        CFI V5 load(1, XDATA, add(CFA_XSP16, literal(-7)))
        CFI R7 load(1, XDATA, add(CFA_XSP16, literal(-6)))
        CFI ?RET_LOW load(1, XDATA, add(CFA_XSP16, literal(-5)))
        CFI ?RET_HIGH load(1, XDATA, add(CFA_XSP16, literal(-4)))
        CFI ?BRET_EXT load(1, XDATA, add(CFA_XSP16, literal(-3)))
        CFI DPL0 load(1, XDATA, add(CFA_XSP16, literal(-2)))
        CFI DPH0 load(1, XDATA, add(CFA_XSP16, literal(-1)))
        CFI CFA_SP SP+0
        CFI CFA_XSP16 add(XSP16, 28)
        CFI Block cfiCond24 Using cfiCommon0
        CFI (cfiCond24) NoFunction
        CFI (cfiCond24) Conditional ??CrossCallReturnLabel_32, ??CrossCallReturnLabel_27
        CFI (cfiCond24) R6 load(1, XDATA, add(CFA_XSP16, literal(-14)))
        CFI (cfiCond24) VB load(1, XDATA, add(CFA_XSP16, literal(-13)))
        CFI (cfiCond24) V0 load(1, XDATA, add(CFA_XSP16, literal(-12)))
        CFI (cfiCond24) V1 load(1, XDATA, add(CFA_XSP16, literal(-11)))
        CFI (cfiCond24) V2 load(1, XDATA, add(CFA_XSP16, literal(-10)))
        CFI (cfiCond24) V3 load(1, XDATA, add(CFA_XSP16, literal(-9)))
        CFI (cfiCond24) V4 load(1, XDATA, add(CFA_XSP16, literal(-8)))
        CFI (cfiCond24) V5 load(1, XDATA, add(CFA_XSP16, literal(-7)))
        CFI (cfiCond24) R7 load(1, XDATA, add(CFA_XSP16, literal(-6)))
        CFI (cfiCond24) ?RET_LOW load(1, XDATA, add(CFA_XSP16, literal(-5)))
        CFI (cfiCond24) ?RET_HIGH load(1, XDATA, add(CFA_XSP16, literal(-4)))
        CFI (cfiCond24) ?BRET_EXT load(1, XDATA, add(CFA_XSP16, literal(-3)))
        CFI (cfiCond24) DPL0 load(1, XDATA, add(CFA_XSP16, literal(-2)))
        CFI (cfiCond24) DPH0 load(1, XDATA, add(CFA_XSP16, literal(-1)))
        CFI (cfiCond24) CFA_SP SP+0
        CFI (cfiCond24) CFA_XSP16 add(XSP16, 28)
        CFI Block cfiCond25 Using cfiCommon0
        CFI (cfiCond25) NoFunction
        CFI (cfiCond25) Conditional ??CrossCallReturnLabel_32, ??CrossCallReturnLabel_28
        CFI (cfiCond25) R6 load(1, XDATA, add(CFA_XSP16, literal(-14)))
        CFI (cfiCond25) VB load(1, XDATA, add(CFA_XSP16, literal(-13)))
        CFI (cfiCond25) V0 load(1, XDATA, add(CFA_XSP16, literal(-12)))
        CFI (cfiCond25) V1 load(1, XDATA, add(CFA_XSP16, literal(-11)))
        CFI (cfiCond25) V2 load(1, XDATA, add(CFA_XSP16, literal(-10)))
        CFI (cfiCond25) V3 load(1, XDATA, add(CFA_XSP16, literal(-9)))
        CFI (cfiCond25) V4 load(1, XDATA, add(CFA_XSP16, literal(-8)))
        CFI (cfiCond25) V5 load(1, XDATA, add(CFA_XSP16, literal(-7)))
        CFI (cfiCond25) R7 load(1, XDATA, add(CFA_XSP16, literal(-6)))
        CFI (cfiCond25) ?RET_LOW load(1, XDATA, add(CFA_XSP16, literal(-5)))
        CFI (cfiCond25) ?RET_HIGH load(1, XDATA, add(CFA_XSP16, literal(-4)))
        CFI (cfiCond25) ?BRET_EXT load(1, XDATA, add(CFA_XSP16, literal(-3)))
        CFI (cfiCond25) DPL0 load(1, XDATA, add(CFA_XSP16, literal(-2)))
        CFI (cfiCond25) DPH0 load(1, XDATA, add(CFA_XSP16, literal(-1)))
        CFI (cfiCond25) CFA_SP SP+0
        CFI (cfiCond25) CFA_XSP16 add(XSP16, 28)
        CFI Block cfiCond26 Using cfiCommon0
        CFI (cfiCond26) NoFunction
        CFI (cfiCond26) Conditional ??CrossCallReturnLabel_32, ??CrossCallReturnLabel_29
        CFI (cfiCond26) R6 load(1, XDATA, add(CFA_XSP16, literal(-14)))
        CFI (cfiCond26) VB load(1, XDATA, add(CFA_XSP16, literal(-13)))
        CFI (cfiCond26) V0 load(1, XDATA, add(CFA_XSP16, literal(-12)))
        CFI (cfiCond26) V1 load(1, XDATA, add(CFA_XSP16, literal(-11)))
        CFI (cfiCond26) V2 load(1, XDATA, add(CFA_XSP16, literal(-10)))
        CFI (cfiCond26) V3 load(1, XDATA, add(CFA_XSP16, literal(-9)))
        CFI (cfiCond26) V4 load(1, XDATA, add(CFA_XSP16, literal(-8)))
        CFI (cfiCond26) V5 load(1, XDATA, add(CFA_XSP16, literal(-7)))
        CFI (cfiCond26) R7 load(1, XDATA, add(CFA_XSP16, literal(-6)))
        CFI (cfiCond26) ?RET_LOW load(1, XDATA, add(CFA_XSP16, literal(-5)))
        CFI (cfiCond26) ?RET_HIGH load(1, XDATA, add(CFA_XSP16, literal(-4)))
        CFI (cfiCond26) ?BRET_EXT load(1, XDATA, add(CFA_XSP16, literal(-3)))
        CFI (cfiCond26) DPL0 load(1, XDATA, add(CFA_XSP16, literal(-2)))
        CFI (cfiCond26) DPH0 load(1, XDATA, add(CFA_XSP16, literal(-1)))
        CFI (cfiCond26) CFA_SP SP+0
        CFI (cfiCond26) CFA_XSP16 add(XSP16, 28)
        CFI Block cfiCond27 Using cfiCommon0
        CFI (cfiCond27) NoFunction
        CFI (cfiCond27) Conditional ??CrossCallReturnLabel_32, ??CrossCallReturnLabel_30
        CFI (cfiCond27) R6 load(1, XDATA, add(CFA_XSP16, literal(-22)))
        CFI (cfiCond27) VB load(1, XDATA, add(CFA_XSP16, literal(-21)))
        CFI (cfiCond27) V0 load(1, XDATA, add(CFA_XSP16, literal(-20)))
        CFI (cfiCond27) V1 load(1, XDATA, add(CFA_XSP16, literal(-19)))
        CFI (cfiCond27) V2 load(1, XDATA, add(CFA_XSP16, literal(-18)))
        CFI (cfiCond27) V3 load(1, XDATA, add(CFA_XSP16, literal(-17)))
        CFI (cfiCond27) V4 load(1, XDATA, add(CFA_XSP16, literal(-16)))
        CFI (cfiCond27) V5 load(1, XDATA, add(CFA_XSP16, literal(-15)))
        CFI (cfiCond27) V6 load(1, XDATA, add(CFA_XSP16, literal(-14)))
        CFI (cfiCond27) V7 load(1, XDATA, add(CFA_XSP16, literal(-13)))
        CFI (cfiCond27) V8 load(1, XDATA, add(CFA_XSP16, literal(-12)))
        CFI (cfiCond27) V9 load(1, XDATA, add(CFA_XSP16, literal(-11)))
        CFI (cfiCond27) V10 load(1, XDATA, add(CFA_XSP16, literal(-10)))
        CFI (cfiCond27) V11 load(1, XDATA, add(CFA_XSP16, literal(-9)))
        CFI (cfiCond27) V12 load(1, XDATA, add(CFA_XSP16, literal(-8)))
        CFI (cfiCond27) V13 load(1, XDATA, add(CFA_XSP16, literal(-7)))
        CFI (cfiCond27) R7 load(1, XDATA, add(CFA_XSP16, literal(-6)))
        CFI (cfiCond27) ?RET_LOW load(1, XDATA, add(CFA_XSP16, literal(-5)))
        CFI (cfiCond27) ?RET_HIGH load(1, XDATA, add(CFA_XSP16, literal(-4)))
        CFI (cfiCond27) ?BRET_EXT load(1, XDATA, add(CFA_XSP16, literal(-3)))
        CFI (cfiCond27) DPL0 load(1, XDATA, add(CFA_XSP16, literal(-2)))
        CFI (cfiCond27) DPH0 load(1, XDATA, add(CFA_XSP16, literal(-1)))
        CFI (cfiCond27) CFA_SP SP+0
        CFI (cfiCond27) CFA_XSP16 add(XSP16, 22)
        CFI Block cfiPicker28 Using cfiCommon1
        CFI (cfiPicker28) NoFunction
        CFI (cfiPicker28) Picker
        ADDC    A,#0x0
        MOV     ?V0 + 5,A
        MOV     DPL,?V0 + 4
        MOV     DPH,A
        RET
        CFI EndBlock cfiCond23
        CFI EndBlock cfiCond24
        CFI EndBlock cfiCond25
        CFI EndBlock cfiCond26
        CFI EndBlock cfiCond27
        CFI EndBlock cfiPicker28
//  251 
//  252 
//  253 #if defined ( ZIGBEE_SOURCE_ROUTING )
//  254 
//  255 /***************************************************************************************************
//  256  * @fn      MT_AfDataRequestSrcRtg
//  257  *
//  258  * @brief   Process AF Register command
//  259  *
//  260  * @param   pBuf - pointer to the received buffer
//  261  *
//  262  * @return  none
//  263  ***************************************************************************************************/

        RSEG BANKED_CODE:CODE:NOROOT(0)
//  264 void MT_AfDataRequestSrcRtg(uint8 *pBuf)
MT_AfDataRequestSrcRtg:
        CFI Block cfiBlock29 Using cfiCommon0
        CFI Function MT_AfDataRequestSrcRtg
//  265 {
        FUNCALL MT_AfDataRequestSrcRtg, osal_memset
        LOCFRAME ISTACK, 0, STACK
        LOCFRAME PSTACK, 0, STACK
        LOCFRAME XSTACK, 36, STACK
        LOCFRAME IOVERLAY, 0, STATIC
        LOCFRAME DOVERLAY, 0, STATIC
        ARGFRAME ISTACK, 0, STACK
        ARGFRAME PSTACK, 0, STACK
        ARGFRAME XSTACK, 36, STACK
        ARGFRAME IOVERLAY, 0, STATIC
        ARGFRAME DOVERLAY, 0, STATIC
        FUNCALL MT_AfDataRequestSrcRtg, afFindEndPointDesc
        LOCFRAME ISTACK, 0, STACK
        LOCFRAME PSTACK, 0, STACK
        LOCFRAME XSTACK, 36, STACK
        LOCFRAME IOVERLAY, 0, STATIC
        LOCFRAME DOVERLAY, 0, STATIC
        ARGFRAME ISTACK, 0, STACK
        ARGFRAME PSTACK, 0, STACK
        ARGFRAME XSTACK, 36, STACK
        ARGFRAME IOVERLAY, 0, STATIC
        ARGFRAME DOVERLAY, 0, STATIC
        FUNCALL MT_AfDataRequestSrcRtg, osal_mem_alloc
        LOCFRAME ISTACK, 0, STACK
        LOCFRAME PSTACK, 0, STACK
        LOCFRAME XSTACK, 36, STACK
        LOCFRAME IOVERLAY, 0, STATIC
        LOCFRAME DOVERLAY, 0, STATIC
        ARGFRAME ISTACK, 0, STACK
        ARGFRAME PSTACK, 0, STACK
        ARGFRAME XSTACK, 36, STACK
        ARGFRAME IOVERLAY, 0, STATIC
        ARGFRAME DOVERLAY, 0, STATIC
        FUNCALL MT_AfDataRequestSrcRtg, AF_DataRequestSrcRtg
        LOCFRAME ISTACK, 0, STACK
        LOCFRAME PSTACK, 0, STACK
        LOCFRAME XSTACK, 48, STACK
        LOCFRAME IOVERLAY, 0, STATIC
        LOCFRAME DOVERLAY, 0, STATIC
        ARGFRAME ISTACK, 0, STACK
        ARGFRAME PSTACK, 0, STACK
        ARGFRAME XSTACK, 48, STACK
        ARGFRAME IOVERLAY, 0, STATIC
        ARGFRAME DOVERLAY, 0, STATIC
        FUNCALL MT_AfDataRequestSrcRtg, osal_mem_free
        LOCFRAME ISTACK, 0, STACK
        LOCFRAME PSTACK, 0, STACK
        LOCFRAME XSTACK, 36, STACK
        LOCFRAME IOVERLAY, 0, STATIC
        LOCFRAME DOVERLAY, 0, STATIC
        ARGFRAME ISTACK, 0, STACK
        ARGFRAME PSTACK, 0, STACK
        ARGFRAME XSTACK, 36, STACK
        ARGFRAME IOVERLAY, 0, STATIC
        ARGFRAME DOVERLAY, 0, STATIC
        FUNCALL MT_AfDataRequestSrcRtg, MT_BuildAndSendZToolResponse
        LOCFRAME ISTACK, 0, STACK
        LOCFRAME PSTACK, 0, STACK
        LOCFRAME XSTACK, 36, STACK
        LOCFRAME IOVERLAY, 0, STATIC
        LOCFRAME DOVERLAY, 0, STATIC
        ARGFRAME ISTACK, 0, STACK
        ARGFRAME PSTACK, 0, STACK
        ARGFRAME XSTACK, 36, STACK
        ARGFRAME IOVERLAY, 0, STATIC
        ARGFRAME DOVERLAY, 0, STATIC
        MOV     A,#-0x16
        LCALL   ?BANKED_ENTER_XDATA
        CFI DPH0 load(1, XDATA, add(CFA_XSP16, literal(-1)))
        CFI DPL0 load(1, XDATA, add(CFA_XSP16, literal(-2)))
        CFI ?BRET_EXT load(1, XDATA, add(CFA_XSP16, literal(-3)))
        CFI ?RET_HIGH load(1, XDATA, add(CFA_XSP16, literal(-4)))
        CFI ?RET_LOW load(1, XDATA, add(CFA_XSP16, literal(-5)))
        CFI R7 load(1, XDATA, add(CFA_XSP16, literal(-6)))
        CFI V13 load(1, XDATA, add(CFA_XSP16, literal(-7)))
        CFI V12 load(1, XDATA, add(CFA_XSP16, literal(-8)))
        CFI V11 load(1, XDATA, add(CFA_XSP16, literal(-9)))
        CFI V10 load(1, XDATA, add(CFA_XSP16, literal(-10)))
        CFI V9 load(1, XDATA, add(CFA_XSP16, literal(-11)))
        CFI V8 load(1, XDATA, add(CFA_XSP16, literal(-12)))
        CFI V7 load(1, XDATA, add(CFA_XSP16, literal(-13)))
        CFI V6 load(1, XDATA, add(CFA_XSP16, literal(-14)))
        CFI V5 load(1, XDATA, add(CFA_XSP16, literal(-15)))
        CFI V4 load(1, XDATA, add(CFA_XSP16, literal(-16)))
        CFI V3 load(1, XDATA, add(CFA_XSP16, literal(-17)))
        CFI V2 load(1, XDATA, add(CFA_XSP16, literal(-18)))
        CFI V1 load(1, XDATA, add(CFA_XSP16, literal(-19)))
        CFI V0 load(1, XDATA, add(CFA_XSP16, literal(-20)))
        CFI VB load(1, XDATA, add(CFA_XSP16, literal(-21)))
        CFI R6 load(1, XDATA, add(CFA_XSP16, literal(-22)))
        CFI CFA_SP SP+0
        CFI CFA_XSP16 add(XSP16, 22)
        ; Saved register size: 22
        ; Auto size: 14
        MOV     A,#-0xe
        LCALL   ?ALLOC_XSTACK8
        CFI CFA_XSP16 add(XSP16, 36)
        MOV     A,R2
        MOV     R6,A
        MOV     A,R3
        MOV     R7,A
//  266   uint8 cmdId, dataLen = 0;
//  267   uint8 retValue = ZFailure;
        MOV     A,#0x1
        MOV     DPL,?XSP + 0
        MOV     DPH,?XSP + 1
        LCALL   ?Subroutine11 & 0xFFFF
//  268   endPointDesc_t *epDesc;
//  269   byte transId;
//  270   afAddrType_t dstAddr;
//  271   cId_t cId;
//  272   byte txOpts, radius, srcEP, relayCnt;
//  273   uint16 *pRelayList;
//  274   uint8 i;
//  275 
//  276   /* parse header */
//  277   cmdId = pBuf[MT_RPC_POS_CMD1];
??CrossCallReturnLabel_12:
        INC     DPTR
        MOVX    A,@DPTR
        MOV     ?V0 + 6,A
//  278   pBuf += MT_RPC_FRAME_HDR_SZ;
        MOV     A,R6
        ADD     A,#0x3
        INC     R6
        INC     R6
        INC     R6
        MOV     A,R7
        ADDC    A,#0x0
        MOV     R7,A
//  279 
//  280   /* Destination address */
//  281   /* Initialize the panID field to zero to avoid inter-pan */
//  282   osal_memset( &dstAddr, 0, sizeof(afAddrType_t) ); 
        ; Setup parameters for call to function osal_memset
        MOV     R4,#0xc
        MOV     R5,#0x0
        MOV     R1,#0x0
        MOV     A,#0x2
        LCALL   ?XSTACK_DISP0_8
        MOV     R2,DPL
        MOV     R3,DPH
        LCALL   ??osal_memset?relay
//  283   dstAddr.addrMode = afAddr16Bit;
        MOV     A,#0xa
        LCALL   ?XSTACK_DISP0_8
        MOV     A,#0x2
        MOVX    @DPTR,A
//  284   dstAddr.addr.shortAddr = BUILD_UINT16(pBuf[0], pBuf[1]);
        MOV     DPL,R6
        MOV     DPH,R7
        LCALL   ?Subroutine5 & 0xFFFF
??CrossCallReturnLabel_5:
        LCALL   ?XSTACK_DISP0_8
        MOV     A,R0
        MOVX    @DPTR,A
        INC     DPTR
        MOV     A,R1
        LCALL   ?Subroutine10 & 0xFFFF
//  285   pBuf += 2;
//  286 
//  287   /* Destination endpoint */
//  288   dstAddr.endPoint = *pBuf++;
??CrossCallReturnLabel_10:
        MOV     DPL,R6
        MOV     DPH,R7
        MOVX    A,@DPTR
        PUSH    A
        CFI CFA_SP SP+-1
        MOV     A,#0xb
        LCALL   ?XSTACK_DISP0_8
        POP     A
        CFI CFA_SP SP+0
        LCALL   ?Subroutine11 & 0xFFFF
//  289 
//  290   /* Source endpoint */
//  291   srcEP = *pBuf++;
??CrossCallReturnLabel_13:
        MOVX    A,@DPTR
        MOV     R1,A
        INC     DPTR
        MOV     R6,DPL
        MOV     R7,DPH
//  292   epDesc = afFindEndPointDesc( srcEP );
        ; Setup parameters for call to function afFindEndPointDesc
        LCALL   ??afFindEndPointDesc?relay
        MOV     ?V0 + 4,R2
        MOV     ?V0 + 5,R3
//  293 
//  294   /* ClusterId */
//  295   cId = BUILD_UINT16(pBuf[0], pBuf[1]);
        MOV     DPL,R6
        MOV     DPH,R7
        LCALL   ?Subroutine2 & 0xFFFF
//  296   pBuf +=2;
??CrossCallReturnLabel_1:
        LCALL   ?Subroutine19 & 0xFFFF
//  297 
//  298   /* TransId */
//  299   transId = *pBuf++;
??CrossCallReturnLabel_25:
        MOV     DPL,R6
        MOV     DPH,R7
        MOVX    A,@DPTR
        PUSH    A
        CFI CFA_SP SP+-1
        MOV     A,#0x1
        LCALL   ?XSTACK_DISP0_8
        POP     A
        CFI CFA_SP SP+0
        LCALL   ?Subroutine11 & 0xFFFF
//  300 
//  301   /* TxOption */
//  302   txOpts = *pBuf++;
??CrossCallReturnLabel_14:
        MOVX    A,@DPTR
        MOV     ?V0 + 7,A
        INC     DPTR
//  303 
//  304   /* Radius */
//  305   radius = *pBuf++;
        MOVX    A,@DPTR
        MOV     ?V0 + 10,A
        INC     DPTR
//  306   
//  307   /* Source route relay count */
//  308   relayCnt = *pBuf++;
        MOVX    A,@DPTR
        MOV     ?V0 + 11,A
        INC     DPTR
        MOV     R6,DPL
        MOV     R7,DPH
//  309   
//  310   /* Convert the source route relay list */
//  311   if( (pRelayList = osal_mem_alloc( relayCnt * sizeof( uint16 ))) != NULL )
        ; Setup parameters for call to function osal_mem_alloc
        CLR     C
        RLC     A
        MOV     R2,A
        CLR     A
        RLC     A
        MOV     R3,A
        LCALL   ??osal_mem_alloc?relay
        MOV     ?V0 + 0,R2
        MOV     ?V0 + 1,R3
        MOV     A,R2
        JNZ     ??MT_AfDataRequestSrcRtg_0
        MOV     A,R3
??MT_AfDataRequestSrcRtg_0:
        JNZ     $+5
        LJMP    ??MT_AfDataRequestSrcRtg_1 & 0xFFFF
//  312   {
//  313     for( i = 0; i < relayCnt; i++ )
        MOV     R4,#0x0
        SJMP    ??MT_AfDataRequestSrcRtg_2
//  314     {
//  315       pRelayList[i]  = BUILD_UINT16( pBuf[0], pBuf[1] );
??MT_AfDataRequestSrcRtg_3:
        MOV     R2,A
        MOV     DPL,R0
        MOV     DPH,R1
        MOVX    A,@DPTR
        MOV     R1,A
        CLR     A
        ADD     A,R2
        MOV     A,R1
        MOV     R3,A
        MOV     A,R4
        RLC     A
        MOV     R0,A
        CLR     A
        RLC     A
        MOV     R1,A
        MOV     A,?V0 + 0
        ADD     A,R0
        MOV     DPL,A
        MOV     A,?V0 + 1
        ADDC    A,R1
        MOV     DPH,A
        MOV     A,R2
        MOVX    @DPTR,A
        INC     DPTR
        MOV     A,R3
        LCALL   ?Subroutine10 & 0xFFFF
//  316       pBuf += 2;
//  317     }
??CrossCallReturnLabel_11:
        INC     R4
??MT_AfDataRequestSrcRtg_2:
        MOV     DPL,R6
        MOV     DPH,R7
        INC     DPTR
        MOV     R0,DPL
        MOV     R1,DPH
        MOV     A,R4
        CLR     C
        SUBB    A,?V0 + 11
        MOV     DPL,R6
        MOV     DPH,R7
        MOVX    A,@DPTR
        JC      ??MT_AfDataRequestSrcRtg_3
//  318   
//  319     /* Data payload Length */
//  320     dataLen = *pBuf++;
        MOV     ?V0 + 12,A
        MOV     A,R0
        MOV     R6,A
        MOV     A,R1
        MOV     R7,A
//  321 
//  322     if ( epDesc == NULL )
        MOV     A,?V0 + 4
        JNZ     ??MT_AfDataRequestSrcRtg_4
        MOV     A,?V0 + 5
??MT_AfDataRequestSrcRtg_4:
        JNZ     ??MT_AfDataRequestSrcRtg_5
//  323     {
//  324       retValue = afStatus_INVALID_PARAMETER;
        MOV     A,#0x2
        SJMP    ??MT_AfDataRequestSrcRtg_6
//  325     }
//  326     else
//  327     {
//  328       retValue = AF_DataRequestSrcRtg( &dstAddr, epDesc, cId, dataLen, pBuf, 
//  329                                      &transId, txOpts, radius, relayCnt, pRelayList );
??MT_AfDataRequestSrcRtg_5:
        ; Setup parameters for call to function AF_DataRequestSrcRtg
        MOV     R0,#?V0 + 0
        LCALL   ?PUSH_XSTACK_I_TWO
        CFI CFA_XSP16 add(XSP16, 38)
        MOV     A,?V0 + 11
        MOV     ?V0 + 8,A
        MOV     R0,#?V0 + 8
        LCALL   ?PUSH_XSTACK_I_ONE
        CFI CFA_XSP16 add(XSP16, 39)
        MOV     A,?V0 + 10
        MOV     ?V0 + 8,A
        MOV     R0,#?V0 + 8
        LCALL   ?PUSH_XSTACK_I_ONE
        CFI CFA_XSP16 add(XSP16, 40)
        MOV     A,#0x5
        LCALL   ?XSTACK_DISP0_8
        MOV     ?V0 + 8,DPL
        MOV     ?V0 + 9,DPH
        MOV     R0,#?V0 + 8
        LCALL   ?PUSH_XSTACK_I_TWO
        CFI CFA_XSP16 add(XSP16, 42)
        MOV     ?V0 + 8,R6
        MOV     ?V0 + 9,R7
        MOV     R0,#?V0 + 8
        LCALL   ?PUSH_XSTACK_I_TWO
        CFI CFA_XSP16 add(XSP16, 44)
        MOV     ?V0 + 13,#0x0
        MOV     R0,#?V0 + 12
        LCALL   ?PUSH_XSTACK_I_TWO
        CFI CFA_XSP16 add(XSP16, 46)
        MOV     R0,#?V0 + 2
        LCALL   ?PUSH_XSTACK_I_TWO
        CFI CFA_XSP16 add(XSP16, 48)
        MOV     R1,?V0 + 7
        MOV     R4,?V0 + 4
        MOV     R5,?V0 + 5
        MOV     A,#0xe
        LCALL   ?XSTACK_DISP0_8
        MOV     R2,DPL
        MOV     R3,DPH
        LCALL   ??AF_DataRequestSrcRtg?relay
        MOV     A,#0xc
        LCALL   ?DEALLOC_XSTACK8
        CFI CFA_XSP16 add(XSP16, 36)
        MOV     A,R1
??MT_AfDataRequestSrcRtg_6:
        MOV     DPL,?XSP + 0
        MOV     DPH,?XSP + 1
        MOVX    @DPTR,A
//  330     }
//  331     
//  332     /* Free the memory allocated */
//  333     osal_mem_free( pRelayList );
        ; Setup parameters for call to function osal_mem_free
        MOV     R2,?V0 + 0
        MOV     R3,?V0 + 1
        LCALL   ??osal_mem_free?relay
        SJMP    ??MT_AfDataRequestSrcRtg_7
//  334   }
//  335   else
//  336   {
//  337     retValue = afStatus_MEM_FAIL;
??MT_AfDataRequestSrcRtg_1:
        MOV     A,#0x10
        MOV     DPL,?XSP + 0
        MOV     DPH,?XSP + 1
        MOVX    @DPTR,A
//  338   }
//  339     
//  340 
//  341   /* Build and send back the response */
//  342   MT_BuildAndSendZToolResponse(((uint8)MT_RPC_CMD_SRSP | (uint8)MT_RPC_SYS_AF), cmdId, 1, &retValue);
??MT_AfDataRequestSrcRtg_7:
        ; Setup parameters for call to function MT_BuildAndSendZToolResponse
        MOV     DPL,?XSP + 0
        MOV     DPH,?XSP + 1
        MOV     R4,DPL
        MOV     R5,DPH
        MOV     R3,#0x1
        MOV     R2,?V0 + 6
        MOV     R1,#0x64
        LCALL   ??MT_BuildAndSendZToolResponse?relay
//  343 }
        MOV     A,#0xe
        LCALL   ?DEALLOC_XSTACK8
        CFI EndBlock cfiBlock29
        REQUIRE ?Subroutine22
        ; // Fall through to label ?Subroutine22

        RSEG BANKED_CODE:CODE:NOROOT(0)
?Subroutine22:
        CFI Block cfiBlock30 Using cfiCommon0
        CFI NoFunction
        CFI CFA_SP SP+0
        CFI CFA_XSP16 add(XSP16, 22)
        CFI VB load(1, XDATA, add(CFA_XSP16, literal(-21)))
        CFI DPL0 load(1, XDATA, add(CFA_XSP16, literal(-2)))
        CFI DPH0 load(1, XDATA, add(CFA_XSP16, literal(-1)))
        CFI R6 load(1, XDATA, add(CFA_XSP16, literal(-22)))
        CFI R7 load(1, XDATA, add(CFA_XSP16, literal(-6)))
        CFI V0 load(1, XDATA, add(CFA_XSP16, literal(-20)))
        CFI V1 load(1, XDATA, add(CFA_XSP16, literal(-19)))
        CFI V2 load(1, XDATA, add(CFA_XSP16, literal(-18)))
        CFI V3 load(1, XDATA, add(CFA_XSP16, literal(-17)))
        CFI V4 load(1, XDATA, add(CFA_XSP16, literal(-16)))
        CFI V5 load(1, XDATA, add(CFA_XSP16, literal(-15)))
        CFI V6 load(1, XDATA, add(CFA_XSP16, literal(-14)))
        CFI V7 load(1, XDATA, add(CFA_XSP16, literal(-13)))
        CFI V8 load(1, XDATA, add(CFA_XSP16, literal(-12)))
        CFI V9 load(1, XDATA, add(CFA_XSP16, literal(-11)))
        CFI V10 load(1, XDATA, add(CFA_XSP16, literal(-10)))
        CFI V11 load(1, XDATA, add(CFA_XSP16, literal(-9)))
        CFI V12 load(1, XDATA, add(CFA_XSP16, literal(-8)))
        CFI V13 load(1, XDATA, add(CFA_XSP16, literal(-7)))
        CFI ?BRET_EXT load(1, XDATA, add(CFA_XSP16, literal(-3)))
        CFI ?RET_HIGH load(1, XDATA, add(CFA_XSP16, literal(-4)))
        CFI ?RET_LOW load(1, XDATA, add(CFA_XSP16, literal(-5)))
        MOV     R7,#0xe
        LJMP    ?BANKED_LEAVE_XDATA
        CFI EndBlock cfiBlock30

        RSEG BANKED_CODE:CODE:NOROOT(0)
?Subroutine11:
        CFI Block cfiCond31 Using cfiCommon0
        CFI NoFunction
        CFI Conditional ??CrossCallReturnLabel_12
        CFI R6 load(1, XDATA, add(CFA_XSP16, literal(-22)))
        CFI VB load(1, XDATA, add(CFA_XSP16, literal(-21)))
        CFI V0 load(1, XDATA, add(CFA_XSP16, literal(-20)))
        CFI V1 load(1, XDATA, add(CFA_XSP16, literal(-19)))
        CFI V2 load(1, XDATA, add(CFA_XSP16, literal(-18)))
        CFI V3 load(1, XDATA, add(CFA_XSP16, literal(-17)))
        CFI V4 load(1, XDATA, add(CFA_XSP16, literal(-16)))
        CFI V5 load(1, XDATA, add(CFA_XSP16, literal(-15)))
        CFI V6 load(1, XDATA, add(CFA_XSP16, literal(-14)))
        CFI V7 load(1, XDATA, add(CFA_XSP16, literal(-13)))
        CFI V8 load(1, XDATA, add(CFA_XSP16, literal(-12)))
        CFI V9 load(1, XDATA, add(CFA_XSP16, literal(-11)))
        CFI V10 load(1, XDATA, add(CFA_XSP16, literal(-10)))
        CFI V11 load(1, XDATA, add(CFA_XSP16, literal(-9)))
        CFI V12 load(1, XDATA, add(CFA_XSP16, literal(-8)))
        CFI V13 load(1, XDATA, add(CFA_XSP16, literal(-7)))
        CFI R7 load(1, XDATA, add(CFA_XSP16, literal(-6)))
        CFI ?RET_LOW load(1, XDATA, add(CFA_XSP16, literal(-5)))
        CFI ?RET_HIGH load(1, XDATA, add(CFA_XSP16, literal(-4)))
        CFI ?BRET_EXT load(1, XDATA, add(CFA_XSP16, literal(-3)))
        CFI DPL0 load(1, XDATA, add(CFA_XSP16, literal(-2)))
        CFI DPH0 load(1, XDATA, add(CFA_XSP16, literal(-1)))
        CFI CFA_SP SP+0
        CFI CFA_XSP16 add(XSP16, 36)
        CFI Block cfiCond32 Using cfiCommon0
        CFI (cfiCond32) NoFunction
        CFI (cfiCond32) Conditional ??CrossCallReturnLabel_13
        CFI (cfiCond32) R6 load(1, XDATA, add(CFA_XSP16, literal(-22)))
        CFI (cfiCond32) VB load(1, XDATA, add(CFA_XSP16, literal(-21)))
        CFI (cfiCond32) V0 load(1, XDATA, add(CFA_XSP16, literal(-20)))
        CFI (cfiCond32) V1 load(1, XDATA, add(CFA_XSP16, literal(-19)))
        CFI (cfiCond32) V2 load(1, XDATA, add(CFA_XSP16, literal(-18)))
        CFI (cfiCond32) V3 load(1, XDATA, add(CFA_XSP16, literal(-17)))
        CFI (cfiCond32) V4 load(1, XDATA, add(CFA_XSP16, literal(-16)))
        CFI (cfiCond32) V5 load(1, XDATA, add(CFA_XSP16, literal(-15)))
        CFI (cfiCond32) V6 load(1, XDATA, add(CFA_XSP16, literal(-14)))
        CFI (cfiCond32) V7 load(1, XDATA, add(CFA_XSP16, literal(-13)))
        CFI (cfiCond32) V8 load(1, XDATA, add(CFA_XSP16, literal(-12)))
        CFI (cfiCond32) V9 load(1, XDATA, add(CFA_XSP16, literal(-11)))
        CFI (cfiCond32) V10 load(1, XDATA, add(CFA_XSP16, literal(-10)))
        CFI (cfiCond32) V11 load(1, XDATA, add(CFA_XSP16, literal(-9)))
        CFI (cfiCond32) V12 load(1, XDATA, add(CFA_XSP16, literal(-8)))
        CFI (cfiCond32) V13 load(1, XDATA, add(CFA_XSP16, literal(-7)))
        CFI (cfiCond32) R7 load(1, XDATA, add(CFA_XSP16, literal(-6)))
        CFI (cfiCond32) ?RET_LOW load(1, XDATA, add(CFA_XSP16, literal(-5)))
        CFI (cfiCond32) ?RET_HIGH load(1, XDATA, add(CFA_XSP16, literal(-4)))
        CFI (cfiCond32) ?BRET_EXT load(1, XDATA, add(CFA_XSP16, literal(-3)))
        CFI (cfiCond32) DPL0 load(1, XDATA, add(CFA_XSP16, literal(-2)))
        CFI (cfiCond32) DPH0 load(1, XDATA, add(CFA_XSP16, literal(-1)))
        CFI (cfiCond32) CFA_SP SP+0
        CFI (cfiCond32) CFA_XSP16 add(XSP16, 36)
        CFI Block cfiCond33 Using cfiCommon0
        CFI (cfiCond33) NoFunction
        CFI (cfiCond33) Conditional ??CrossCallReturnLabel_14
        CFI (cfiCond33) R6 load(1, XDATA, add(CFA_XSP16, literal(-22)))
        CFI (cfiCond33) VB load(1, XDATA, add(CFA_XSP16, literal(-21)))
        CFI (cfiCond33) V0 load(1, XDATA, add(CFA_XSP16, literal(-20)))
        CFI (cfiCond33) V1 load(1, XDATA, add(CFA_XSP16, literal(-19)))
        CFI (cfiCond33) V2 load(1, XDATA, add(CFA_XSP16, literal(-18)))
        CFI (cfiCond33) V3 load(1, XDATA, add(CFA_XSP16, literal(-17)))
        CFI (cfiCond33) V4 load(1, XDATA, add(CFA_XSP16, literal(-16)))
        CFI (cfiCond33) V5 load(1, XDATA, add(CFA_XSP16, literal(-15)))
        CFI (cfiCond33) V6 load(1, XDATA, add(CFA_XSP16, literal(-14)))
        CFI (cfiCond33) V7 load(1, XDATA, add(CFA_XSP16, literal(-13)))
        CFI (cfiCond33) V8 load(1, XDATA, add(CFA_XSP16, literal(-12)))
        CFI (cfiCond33) V9 load(1, XDATA, add(CFA_XSP16, literal(-11)))
        CFI (cfiCond33) V10 load(1, XDATA, add(CFA_XSP16, literal(-10)))
        CFI (cfiCond33) V11 load(1, XDATA, add(CFA_XSP16, literal(-9)))
        CFI (cfiCond33) V12 load(1, XDATA, add(CFA_XSP16, literal(-8)))
        CFI (cfiCond33) V13 load(1, XDATA, add(CFA_XSP16, literal(-7)))
        CFI (cfiCond33) R7 load(1, XDATA, add(CFA_XSP16, literal(-6)))
        CFI (cfiCond33) ?RET_LOW load(1, XDATA, add(CFA_XSP16, literal(-5)))
        CFI (cfiCond33) ?RET_HIGH load(1, XDATA, add(CFA_XSP16, literal(-4)))
        CFI (cfiCond33) ?BRET_EXT load(1, XDATA, add(CFA_XSP16, literal(-3)))
        CFI (cfiCond33) DPL0 load(1, XDATA, add(CFA_XSP16, literal(-2)))
        CFI (cfiCond33) DPH0 load(1, XDATA, add(CFA_XSP16, literal(-1)))
        CFI (cfiCond33) CFA_SP SP+0
        CFI (cfiCond33) CFA_XSP16 add(XSP16, 36)
        CFI Block cfiPicker34 Using cfiCommon1
        CFI (cfiPicker34) NoFunction
        CFI (cfiPicker34) Picker
        MOVX    @DPTR,A
        MOV     DPL,R6
        MOV     DPH,R7
        INC     DPTR
        RET
        CFI EndBlock cfiCond31
        CFI EndBlock cfiCond32
        CFI EndBlock cfiCond33
        CFI EndBlock cfiPicker34

        RSEG BANKED_CODE:CODE:NOROOT(0)
?Subroutine10:
        CFI Block cfiCond35 Using cfiCommon0
        CFI NoFunction
        CFI Conditional ??CrossCallReturnLabel_10
        CFI R6 load(1, XDATA, add(CFA_XSP16, literal(-22)))
        CFI VB load(1, XDATA, add(CFA_XSP16, literal(-21)))
        CFI V0 load(1, XDATA, add(CFA_XSP16, literal(-20)))
        CFI V1 load(1, XDATA, add(CFA_XSP16, literal(-19)))
        CFI V2 load(1, XDATA, add(CFA_XSP16, literal(-18)))
        CFI V3 load(1, XDATA, add(CFA_XSP16, literal(-17)))
        CFI V4 load(1, XDATA, add(CFA_XSP16, literal(-16)))
        CFI V5 load(1, XDATA, add(CFA_XSP16, literal(-15)))
        CFI V6 load(1, XDATA, add(CFA_XSP16, literal(-14)))
        CFI V7 load(1, XDATA, add(CFA_XSP16, literal(-13)))
        CFI V8 load(1, XDATA, add(CFA_XSP16, literal(-12)))
        CFI V9 load(1, XDATA, add(CFA_XSP16, literal(-11)))
        CFI V10 load(1, XDATA, add(CFA_XSP16, literal(-10)))
        CFI V11 load(1, XDATA, add(CFA_XSP16, literal(-9)))
        CFI V12 load(1, XDATA, add(CFA_XSP16, literal(-8)))
        CFI V13 load(1, XDATA, add(CFA_XSP16, literal(-7)))
        CFI R7 load(1, XDATA, add(CFA_XSP16, literal(-6)))
        CFI ?RET_LOW load(1, XDATA, add(CFA_XSP16, literal(-5)))
        CFI ?RET_HIGH load(1, XDATA, add(CFA_XSP16, literal(-4)))
        CFI ?BRET_EXT load(1, XDATA, add(CFA_XSP16, literal(-3)))
        CFI DPL0 load(1, XDATA, add(CFA_XSP16, literal(-2)))
        CFI DPH0 load(1, XDATA, add(CFA_XSP16, literal(-1)))
        CFI CFA_SP SP+0
        CFI CFA_XSP16 add(XSP16, 36)
        CFI Block cfiCond36 Using cfiCommon0
        CFI (cfiCond36) NoFunction
        CFI (cfiCond36) Conditional ??CrossCallReturnLabel_11
        CFI (cfiCond36) R6 load(1, XDATA, add(CFA_XSP16, literal(-22)))
        CFI (cfiCond36) VB load(1, XDATA, add(CFA_XSP16, literal(-21)))
        CFI (cfiCond36) V0 load(1, XDATA, add(CFA_XSP16, literal(-20)))
        CFI (cfiCond36) V1 load(1, XDATA, add(CFA_XSP16, literal(-19)))
        CFI (cfiCond36) V2 load(1, XDATA, add(CFA_XSP16, literal(-18)))
        CFI (cfiCond36) V3 load(1, XDATA, add(CFA_XSP16, literal(-17)))
        CFI (cfiCond36) V4 load(1, XDATA, add(CFA_XSP16, literal(-16)))
        CFI (cfiCond36) V5 load(1, XDATA, add(CFA_XSP16, literal(-15)))
        CFI (cfiCond36) V6 load(1, XDATA, add(CFA_XSP16, literal(-14)))
        CFI (cfiCond36) V7 load(1, XDATA, add(CFA_XSP16, literal(-13)))
        CFI (cfiCond36) V8 load(1, XDATA, add(CFA_XSP16, literal(-12)))
        CFI (cfiCond36) V9 load(1, XDATA, add(CFA_XSP16, literal(-11)))
        CFI (cfiCond36) V10 load(1, XDATA, add(CFA_XSP16, literal(-10)))
        CFI (cfiCond36) V11 load(1, XDATA, add(CFA_XSP16, literal(-9)))
        CFI (cfiCond36) V12 load(1, XDATA, add(CFA_XSP16, literal(-8)))
        CFI (cfiCond36) V13 load(1, XDATA, add(CFA_XSP16, literal(-7)))
        CFI (cfiCond36) R7 load(1, XDATA, add(CFA_XSP16, literal(-6)))
        CFI (cfiCond36) ?RET_LOW load(1, XDATA, add(CFA_XSP16, literal(-5)))
        CFI (cfiCond36) ?RET_HIGH load(1, XDATA, add(CFA_XSP16, literal(-4)))
        CFI (cfiCond36) ?BRET_EXT load(1, XDATA, add(CFA_XSP16, literal(-3)))
        CFI (cfiCond36) DPL0 load(1, XDATA, add(CFA_XSP16, literal(-2)))
        CFI (cfiCond36) DPH0 load(1, XDATA, add(CFA_XSP16, literal(-1)))
        CFI (cfiCond36) CFA_SP SP+0
        CFI (cfiCond36) CFA_XSP16 add(XSP16, 36)
        CFI Block cfiPicker37 Using cfiCommon1
        CFI (cfiPicker37) NoFunction
        CFI (cfiPicker37) Picker
        MOVX    @DPTR,A
        LCALL   ?Subroutine19 & 0xFFFF
??CrossCallReturnLabel_26:
        RET
        CFI EndBlock cfiCond35
        CFI EndBlock cfiCond36
        CFI EndBlock cfiPicker37

        RSEG BANKED_CODE:CODE:NOROOT(0)
?Subroutine19:
        CFI Block cfiCond38 Using cfiCommon0
        CFI NoFunction
        CFI Conditional ??CrossCallReturnLabel_25
        CFI R6 load(1, XDATA, add(CFA_XSP16, literal(-22)))
        CFI VB load(1, XDATA, add(CFA_XSP16, literal(-21)))
        CFI V0 load(1, XDATA, add(CFA_XSP16, literal(-20)))
        CFI V1 load(1, XDATA, add(CFA_XSP16, literal(-19)))
        CFI V2 load(1, XDATA, add(CFA_XSP16, literal(-18)))
        CFI V3 load(1, XDATA, add(CFA_XSP16, literal(-17)))
        CFI V4 load(1, XDATA, add(CFA_XSP16, literal(-16)))
        CFI V5 load(1, XDATA, add(CFA_XSP16, literal(-15)))
        CFI V6 load(1, XDATA, add(CFA_XSP16, literal(-14)))
        CFI V7 load(1, XDATA, add(CFA_XSP16, literal(-13)))
        CFI V8 load(1, XDATA, add(CFA_XSP16, literal(-12)))
        CFI V9 load(1, XDATA, add(CFA_XSP16, literal(-11)))
        CFI V10 load(1, XDATA, add(CFA_XSP16, literal(-10)))
        CFI V11 load(1, XDATA, add(CFA_XSP16, literal(-9)))
        CFI V12 load(1, XDATA, add(CFA_XSP16, literal(-8)))
        CFI V13 load(1, XDATA, add(CFA_XSP16, literal(-7)))
        CFI R7 load(1, XDATA, add(CFA_XSP16, literal(-6)))
        CFI ?RET_LOW load(1, XDATA, add(CFA_XSP16, literal(-5)))
        CFI ?RET_HIGH load(1, XDATA, add(CFA_XSP16, literal(-4)))
        CFI ?BRET_EXT load(1, XDATA, add(CFA_XSP16, literal(-3)))
        CFI DPL0 load(1, XDATA, add(CFA_XSP16, literal(-2)))
        CFI DPH0 load(1, XDATA, add(CFA_XSP16, literal(-1)))
        CFI CFA_SP SP+0
        CFI CFA_XSP16 add(XSP16, 36)
        CFI Block cfiCond39 Using cfiCommon0
        CFI (cfiCond39) NoFunction
        CFI (cfiCond39) Conditional ??CrossCallReturnLabel_26, ??CrossCallReturnLabel_10
        CFI (cfiCond39) R6 load(1, XDATA, add(CFA_XSP16, literal(-22)))
        CFI (cfiCond39) VB load(1, XDATA, add(CFA_XSP16, literal(-21)))
        CFI (cfiCond39) V0 load(1, XDATA, add(CFA_XSP16, literal(-20)))
        CFI (cfiCond39) V1 load(1, XDATA, add(CFA_XSP16, literal(-19)))
        CFI (cfiCond39) V2 load(1, XDATA, add(CFA_XSP16, literal(-18)))
        CFI (cfiCond39) V3 load(1, XDATA, add(CFA_XSP16, literal(-17)))
        CFI (cfiCond39) V4 load(1, XDATA, add(CFA_XSP16, literal(-16)))
        CFI (cfiCond39) V5 load(1, XDATA, add(CFA_XSP16, literal(-15)))
        CFI (cfiCond39) V6 load(1, XDATA, add(CFA_XSP16, literal(-14)))
        CFI (cfiCond39) V7 load(1, XDATA, add(CFA_XSP16, literal(-13)))
        CFI (cfiCond39) V8 load(1, XDATA, add(CFA_XSP16, literal(-12)))
        CFI (cfiCond39) V9 load(1, XDATA, add(CFA_XSP16, literal(-11)))
        CFI (cfiCond39) V10 load(1, XDATA, add(CFA_XSP16, literal(-10)))
        CFI (cfiCond39) V11 load(1, XDATA, add(CFA_XSP16, literal(-9)))
        CFI (cfiCond39) V12 load(1, XDATA, add(CFA_XSP16, literal(-8)))
        CFI (cfiCond39) V13 load(1, XDATA, add(CFA_XSP16, literal(-7)))
        CFI (cfiCond39) R7 load(1, XDATA, add(CFA_XSP16, literal(-6)))
        CFI (cfiCond39) ?RET_LOW load(1, XDATA, add(CFA_XSP16, literal(-5)))
        CFI (cfiCond39) ?RET_HIGH load(1, XDATA, add(CFA_XSP16, literal(-4)))
        CFI (cfiCond39) ?BRET_EXT load(1, XDATA, add(CFA_XSP16, literal(-3)))
        CFI (cfiCond39) DPL0 load(1, XDATA, add(CFA_XSP16, literal(-2)))
        CFI (cfiCond39) DPH0 load(1, XDATA, add(CFA_XSP16, literal(-1)))
        CFI (cfiCond39) CFA_SP SP+0
        CFI (cfiCond39) CFA_XSP16 add(XSP16, 36)
        CFI Block cfiCond40 Using cfiCommon0
        CFI (cfiCond40) NoFunction
        CFI (cfiCond40) Conditional ??CrossCallReturnLabel_26, ??CrossCallReturnLabel_11
        CFI (cfiCond40) R6 load(1, XDATA, add(CFA_XSP16, literal(-22)))
        CFI (cfiCond40) VB load(1, XDATA, add(CFA_XSP16, literal(-21)))
        CFI (cfiCond40) V0 load(1, XDATA, add(CFA_XSP16, literal(-20)))
        CFI (cfiCond40) V1 load(1, XDATA, add(CFA_XSP16, literal(-19)))
        CFI (cfiCond40) V2 load(1, XDATA, add(CFA_XSP16, literal(-18)))
        CFI (cfiCond40) V3 load(1, XDATA, add(CFA_XSP16, literal(-17)))
        CFI (cfiCond40) V4 load(1, XDATA, add(CFA_XSP16, literal(-16)))
        CFI (cfiCond40) V5 load(1, XDATA, add(CFA_XSP16, literal(-15)))
        CFI (cfiCond40) V6 load(1, XDATA, add(CFA_XSP16, literal(-14)))
        CFI (cfiCond40) V7 load(1, XDATA, add(CFA_XSP16, literal(-13)))
        CFI (cfiCond40) V8 load(1, XDATA, add(CFA_XSP16, literal(-12)))
        CFI (cfiCond40) V9 load(1, XDATA, add(CFA_XSP16, literal(-11)))
        CFI (cfiCond40) V10 load(1, XDATA, add(CFA_XSP16, literal(-10)))
        CFI (cfiCond40) V11 load(1, XDATA, add(CFA_XSP16, literal(-9)))
        CFI (cfiCond40) V12 load(1, XDATA, add(CFA_XSP16, literal(-8)))
        CFI (cfiCond40) V13 load(1, XDATA, add(CFA_XSP16, literal(-7)))
        CFI (cfiCond40) R7 load(1, XDATA, add(CFA_XSP16, literal(-6)))
        CFI (cfiCond40) ?RET_LOW load(1, XDATA, add(CFA_XSP16, literal(-5)))
        CFI (cfiCond40) ?RET_HIGH load(1, XDATA, add(CFA_XSP16, literal(-4)))
        CFI (cfiCond40) ?BRET_EXT load(1, XDATA, add(CFA_XSP16, literal(-3)))
        CFI (cfiCond40) DPL0 load(1, XDATA, add(CFA_XSP16, literal(-2)))
        CFI (cfiCond40) DPH0 load(1, XDATA, add(CFA_XSP16, literal(-1)))
        CFI (cfiCond40) CFA_SP SP+0
        CFI (cfiCond40) CFA_XSP16 add(XSP16, 36)
        CFI Block cfiPicker41 Using cfiCommon1
        CFI (cfiPicker41) NoFunction
        CFI (cfiPicker41) Picker
        MOV     A,R6
        ADD     A,#0x2
        INC     R6
        INC     R6
        MOV     A,R7
        ADDC    A,#0x0
        MOV     R7,A
        RET
        CFI EndBlock cfiCond38
        CFI EndBlock cfiCond39
        CFI EndBlock cfiCond40
        CFI EndBlock cfiPicker41

        RSEG BANKED_CODE:CODE:NOROOT(0)
?Subroutine5:
        CFI Block cfiCond42 Using cfiCommon0
        CFI NoFunction
        CFI Conditional ??CrossCallReturnLabel_4
        CFI R6 load(1, XDATA, add(CFA_XSP16, literal(-14)))
        CFI VB load(1, XDATA, add(CFA_XSP16, literal(-13)))
        CFI V0 load(1, XDATA, add(CFA_XSP16, literal(-12)))
        CFI V1 load(1, XDATA, add(CFA_XSP16, literal(-11)))
        CFI V2 load(1, XDATA, add(CFA_XSP16, literal(-10)))
        CFI V3 load(1, XDATA, add(CFA_XSP16, literal(-9)))
        CFI V4 load(1, XDATA, add(CFA_XSP16, literal(-8)))
        CFI V5 load(1, XDATA, add(CFA_XSP16, literal(-7)))
        CFI R7 load(1, XDATA, add(CFA_XSP16, literal(-6)))
        CFI ?RET_LOW load(1, XDATA, add(CFA_XSP16, literal(-5)))
        CFI ?RET_HIGH load(1, XDATA, add(CFA_XSP16, literal(-4)))
        CFI ?BRET_EXT load(1, XDATA, add(CFA_XSP16, literal(-3)))
        CFI DPL0 load(1, XDATA, add(CFA_XSP16, literal(-2)))
        CFI DPH0 load(1, XDATA, add(CFA_XSP16, literal(-1)))
        CFI CFA_SP SP+0
        CFI CFA_XSP16 add(XSP16, 28)
        CFI Block cfiCond43 Using cfiCommon0
        CFI (cfiCond43) NoFunction
        CFI (cfiCond43) Conditional ??CrossCallReturnLabel_5
        CFI (cfiCond43) R6 load(1, XDATA, add(CFA_XSP16, literal(-22)))
        CFI (cfiCond43) VB load(1, XDATA, add(CFA_XSP16, literal(-21)))
        CFI (cfiCond43) V0 load(1, XDATA, add(CFA_XSP16, literal(-20)))
        CFI (cfiCond43) V1 load(1, XDATA, add(CFA_XSP16, literal(-19)))
        CFI (cfiCond43) V2 load(1, XDATA, add(CFA_XSP16, literal(-18)))
        CFI (cfiCond43) V3 load(1, XDATA, add(CFA_XSP16, literal(-17)))
        CFI (cfiCond43) V4 load(1, XDATA, add(CFA_XSP16, literal(-16)))
        CFI (cfiCond43) V5 load(1, XDATA, add(CFA_XSP16, literal(-15)))
        CFI (cfiCond43) V6 load(1, XDATA, add(CFA_XSP16, literal(-14)))
        CFI (cfiCond43) V7 load(1, XDATA, add(CFA_XSP16, literal(-13)))
        CFI (cfiCond43) V8 load(1, XDATA, add(CFA_XSP16, literal(-12)))
        CFI (cfiCond43) V9 load(1, XDATA, add(CFA_XSP16, literal(-11)))
        CFI (cfiCond43) V10 load(1, XDATA, add(CFA_XSP16, literal(-10)))
        CFI (cfiCond43) V11 load(1, XDATA, add(CFA_XSP16, literal(-9)))
        CFI (cfiCond43) V12 load(1, XDATA, add(CFA_XSP16, literal(-8)))
        CFI (cfiCond43) V13 load(1, XDATA, add(CFA_XSP16, literal(-7)))
        CFI (cfiCond43) R7 load(1, XDATA, add(CFA_XSP16, literal(-6)))
        CFI (cfiCond43) ?RET_LOW load(1, XDATA, add(CFA_XSP16, literal(-5)))
        CFI (cfiCond43) ?RET_HIGH load(1, XDATA, add(CFA_XSP16, literal(-4)))
        CFI (cfiCond43) ?BRET_EXT load(1, XDATA, add(CFA_XSP16, literal(-3)))
        CFI (cfiCond43) DPL0 load(1, XDATA, add(CFA_XSP16, literal(-2)))
        CFI (cfiCond43) DPH0 load(1, XDATA, add(CFA_XSP16, literal(-1)))
        CFI (cfiCond43) CFA_SP SP+0
        CFI (cfiCond43) CFA_XSP16 add(XSP16, 36)
        CFI Block cfiPicker44 Using cfiCommon1
        CFI (cfiPicker44) NoFunction
        CFI (cfiPicker44) Picker
        LCALL   ?Subroutine15 & 0xFFFF
??CrossCallReturnLabel_22:
        MOV     R0,A
        MOV     A,#0x2
        RET
        CFI EndBlock cfiCond42
        CFI EndBlock cfiCond43
        CFI EndBlock cfiPicker44

        RSEG BANKED_CODE:CODE:NOROOT(0)
?Subroutine15:
        CFI Block cfiCond45 Using cfiCommon0
        CFI NoFunction
        CFI Conditional ??CrossCallReturnLabel_20
        CFI R6 load(1, XDATA, add(CFA_XSP16, literal(-14)))
        CFI VB load(1, XDATA, add(CFA_XSP16, literal(-13)))
        CFI V0 load(1, XDATA, add(CFA_XSP16, literal(-12)))
        CFI V1 load(1, XDATA, add(CFA_XSP16, literal(-11)))
        CFI V2 load(1, XDATA, add(CFA_XSP16, literal(-10)))
        CFI V3 load(1, XDATA, add(CFA_XSP16, literal(-9)))
        CFI V4 load(1, XDATA, add(CFA_XSP16, literal(-8)))
        CFI V5 load(1, XDATA, add(CFA_XSP16, literal(-7)))
        CFI R7 load(1, XDATA, add(CFA_XSP16, literal(-6)))
        CFI ?RET_LOW load(1, XDATA, add(CFA_XSP16, literal(-5)))
        CFI ?RET_HIGH load(1, XDATA, add(CFA_XSP16, literal(-4)))
        CFI ?BRET_EXT load(1, XDATA, add(CFA_XSP16, literal(-3)))
        CFI DPL0 load(1, XDATA, add(CFA_XSP16, literal(-2)))
        CFI DPH0 load(1, XDATA, add(CFA_XSP16, literal(-1)))
        CFI CFA_SP SP+0
        CFI CFA_XSP16 add(XSP16, 28)
        CFI Block cfiCond46 Using cfiCommon0
        CFI (cfiCond46) NoFunction
        CFI (cfiCond46) Conditional ??CrossCallReturnLabel_22, ??CrossCallReturnLabel_4
        CFI (cfiCond46) R6 load(1, XDATA, add(CFA_XSP16, literal(-14)))
        CFI (cfiCond46) VB load(1, XDATA, add(CFA_XSP16, literal(-13)))
        CFI (cfiCond46) V0 load(1, XDATA, add(CFA_XSP16, literal(-12)))
        CFI (cfiCond46) V1 load(1, XDATA, add(CFA_XSP16, literal(-11)))
        CFI (cfiCond46) V2 load(1, XDATA, add(CFA_XSP16, literal(-10)))
        CFI (cfiCond46) V3 load(1, XDATA, add(CFA_XSP16, literal(-9)))
        CFI (cfiCond46) V4 load(1, XDATA, add(CFA_XSP16, literal(-8)))
        CFI (cfiCond46) V5 load(1, XDATA, add(CFA_XSP16, literal(-7)))
        CFI (cfiCond46) R7 load(1, XDATA, add(CFA_XSP16, literal(-6)))
        CFI (cfiCond46) ?RET_LOW load(1, XDATA, add(CFA_XSP16, literal(-5)))
        CFI (cfiCond46) ?RET_HIGH load(1, XDATA, add(CFA_XSP16, literal(-4)))
        CFI (cfiCond46) ?BRET_EXT load(1, XDATA, add(CFA_XSP16, literal(-3)))
        CFI (cfiCond46) DPL0 load(1, XDATA, add(CFA_XSP16, literal(-2)))
        CFI (cfiCond46) DPH0 load(1, XDATA, add(CFA_XSP16, literal(-1)))
        CFI (cfiCond46) CFA_SP SP+0
        CFI (cfiCond46) CFA_XSP16 add(XSP16, 28)
        CFI Block cfiCond47 Using cfiCommon0
        CFI (cfiCond47) NoFunction
        CFI (cfiCond47) Conditional ??CrossCallReturnLabel_22, ??CrossCallReturnLabel_5
        CFI (cfiCond47) R6 load(1, XDATA, add(CFA_XSP16, literal(-22)))
        CFI (cfiCond47) VB load(1, XDATA, add(CFA_XSP16, literal(-21)))
        CFI (cfiCond47) V0 load(1, XDATA, add(CFA_XSP16, literal(-20)))
        CFI (cfiCond47) V1 load(1, XDATA, add(CFA_XSP16, literal(-19)))
        CFI (cfiCond47) V2 load(1, XDATA, add(CFA_XSP16, literal(-18)))
        CFI (cfiCond47) V3 load(1, XDATA, add(CFA_XSP16, literal(-17)))
        CFI (cfiCond47) V4 load(1, XDATA, add(CFA_XSP16, literal(-16)))
        CFI (cfiCond47) V5 load(1, XDATA, add(CFA_XSP16, literal(-15)))
        CFI (cfiCond47) V6 load(1, XDATA, add(CFA_XSP16, literal(-14)))
        CFI (cfiCond47) V7 load(1, XDATA, add(CFA_XSP16, literal(-13)))
        CFI (cfiCond47) V8 load(1, XDATA, add(CFA_XSP16, literal(-12)))
        CFI (cfiCond47) V9 load(1, XDATA, add(CFA_XSP16, literal(-11)))
        CFI (cfiCond47) V10 load(1, XDATA, add(CFA_XSP16, literal(-10)))
        CFI (cfiCond47) V11 load(1, XDATA, add(CFA_XSP16, literal(-9)))
        CFI (cfiCond47) V12 load(1, XDATA, add(CFA_XSP16, literal(-8)))
        CFI (cfiCond47) V13 load(1, XDATA, add(CFA_XSP16, literal(-7)))
        CFI (cfiCond47) R7 load(1, XDATA, add(CFA_XSP16, literal(-6)))
        CFI (cfiCond47) ?RET_LOW load(1, XDATA, add(CFA_XSP16, literal(-5)))
        CFI (cfiCond47) ?RET_HIGH load(1, XDATA, add(CFA_XSP16, literal(-4)))
        CFI (cfiCond47) ?BRET_EXT load(1, XDATA, add(CFA_XSP16, literal(-3)))
        CFI (cfiCond47) DPL0 load(1, XDATA, add(CFA_XSP16, literal(-2)))
        CFI (cfiCond47) DPH0 load(1, XDATA, add(CFA_XSP16, literal(-1)))
        CFI (cfiCond47) CFA_SP SP+0
        CFI (cfiCond47) CFA_XSP16 add(XSP16, 36)
        CFI Block cfiCond48 Using cfiCommon0
        CFI (cfiCond48) NoFunction
        CFI (cfiCond48) Conditional ??CrossCallReturnLabel_21, ??CrossCallReturnLabel_0
        CFI (cfiCond48) R6 load(1, XDATA, add(CFA_XSP16, literal(-14)))
        CFI (cfiCond48) VB load(1, XDATA, add(CFA_XSP16, literal(-13)))
        CFI (cfiCond48) V0 load(1, XDATA, add(CFA_XSP16, literal(-12)))
        CFI (cfiCond48) V1 load(1, XDATA, add(CFA_XSP16, literal(-11)))
        CFI (cfiCond48) V2 load(1, XDATA, add(CFA_XSP16, literal(-10)))
        CFI (cfiCond48) V3 load(1, XDATA, add(CFA_XSP16, literal(-9)))
        CFI (cfiCond48) V4 load(1, XDATA, add(CFA_XSP16, literal(-8)))
        CFI (cfiCond48) V5 load(1, XDATA, add(CFA_XSP16, literal(-7)))
        CFI (cfiCond48) R7 load(1, XDATA, add(CFA_XSP16, literal(-6)))
        CFI (cfiCond48) ?RET_LOW load(1, XDATA, add(CFA_XSP16, literal(-5)))
        CFI (cfiCond48) ?RET_HIGH load(1, XDATA, add(CFA_XSP16, literal(-4)))
        CFI (cfiCond48) ?BRET_EXT load(1, XDATA, add(CFA_XSP16, literal(-3)))
        CFI (cfiCond48) DPL0 load(1, XDATA, add(CFA_XSP16, literal(-2)))
        CFI (cfiCond48) DPH0 load(1, XDATA, add(CFA_XSP16, literal(-1)))
        CFI (cfiCond48) CFA_SP SP+0
        CFI (cfiCond48) CFA_XSP16 add(XSP16, 28)
        CFI Block cfiCond49 Using cfiCommon0
        CFI (cfiCond49) NoFunction
        CFI (cfiCond49) Conditional ??CrossCallReturnLabel_21, ??CrossCallReturnLabel_1
        CFI (cfiCond49) R6 load(1, XDATA, add(CFA_XSP16, literal(-22)))
        CFI (cfiCond49) VB load(1, XDATA, add(CFA_XSP16, literal(-21)))
        CFI (cfiCond49) V0 load(1, XDATA, add(CFA_XSP16, literal(-20)))
        CFI (cfiCond49) V1 load(1, XDATA, add(CFA_XSP16, literal(-19)))
        CFI (cfiCond49) V2 load(1, XDATA, add(CFA_XSP16, literal(-18)))
        CFI (cfiCond49) V3 load(1, XDATA, add(CFA_XSP16, literal(-17)))
        CFI (cfiCond49) V4 load(1, XDATA, add(CFA_XSP16, literal(-16)))
        CFI (cfiCond49) V5 load(1, XDATA, add(CFA_XSP16, literal(-15)))
        CFI (cfiCond49) V6 load(1, XDATA, add(CFA_XSP16, literal(-14)))
        CFI (cfiCond49) V7 load(1, XDATA, add(CFA_XSP16, literal(-13)))
        CFI (cfiCond49) V8 load(1, XDATA, add(CFA_XSP16, literal(-12)))
        CFI (cfiCond49) V9 load(1, XDATA, add(CFA_XSP16, literal(-11)))
        CFI (cfiCond49) V10 load(1, XDATA, add(CFA_XSP16, literal(-10)))
        CFI (cfiCond49) V11 load(1, XDATA, add(CFA_XSP16, literal(-9)))
        CFI (cfiCond49) V12 load(1, XDATA, add(CFA_XSP16, literal(-8)))
        CFI (cfiCond49) V13 load(1, XDATA, add(CFA_XSP16, literal(-7)))
        CFI (cfiCond49) R7 load(1, XDATA, add(CFA_XSP16, literal(-6)))
        CFI (cfiCond49) ?RET_LOW load(1, XDATA, add(CFA_XSP16, literal(-5)))
        CFI (cfiCond49) ?RET_HIGH load(1, XDATA, add(CFA_XSP16, literal(-4)))
        CFI (cfiCond49) ?BRET_EXT load(1, XDATA, add(CFA_XSP16, literal(-3)))
        CFI (cfiCond49) DPL0 load(1, XDATA, add(CFA_XSP16, literal(-2)))
        CFI (cfiCond49) DPH0 load(1, XDATA, add(CFA_XSP16, literal(-1)))
        CFI (cfiCond49) CFA_SP SP+0
        CFI (cfiCond49) CFA_XSP16 add(XSP16, 36)
        CFI Block cfiPicker50 Using cfiCommon1
        CFI (cfiPicker50) NoFunction
        CFI (cfiPicker50) Picker
        MOVX    A,@DPTR
        MOV     R2,A
        INC     DPTR
        MOVX    A,@DPTR
        MOV     R1,A
        MOV     A,R2
        RET
        CFI EndBlock cfiCond45
        CFI EndBlock cfiCond46
        CFI EndBlock cfiCond47
        CFI EndBlock cfiCond48
        CFI EndBlock cfiCond49
        CFI EndBlock cfiPicker50

        RSEG BANKED_CODE:CODE:NOROOT(0)
?Subroutine2:
        CFI Block cfiCond51 Using cfiCommon0
        CFI NoFunction
        CFI Conditional ??CrossCallReturnLabel_0
        CFI R6 load(1, XDATA, add(CFA_XSP16, literal(-14)))
        CFI VB load(1, XDATA, add(CFA_XSP16, literal(-13)))
        CFI V0 load(1, XDATA, add(CFA_XSP16, literal(-12)))
        CFI V1 load(1, XDATA, add(CFA_XSP16, literal(-11)))
        CFI V2 load(1, XDATA, add(CFA_XSP16, literal(-10)))
        CFI V3 load(1, XDATA, add(CFA_XSP16, literal(-9)))
        CFI V4 load(1, XDATA, add(CFA_XSP16, literal(-8)))
        CFI V5 load(1, XDATA, add(CFA_XSP16, literal(-7)))
        CFI R7 load(1, XDATA, add(CFA_XSP16, literal(-6)))
        CFI ?RET_LOW load(1, XDATA, add(CFA_XSP16, literal(-5)))
        CFI ?RET_HIGH load(1, XDATA, add(CFA_XSP16, literal(-4)))
        CFI ?BRET_EXT load(1, XDATA, add(CFA_XSP16, literal(-3)))
        CFI DPL0 load(1, XDATA, add(CFA_XSP16, literal(-2)))
        CFI DPH0 load(1, XDATA, add(CFA_XSP16, literal(-1)))
        CFI CFA_SP SP+0
        CFI CFA_XSP16 add(XSP16, 28)
        CFI Block cfiCond52 Using cfiCommon0
        CFI (cfiCond52) NoFunction
        CFI (cfiCond52) Conditional ??CrossCallReturnLabel_1
        CFI (cfiCond52) R6 load(1, XDATA, add(CFA_XSP16, literal(-22)))
        CFI (cfiCond52) VB load(1, XDATA, add(CFA_XSP16, literal(-21)))
        CFI (cfiCond52) V0 load(1, XDATA, add(CFA_XSP16, literal(-20)))
        CFI (cfiCond52) V1 load(1, XDATA, add(CFA_XSP16, literal(-19)))
        CFI (cfiCond52) V2 load(1, XDATA, add(CFA_XSP16, literal(-18)))
        CFI (cfiCond52) V3 load(1, XDATA, add(CFA_XSP16, literal(-17)))
        CFI (cfiCond52) V4 load(1, XDATA, add(CFA_XSP16, literal(-16)))
        CFI (cfiCond52) V5 load(1, XDATA, add(CFA_XSP16, literal(-15)))
        CFI (cfiCond52) V6 load(1, XDATA, add(CFA_XSP16, literal(-14)))
        CFI (cfiCond52) V7 load(1, XDATA, add(CFA_XSP16, literal(-13)))
        CFI (cfiCond52) V8 load(1, XDATA, add(CFA_XSP16, literal(-12)))
        CFI (cfiCond52) V9 load(1, XDATA, add(CFA_XSP16, literal(-11)))
        CFI (cfiCond52) V10 load(1, XDATA, add(CFA_XSP16, literal(-10)))
        CFI (cfiCond52) V11 load(1, XDATA, add(CFA_XSP16, literal(-9)))
        CFI (cfiCond52) V12 load(1, XDATA, add(CFA_XSP16, literal(-8)))
        CFI (cfiCond52) V13 load(1, XDATA, add(CFA_XSP16, literal(-7)))
        CFI (cfiCond52) R7 load(1, XDATA, add(CFA_XSP16, literal(-6)))
        CFI (cfiCond52) ?RET_LOW load(1, XDATA, add(CFA_XSP16, literal(-5)))
        CFI (cfiCond52) ?RET_HIGH load(1, XDATA, add(CFA_XSP16, literal(-4)))
        CFI (cfiCond52) ?BRET_EXT load(1, XDATA, add(CFA_XSP16, literal(-3)))
        CFI (cfiCond52) DPL0 load(1, XDATA, add(CFA_XSP16, literal(-2)))
        CFI (cfiCond52) DPH0 load(1, XDATA, add(CFA_XSP16, literal(-1)))
        CFI (cfiCond52) CFA_SP SP+0
        CFI (cfiCond52) CFA_XSP16 add(XSP16, 36)
        CFI Block cfiPicker53 Using cfiCommon1
        CFI (cfiPicker53) NoFunction
        CFI (cfiPicker53) Picker
        LCALL   ?Subroutine15 & 0xFFFF
??CrossCallReturnLabel_21:
        MOV     ?V0 + 2,A
        MOV     A,R1
        MOV     ?V0 + 3,A
        RET
        CFI EndBlock cfiCond51
        CFI EndBlock cfiCond52
        CFI EndBlock cfiPicker53
//  344 #endif
//  345 
//  346 #if defined INTER_PAN
//  347 /***************************************************************************************************
//  348  * @fn      MT_AfInterPanCtl
//  349  *
//  350  * @brief   Process the AF Inter Pan control command.
//  351  *
//  352  * @param   pBuf - pointer to the received buffer
//  353  *
//  354  * @return  none
//  355  ***************************************************************************************************/
//  356 static void MT_AfInterPanCtl(uint8 *pBuf)
//  357 {
//  358   uint8 cmd, rtrn;
//  359   uint16 panId;
//  360   endPointDesc_t *pEP;
//  361   
//  362   cmd = pBuf[MT_RPC_POS_CMD1];
//  363   pBuf += MT_RPC_FRAME_HDR_SZ;
//  364 
//  365   switch (*pBuf++)  // Inter-pan request parameter.
//  366   {
//  367   case InterPanClr:
//  368     rtrn = StubAPS_SetIntraPanChannel();           // Switch channel back to the NIB channel.
//  369     break;
//  370 
//  371   case InterPanSet:
//  372     rtrn = StubAPS_SetInterPanChannel(*pBuf);      // Set channel for inter-pan communication.
//  373     break;
//  374 
//  375   case InterPanReg:
//  376     if ((pEP = afFindEndPointDesc(*pBuf)))
//  377     {
//  378       StubAPS_RegisterApp(pEP);
//  379       rtrn = SUCCESS;
//  380     }
//  381     else
//  382     {
//  383       rtrn = FAILURE;
//  384     }
//  385     break;
//  386 
//  387   case InterPanChk:
//  388     panId = BUILD_UINT16(pBuf[0], pBuf[1]);
//  389     rtrn = (StubAPS_InterPan(panId, pBuf[2])) ? ZSuccess : ZFailure;
//  390     break;
//  391 
//  392   default:
//  393     rtrn = afStatus_INVALID_PARAMETER;
//  394     break;
//  395   }
//  396 
//  397   MT_BuildAndSendZToolResponse(((uint8)MT_RPC_CMD_SRSP | (uint8)MT_RPC_SYS_AF), cmd, 1, &rtrn);
//  398 }
//  399 #endif
//  400 
//  401 /***************************************************************************************************
//  402  * @fn      MT_AfDataConfirm
//  403  *
//  404  * @brief   Process
//  405  *
//  406  * @param   pBuf - pointer to the received buffer
//  407  *
//  408  * @return  none
//  409  ***************************************************************************************************/

        RSEG BANKED_CODE:CODE:NOROOT(0)
//  410 void MT_AfDataConfirm(afDataConfirm_t *pMsg)
MT_AfDataConfirm:
        CFI Block cfiBlock54 Using cfiCommon0
        CFI Function MT_AfDataConfirm
//  411 {
        FUNCALL MT_AfDataConfirm, MT_BuildAndSendZToolResponse
        LOCFRAME ISTACK, 2, STACK
        LOCFRAME PSTACK, 0, STACK
        LOCFRAME XSTACK, 3, STACK
        LOCFRAME IOVERLAY, 0, STATIC
        LOCFRAME DOVERLAY, 0, STATIC
        ARGFRAME ISTACK, 2, STACK
        ARGFRAME PSTACK, 0, STACK
        ARGFRAME XSTACK, 3, STACK
        ARGFRAME IOVERLAY, 0, STATIC
        ARGFRAME DOVERLAY, 0, STATIC
        PUSH    DPL
        CFI DPL0 Frame(CFA_SP, 4)
        CFI CFA_SP SP+-4
        PUSH    DPH
        CFI DPH0 Frame(CFA_SP, 5)
        CFI CFA_SP SP+-5
        ; Saved register size: 2
        ; Auto size: 3
        MOV     A,#-0x3
        LCALL   ?ALLOC_XSTACK8
        CFI CFA_XSP16 add(XSP16, 3)
//  412   uint8 retArray[3];
//  413 
//  414   retArray[0] = pMsg->hdr.status;
        MOV     DPL,R2
        MOV     DPH,R3
        INC     DPTR
        MOVX    A,@DPTR
        LCALL   ?Subroutine12 & 0xFFFF
//  415   retArray[1] = pMsg->endpoint;
??CrossCallReturnLabel_16:
        PUSH    A
        CFI CFA_SP SP+-6
        MOV     A,#0x1
        LCALL   ?XSTACK_DISP0_8
        POP     A
        CFI CFA_SP SP+-5
        LCALL   ?Subroutine13 & 0xFFFF
//  416   retArray[2] = pMsg->transID;
??CrossCallReturnLabel_18:
        INC     DPTR
        INC     DPTR
        MOVX    A,@DPTR
        PUSH    A
        CFI CFA_SP SP+-6
        MOV     A,#0x2
        LCALL   ?XSTACK_DISP0_8
        POP     A
        CFI CFA_SP SP+-5
        MOVX    @DPTR,A
//  417 
//  418   /* Build and send back the response */
//  419   MT_BuildAndSendZToolResponse(((uint8)MT_RPC_CMD_AREQ | (uint8)MT_RPC_SYS_AF), MT_AF_DATA_CONFIRM, 3, retArray);
        ; Setup parameters for call to function MT_BuildAndSendZToolResponse
        MOV     DPL,?XSP + 0
        MOV     DPH,?XSP + 1
        MOV     R4,DPL
        MOV     R5,DPH
        MOV     R3,#0x3
        MOV     R2,#-0x80
        MOV     R1,#0x44
        LCALL   ??MT_BuildAndSendZToolResponse?relay
//  420 }
        MOV     A,#0x3
        LCALL   ?DEALLOC_XSTACK8
        CFI CFA_XSP16 XSP16+0
        POP     DPH
        CFI DPH0 SameValue
        CFI CFA_SP SP+-4
        POP     DPL
        CFI DPL0 SameValue
        CFI CFA_SP SP+-3
        LJMP    ?BRET
        CFI EndBlock cfiBlock54

        RSEG BANKED_CODE:CODE:NOROOT(0)
?Subroutine13:
        CFI Block cfiCond55 Using cfiCommon0
        CFI NoFunction
        CFI Conditional ??CrossCallReturnLabel_17
        CFI R6 load(1, XDATA, add(CFA_XSP16, literal(-14)))
        CFI VB load(1, XDATA, add(CFA_XSP16, literal(-13)))
        CFI V0 load(1, XDATA, add(CFA_XSP16, literal(-12)))
        CFI V1 load(1, XDATA, add(CFA_XSP16, literal(-11)))
        CFI V2 load(1, XDATA, add(CFA_XSP16, literal(-10)))
        CFI V3 load(1, XDATA, add(CFA_XSP16, literal(-9)))
        CFI V4 load(1, XDATA, add(CFA_XSP16, literal(-8)))
        CFI V5 load(1, XDATA, add(CFA_XSP16, literal(-7)))
        CFI R7 load(1, XDATA, add(CFA_XSP16, literal(-6)))
        CFI ?RET_LOW load(1, XDATA, add(CFA_XSP16, literal(-5)))
        CFI ?RET_HIGH load(1, XDATA, add(CFA_XSP16, literal(-4)))
        CFI ?BRET_EXT load(1, XDATA, add(CFA_XSP16, literal(-3)))
        CFI DPL0 load(1, XDATA, add(CFA_XSP16, literal(-2)))
        CFI DPH0 load(1, XDATA, add(CFA_XSP16, literal(-1)))
        CFI CFA_SP SP+0
        CFI CFA_XSP16 add(XSP16, 28)
        CFI Block cfiCond56 Using cfiCommon0
        CFI (cfiCond56) NoFunction
        CFI (cfiCond56) Conditional ??CrossCallReturnLabel_18
        CFI (cfiCond56) DPL0 Frame(CFA_SP, 4)
        CFI (cfiCond56) DPH0 Frame(CFA_SP, 5)
        CFI (cfiCond56) CFA_SP SP+-5
        CFI (cfiCond56) CFA_XSP16 add(XSP16, 3)
        CFI Block cfiCond57 Using cfiCommon0
        CFI (cfiCond57) NoFunction
        CFI (cfiCond57) Conditional ??CrossCallReturnLabel_19
        CFI (cfiCond57) R6 load(1, XDATA, add(CFA_XSP16, literal(-22)))
        CFI (cfiCond57) VB load(1, XDATA, add(CFA_XSP16, literal(-21)))
        CFI (cfiCond57) V0 load(1, XDATA, add(CFA_XSP16, literal(-20)))
        CFI (cfiCond57) V1 load(1, XDATA, add(CFA_XSP16, literal(-19)))
        CFI (cfiCond57) V2 load(1, XDATA, add(CFA_XSP16, literal(-18)))
        CFI (cfiCond57) V3 load(1, XDATA, add(CFA_XSP16, literal(-17)))
        CFI (cfiCond57) V4 load(1, XDATA, add(CFA_XSP16, literal(-16)))
        CFI (cfiCond57) V5 load(1, XDATA, add(CFA_XSP16, literal(-15)))
        CFI (cfiCond57) V6 load(1, XDATA, add(CFA_XSP16, literal(-14)))
        CFI (cfiCond57) V7 load(1, XDATA, add(CFA_XSP16, literal(-13)))
        CFI (cfiCond57) V8 load(1, XDATA, add(CFA_XSP16, literal(-12)))
        CFI (cfiCond57) V9 load(1, XDATA, add(CFA_XSP16, literal(-11)))
        CFI (cfiCond57) V10 load(1, XDATA, add(CFA_XSP16, literal(-10)))
        CFI (cfiCond57) V11 load(1, XDATA, add(CFA_XSP16, literal(-9)))
        CFI (cfiCond57) V12 load(1, XDATA, add(CFA_XSP16, literal(-8)))
        CFI (cfiCond57) V13 load(1, XDATA, add(CFA_XSP16, literal(-7)))
        CFI (cfiCond57) R7 load(1, XDATA, add(CFA_XSP16, literal(-6)))
        CFI (cfiCond57) ?RET_LOW load(1, XDATA, add(CFA_XSP16, literal(-5)))
        CFI (cfiCond57) ?RET_HIGH load(1, XDATA, add(CFA_XSP16, literal(-4)))
        CFI (cfiCond57) ?BRET_EXT load(1, XDATA, add(CFA_XSP16, literal(-3)))
        CFI (cfiCond57) DPL0 load(1, XDATA, add(CFA_XSP16, literal(-2)))
        CFI (cfiCond57) DPH0 load(1, XDATA, add(CFA_XSP16, literal(-1)))
        CFI (cfiCond57) CFA_SP SP+0
        CFI (cfiCond57) CFA_XSP16 add(XSP16, 22)
        CFI Block cfiPicker58 Using cfiCommon1
        CFI (cfiPicker58) NoFunction
        CFI (cfiPicker58) Picker
        MOVX    @DPTR,A
        MOV     DPL,R2
        MOV     DPH,R3
        INC     DPTR
        RET
        CFI EndBlock cfiCond55
        CFI EndBlock cfiCond56
        CFI EndBlock cfiCond57
        CFI EndBlock cfiPicker58

        RSEG BANKED_CODE:CODE:NOROOT(0)
?Subroutine12:
        CFI Block cfiCond59 Using cfiCommon0
        CFI NoFunction
        CFI Conditional ??CrossCallReturnLabel_15
        CFI R6 load(1, XDATA, add(CFA_XSP16, literal(-14)))
        CFI VB load(1, XDATA, add(CFA_XSP16, literal(-13)))
        CFI V0 load(1, XDATA, add(CFA_XSP16, literal(-12)))
        CFI V1 load(1, XDATA, add(CFA_XSP16, literal(-11)))
        CFI V2 load(1, XDATA, add(CFA_XSP16, literal(-10)))
        CFI V3 load(1, XDATA, add(CFA_XSP16, literal(-9)))
        CFI V4 load(1, XDATA, add(CFA_XSP16, literal(-8)))
        CFI V5 load(1, XDATA, add(CFA_XSP16, literal(-7)))
        CFI R7 load(1, XDATA, add(CFA_XSP16, literal(-6)))
        CFI ?RET_LOW load(1, XDATA, add(CFA_XSP16, literal(-5)))
        CFI ?RET_HIGH load(1, XDATA, add(CFA_XSP16, literal(-4)))
        CFI ?BRET_EXT load(1, XDATA, add(CFA_XSP16, literal(-3)))
        CFI DPL0 load(1, XDATA, add(CFA_XSP16, literal(-2)))
        CFI DPH0 load(1, XDATA, add(CFA_XSP16, literal(-1)))
        CFI CFA_SP SP+0
        CFI CFA_XSP16 add(XSP16, 15)
        CFI Block cfiCond60 Using cfiCommon0
        CFI (cfiCond60) NoFunction
        CFI (cfiCond60) Conditional ??CrossCallReturnLabel_16
        CFI (cfiCond60) DPL0 Frame(CFA_SP, 4)
        CFI (cfiCond60) DPH0 Frame(CFA_SP, 5)
        CFI (cfiCond60) CFA_SP SP+-5
        CFI (cfiCond60) CFA_XSP16 add(XSP16, 3)
        CFI Block cfiPicker61 Using cfiCommon1
        CFI (cfiPicker61) NoFunction
        CFI (cfiPicker61) Picker
        MOV     DPL,?XSP + 0
        MOV     DPH,?XSP + 1
        MOVX    @DPTR,A
        MOV     DPL,R2
        MOV     DPH,R3
        INC     DPTR
        INC     DPTR
        MOVX    A,@DPTR
        RET
        CFI EndBlock cfiCond59
        CFI EndBlock cfiCond60
        CFI EndBlock cfiPicker61
//  421 
//  422 /***************************************************************************************************
//  423  * @fn          MT_AfIncomingMsg
//  424  *
//  425  * @brief       Process the callback subscription for AF Incoming data.
//  426  *
//  427  * @param       pkt - Incoming AF data.
//  428  *
//  429  * @return      none
//  430  ***************************************************************************************************/

        RSEG BANKED_CODE:CODE:NOROOT(0)
//  431 void MT_AfIncomingMsg(afIncomingMSGPacket_t *pMsg)
MT_AfIncomingMsg:
        CFI Block cfiBlock62 Using cfiCommon0
        CFI Function MT_AfIncomingMsg
//  432 {
        FUNCALL MT_AfIncomingMsg, osal_mem_alloc
        LOCFRAME ISTACK, 0, STACK
        LOCFRAME PSTACK, 0, STACK
        LOCFRAME XSTACK, 22, STACK
        LOCFRAME IOVERLAY, 0, STATIC
        LOCFRAME DOVERLAY, 0, STATIC
        ARGFRAME ISTACK, 0, STACK
        ARGFRAME PSTACK, 0, STACK
        ARGFRAME XSTACK, 22, STACK
        ARGFRAME IOVERLAY, 0, STATIC
        ARGFRAME DOVERLAY, 0, STATIC
        FUNCALL MT_AfIncomingMsg, osal_memcpy
        LOCFRAME ISTACK, 0, STACK
        LOCFRAME PSTACK, 0, STACK
        LOCFRAME XSTACK, 25, STACK
        LOCFRAME IOVERLAY, 0, STATIC
        LOCFRAME DOVERLAY, 0, STATIC
        ARGFRAME ISTACK, 0, STACK
        ARGFRAME PSTACK, 0, STACK
        ARGFRAME XSTACK, 25, STACK
        ARGFRAME IOVERLAY, 0, STATIC
        ARGFRAME DOVERLAY, 0, STATIC
        FUNCALL MT_AfIncomingMsg, osal_memcpy
        LOCFRAME ISTACK, 0, STACK
        LOCFRAME PSTACK, 0, STACK
        LOCFRAME XSTACK, 25, STACK
        LOCFRAME IOVERLAY, 0, STATIC
        LOCFRAME DOVERLAY, 0, STATIC
        ARGFRAME ISTACK, 0, STACK
        ARGFRAME PSTACK, 0, STACK
        ARGFRAME XSTACK, 25, STACK
        ARGFRAME IOVERLAY, 0, STATIC
        ARGFRAME DOVERLAY, 0, STATIC
        FUNCALL MT_AfIncomingMsg, MT_BuildAndSendZToolResponse
        LOCFRAME ISTACK, 0, STACK
        LOCFRAME PSTACK, 0, STACK
        LOCFRAME XSTACK, 22, STACK
        LOCFRAME IOVERLAY, 0, STATIC
        LOCFRAME DOVERLAY, 0, STATIC
        ARGFRAME ISTACK, 0, STACK
        ARGFRAME PSTACK, 0, STACK
        ARGFRAME XSTACK, 22, STACK
        ARGFRAME IOVERLAY, 0, STATIC
        ARGFRAME DOVERLAY, 0, STATIC
        FUNCALL MT_AfIncomingMsg, osal_mem_free
        LOCFRAME ISTACK, 0, STACK
        LOCFRAME PSTACK, 0, STACK
        LOCFRAME XSTACK, 22, STACK
        LOCFRAME IOVERLAY, 0, STATIC
        LOCFRAME DOVERLAY, 0, STATIC
        ARGFRAME ISTACK, 0, STACK
        ARGFRAME PSTACK, 0, STACK
        ARGFRAME XSTACK, 22, STACK
        ARGFRAME IOVERLAY, 0, STATIC
        ARGFRAME DOVERLAY, 0, STATIC
        MOV     A,#-0x16
        LCALL   ?BANKED_ENTER_XDATA
        CFI DPH0 load(1, XDATA, add(CFA_XSP16, literal(-1)))
        CFI DPL0 load(1, XDATA, add(CFA_XSP16, literal(-2)))
        CFI ?BRET_EXT load(1, XDATA, add(CFA_XSP16, literal(-3)))
        CFI ?RET_HIGH load(1, XDATA, add(CFA_XSP16, literal(-4)))
        CFI ?RET_LOW load(1, XDATA, add(CFA_XSP16, literal(-5)))
        CFI R7 load(1, XDATA, add(CFA_XSP16, literal(-6)))
        CFI V13 load(1, XDATA, add(CFA_XSP16, literal(-7)))
        CFI V12 load(1, XDATA, add(CFA_XSP16, literal(-8)))
        CFI V11 load(1, XDATA, add(CFA_XSP16, literal(-9)))
        CFI V10 load(1, XDATA, add(CFA_XSP16, literal(-10)))
        CFI V9 load(1, XDATA, add(CFA_XSP16, literal(-11)))
        CFI V8 load(1, XDATA, add(CFA_XSP16, literal(-12)))
        CFI V7 load(1, XDATA, add(CFA_XSP16, literal(-13)))
        CFI V6 load(1, XDATA, add(CFA_XSP16, literal(-14)))
        CFI V5 load(1, XDATA, add(CFA_XSP16, literal(-15)))
        CFI V4 load(1, XDATA, add(CFA_XSP16, literal(-16)))
        CFI V3 load(1, XDATA, add(CFA_XSP16, literal(-17)))
        CFI V2 load(1, XDATA, add(CFA_XSP16, literal(-18)))
        CFI V1 load(1, XDATA, add(CFA_XSP16, literal(-19)))
        CFI V0 load(1, XDATA, add(CFA_XSP16, literal(-20)))
        CFI VB load(1, XDATA, add(CFA_XSP16, literal(-21)))
        CFI R6 load(1, XDATA, add(CFA_XSP16, literal(-22)))
        CFI CFA_SP SP+0
        CFI CFA_XSP16 add(XSP16, 22)
        ; Saved register size: 22
        ; Auto size: 0
        MOV     ?V0 + 0,R2
        MOV     ?V0 + 1,R3
//  433   uint8 dataLen = pMsg->cmd.DataLength;  /* Length of the data section in the response packet */
        MOV     A,R2
        ADD     A,#0x1f
        MOV     DPL,A
        MOV     A,R3
        ADDC    A,#0x0
        MOV     DPH,A
        MOVX    A,@DPTR
        MOV     ?V0 + 8,A
//  434   uint8 respLen = 17 + dataLen;          /* Length of the whole response packet */
        MOV     A,#0x11
        ADD     A,?V0 + 8
        MOV     ?V0 + 3,A
//  435   uint8 cmd = MT_AF_INCOMING_MSG;
        MOV     ?V0 + 2,#-0x7f
//  436   uint8 *pRsp, *tempPtr;
//  437 
//  438 #if defined INTER_PAN
//  439   if (StubAPS_InterPan(pMsg->srcAddr.panId, pMsg->srcAddr.endPoint))
//  440   {
//  441     cmd = MT_AF_INCOMING_MSG_EXT;
//  442   }
//  443   else
//  444 #endif
//  445   if (pMsg->srcAddr.addrMode == afAddr64Bit)
        MOV     A,R2
        ADD     A,#0xe
        MOV     ?V0 + 4,A
        MOV     A,R3
        LCALL   ??Subroutine24_0 & 0xFFFF
??CrossCallReturnLabel_30:
        XRL     A,#0x3
        JNZ     ??MT_AfIncomingMsg_0
//  446   {
//  447     cmd = MT_AF_INCOMING_MSG_EXT;
        MOV     ?V0 + 2,#-0x7e
//  448   }
//  449 
//  450   if (cmd == MT_AF_INCOMING_MSG_EXT)
//  451   {
//  452     respLen += 9;
        MOV     A,#0x9
        ADD     A,?V0 + 3
        MOV     ?V0 + 3,A
//  453   }
//  454 
//  455   // Attempt to allocate memory for the response packet.
//  456   if ((pRsp = osal_mem_alloc(respLen)) == NULL)
??MT_AfIncomingMsg_0:
        ; Setup parameters for call to function osal_mem_alloc
        MOV     R2,?V0 + 3
        MOV     R3,#0x0
        LCALL   ??osal_mem_alloc?relay
        MOV     ?V0 + 10,R2
        MOV     ?V0 + 11,R3
        MOV     A,R2
        JNZ     ??MT_AfIncomingMsg_1
        MOV     A,R3
??MT_AfIncomingMsg_1:
        JNZ     $+5
        LJMP    ??MT_AfIncomingMsg_2 & 0xFFFF
//  457   {
//  458     return;
//  459   }
//  460   tempPtr = pRsp;
        MOV     R6,?V0 + 10
        MOV     R7,?V0 + 11
//  461 
//  462   /* Fill in the data */
//  463 
//  464   /* Group ID */
//  465   *tempPtr++ = LO_UINT16(pMsg->groupId);
        MOV     A,?V0 + 0
        ADD     A,#0x2
        MOV     R0,A
        MOV     A,?V0 + 1
        ADDC    A,#0x0
        MOV     R1,A
        MOV     DPL,R0
        MOV     DPH,R1
        LCALL   ?Subroutine3 & 0xFFFF
//  466   *tempPtr++ = HI_UINT16(pMsg->groupId);
??CrossCallReturnLabel_2:
        MOV     DPL,R0
        MOV     DPH,R1
        INC     DPTR
        LCALL   ??Subroutine28_0 & 0xFFFF
//  467 
//  468   /* Cluster ID */
//  469   *tempPtr++ = LO_UINT16(pMsg->clusterId);
??CrossCallReturnLabel_48:
        ADD     A,#0x4
        INC     R0
        INC     R0
        MOV     A,?V0 + 1
        ADDC    A,#0x0
        MOV     R1,A
        MOV     DPL,R0
        MOV     DPH,R1
        LCALL   ??Subroutine27_0 & 0xFFFF
//  470   *tempPtr++ = HI_UINT16(pMsg->clusterId);
??CrossCallReturnLabel_42:
        MOV     DPL,R0
        MOV     DPH,R1
        LCALL   ?Subroutine1 & 0xFFFF
//  471 
//  472   if (cmd == MT_AF_INCOMING_MSG_EXT)
??CrossCallReturnLabel_43:
        INC     DPTR
        MOV     R1,DPH
        MOV     A,?V0 + 0
        ADD     A,#0xf
        MOV     ?V0 + 12,A
        MOV     A,?V0 + 1
        ADDC    A,#0x0
        MOV     ?V0 + 13,A
        MOV     A,?V0 + 0
        ADD     A,#0x6
        MOV     R2,A
        MOV     A,?V0 + 1
        ADDC    A,#0x0
        MOV     R3,A
        MOV     A,#-0x7e
        XRL     A,?V0 + 2
        JNZ     ??MT_AfIncomingMsg_3
//  473   {
//  474     *tempPtr++ = pMsg->srcAddr.addrMode;
        MOV     DPL,?V0 + 4
        MOV     DPH,?V0 + 5
        LCALL   ?Subroutine6 & 0xFFFF
//  475 
//  476     if (pMsg->srcAddr.addrMode == afAddr64Bit)
??CrossCallReturnLabel_6:
        MOV     DPL,?V0 + 4
        MOV     DPH,?V0 + 5
        MOVX    A,@DPTR
        XRL     A,#0x3
        JNZ     ??MT_AfIncomingMsg_4
//  477     {
//  478       (void)osal_memcpy(tempPtr, pMsg->srcAddr.addr.extAddr, Z_EXTADDR_LEN);
        ; Setup parameters for call to function osal_memcpy
        MOV     ?V0 + 4,R2
        MOV     ?V0 + 5,R3
        MOV     ?V0 + 6,#0x0
        MOV     R0,#?V0 + 4
        LCALL   ?PUSH_XSTACK_I_THREE
        CFI CFA_XSP16 add(XSP16, 25)
        MOV     R4,#0x8
        MOV     R5,#0x0
        MOV     A,R6
        MOV     R2,A
        MOV     A,R7
        MOV     R3,A
        LCALL   ??osal_memcpy?relay
        MOV     A,#0x3
        LCALL   ?DEALLOC_XSTACK8
        CFI CFA_XSP16 add(XSP16, 22)
        SJMP    ??MT_AfIncomingMsg_5
//  479     }
//  480     else
//  481     {
//  482       tempPtr[0] = LO_UINT16(pMsg->srcAddr.addr.shortAddr);
??MT_AfIncomingMsg_4:
        MOV     DPL,R2
        MOV     DPH,R3
        LCALL   ?Subroutine20 & 0xFFFF
//  483       tempPtr[1] = HI_UINT16(pMsg->srcAddr.addr.shortAddr);
//  484     }
??CrossCallReturnLabel_51:
        LCALL   ?Subroutine13 & 0xFFFF
??CrossCallReturnLabel_19:
        LCALL   ?Subroutine20 & 0xFFFF
??CrossCallReturnLabel_52:
        INC     DPTR
        MOVX    @DPTR,A
//  485     tempPtr += Z_EXTADDR_LEN;
??MT_AfIncomingMsg_5:
        MOV     A,R6
        ADD     A,#0x8
        MOV     R6,A
        MOV     A,R7
        ADDC    A,#0x0
        MOV     R7,A
//  486 
//  487     *tempPtr++ = pMsg->srcAddr.endPoint;
        LCALL   ?Subroutine4 & 0xFFFF
//  488 #if defined INTER_PAN
//  489     *tempPtr++ = LO_UINT16(pMsg->srcAddr.panId);
//  490     *tempPtr++ = HI_UINT16(pMsg->srcAddr.panId);
//  491 #else
//  492     *tempPtr++ = 0;
??CrossCallReturnLabel_37:
        CLR     A
        MOVX    @DPTR,A
        INC     DPTR
//  493     *tempPtr++ = 0;
        MOVX    @DPTR,A
        INC     DPTR
        INC     R6
        INC     R6
        SJMP    ??CrossCallReturnLabel_38
//  494 #endif
//  495   }
//  496   else
//  497   {
//  498     /* Source Address */
//  499     *tempPtr++ = LO_UINT16(pMsg->srcAddr.addr.shortAddr);
??MT_AfIncomingMsg_3:
        MOV     DPL,R2
        MOV     DPH,R3
        LCALL   ?Subroutine6 & 0xFFFF
//  500     *tempPtr++ = HI_UINT16(pMsg->srcAddr.addr.shortAddr);
??CrossCallReturnLabel_7:
        MOV     DPL,R2
        MOV     DPH,R3
        LCALL   ?Subroutine1 & 0xFFFF
//  501 
//  502     /* Source EP */
//  503     *tempPtr++ = pMsg->srcAddr.endPoint;
??CrossCallReturnLabel_44:
        LCALL   ?Subroutine4 & 0xFFFF
//  504   }
??CrossCallReturnLabel_38:
        INC     R6
        MOV     R7,DPH
//  505 
//  506   /* Destination EP */
//  507   *tempPtr++ = pMsg->endPoint;
        MOV     A,?V0 + 0
        ADD     A,#0x14
        MOV     DPL,A
        MOV     A,?V0 + 1
        ADDC    A,#0x0
        MOV     DPH,A
        LCALL   ?Subroutine3 & 0xFFFF
//  508 
//  509   /* WasBroadCast */
//  510   *tempPtr++ = pMsg->wasBroadcast;
??CrossCallReturnLabel_3:
        MOV     A,?V0 + 0
        ADD     A,#0x15
        LCALL   ?Subroutine0 & 0xFFFF
//  511 
//  512   /* LinkQuality */
//  513   *tempPtr++ = pMsg->LinkQuality;
??CrossCallReturnLabel_45:
        ADD     A,#0x16
        LCALL   ?Subroutine0 & 0xFFFF
//  514 
//  515   /* SecurityUse */
//  516   *tempPtr++ = pMsg->SecurityUse;
??CrossCallReturnLabel_46:
        ADD     A,#0x19
        LCALL   ?Subroutine0 & 0xFFFF
//  517 
//  518   /* Timestamp */
//  519   *tempPtr++ = BREAK_UINT32(pMsg->timestamp, 0);
??CrossCallReturnLabel_47:
        ADD     A,#0x1a
        MOV     R2,A
        MOV     A,?V0 + 1
        ADDC    A,#0x0
        MOV     R3,A
        MOV     DPL,R2
        MOV     DPH,R3
        MOV     R0,#?V0 + 4
        LCALL   ?L_MOV_X
        LCALL   ?Subroutine8 & 0xFFFF
//  520   *tempPtr++ = BREAK_UINT32(pMsg->timestamp, 1);
??CrossCallReturnLabel_33:
        LCALL   ?L_MOV_X
        MOV     A,?V0 + 5
        MOV     DPL,R6
        MOV     DPH,R7
        LCALL   ??Subroutine25_0 & 0xFFFF
//  521   *tempPtr++ = BREAK_UINT32(pMsg->timestamp, 2);
??CrossCallReturnLabel_35:
        LCALL   ?L_MOV_X
        MOV     A,#0x10
        MOV     R0,#?V0 + 4
        LCALL   ?UL_SHR
        LCALL   ?Subroutine8 & 0xFFFF
//  522   *tempPtr++ = BREAK_UINT32(pMsg->timestamp, 3);
??CrossCallReturnLabel_34:
        LCALL   ?L_MOV_X
        MOV     A,#0x18
        MOV     R0,#?V0 + 4
        LCALL   ?UL_SHR
        MOV     DPL,R6
        MOV     DPH,R7
        MOV     A,?V0 + 4
        MOVX    @DPTR,A
        INC     DPTR
        INC     R6
        MOV     R7,DPH
//  523 
//  524   /* Transmit Sequence Number */
//  525   *tempPtr++ = pMsg->cmd.TransSeqNumber;
        MOV     A,?V0 + 0
        ADD     A,#0x1e
        MOV     DPL,A
        MOV     A,?V0 + 1
        ADDC    A,#0x0
        MOV     DPH,A
        LCALL   ??Subroutine26_0 & 0xFFFF
//  526 
//  527   /* Data Length */
//  528   *tempPtr++ = dataLen;
??CrossCallReturnLabel_36:
        MOV     A,?V0 + 8
        MOVX    @DPTR,A
        INC     DPTR
        INC     R6
        INC     R6
        MOV     R7,DPH
//  529 
//  530   /* Data */
//  531   if (dataLen)
        JZ      ??MT_AfIncomingMsg_6
//  532   {
//  533     osal_memcpy(tempPtr, pMsg->cmd.Data, dataLen);
        ; Setup parameters for call to function osal_memcpy
        MOV     A,?V0 + 0
        ADD     A,#0x21
        MOV     DPL,A
        MOV     A,?V0 + 1
        ADDC    A,#0x0
        MOV     DPH,A
        MOVX    A,@DPTR
        MOV     ?V0 + 4,A
        INC     DPTR
        MOVX    A,@DPTR
        MOV     ?V0 + 5,A
        MOV     R0,#?V0 + 4
        LCALL   ?PUSH_XSTACK_I_THREE
        CFI CFA_XSP16 add(XSP16, 25)
        MOV     R4,?V0 + 8
        MOV     R5,#0x0
        MOV     A,R6
        MOV     R2,A
        MOV     A,R7
        MOV     R3,A
        LCALL   ??osal_memcpy?relay
        MOV     A,#0x3
        LCALL   ?DEALLOC_XSTACK8
        CFI CFA_XSP16 add(XSP16, 22)
//  534   }
//  535 
//  536   /* Build and send back the response */
//  537   MT_BuildAndSendZToolResponse(((uint8)MT_RPC_CMD_AREQ|(uint8)MT_RPC_SYS_AF), cmd, respLen, pRsp);
??MT_AfIncomingMsg_6:
        ; Setup parameters for call to function MT_BuildAndSendZToolResponse
        MOV     R4,?V0 + 10
        MOV     R5,?V0 + 11
        MOV     R3,?V0 + 3
        MOV     R2,?V0 + 2
        MOV     R1,#0x44
        LCALL   ??MT_BuildAndSendZToolResponse?relay
//  538 
//  539   /* Free memory */
//  540   osal_mem_free(pRsp);
        ; Setup parameters for call to function osal_mem_free
        MOV     R2,?V0 + 10
        MOV     R3,?V0 + 11
        LCALL   ??osal_mem_free?relay
//  541 }
??MT_AfIncomingMsg_2:
        LJMP    ?Subroutine22 & 0xFFFF
        CFI EndBlock cfiBlock62

        RSEG BANKED_CODE:CODE:NOROOT(0)
?Subroutine8:
        CFI Block cfiCond63 Using cfiCommon0
        CFI NoFunction
        CFI Conditional ??CrossCallReturnLabel_33
        CFI R6 load(1, XDATA, add(CFA_XSP16, literal(-22)))
        CFI VB load(1, XDATA, add(CFA_XSP16, literal(-21)))
        CFI V0 load(1, XDATA, add(CFA_XSP16, literal(-20)))
        CFI V1 load(1, XDATA, add(CFA_XSP16, literal(-19)))
        CFI V2 load(1, XDATA, add(CFA_XSP16, literal(-18)))
        CFI V3 load(1, XDATA, add(CFA_XSP16, literal(-17)))
        CFI V4 load(1, XDATA, add(CFA_XSP16, literal(-16)))
        CFI V5 load(1, XDATA, add(CFA_XSP16, literal(-15)))
        CFI V6 load(1, XDATA, add(CFA_XSP16, literal(-14)))
        CFI V7 load(1, XDATA, add(CFA_XSP16, literal(-13)))
        CFI V8 load(1, XDATA, add(CFA_XSP16, literal(-12)))
        CFI V9 load(1, XDATA, add(CFA_XSP16, literal(-11)))
        CFI V10 load(1, XDATA, add(CFA_XSP16, literal(-10)))
        CFI V11 load(1, XDATA, add(CFA_XSP16, literal(-9)))
        CFI V12 load(1, XDATA, add(CFA_XSP16, literal(-8)))
        CFI V13 load(1, XDATA, add(CFA_XSP16, literal(-7)))
        CFI R7 load(1, XDATA, add(CFA_XSP16, literal(-6)))
        CFI ?RET_LOW load(1, XDATA, add(CFA_XSP16, literal(-5)))
        CFI ?RET_HIGH load(1, XDATA, add(CFA_XSP16, literal(-4)))
        CFI ?BRET_EXT load(1, XDATA, add(CFA_XSP16, literal(-3)))
        CFI DPL0 load(1, XDATA, add(CFA_XSP16, literal(-2)))
        CFI DPH0 load(1, XDATA, add(CFA_XSP16, literal(-1)))
        CFI CFA_SP SP+0
        CFI CFA_XSP16 add(XSP16, 22)
        CFI Block cfiCond64 Using cfiCommon0
        CFI (cfiCond64) NoFunction
        CFI (cfiCond64) Conditional ??CrossCallReturnLabel_34
        CFI (cfiCond64) R6 load(1, XDATA, add(CFA_XSP16, literal(-22)))
        CFI (cfiCond64) VB load(1, XDATA, add(CFA_XSP16, literal(-21)))
        CFI (cfiCond64) V0 load(1, XDATA, add(CFA_XSP16, literal(-20)))
        CFI (cfiCond64) V1 load(1, XDATA, add(CFA_XSP16, literal(-19)))
        CFI (cfiCond64) V2 load(1, XDATA, add(CFA_XSP16, literal(-18)))
        CFI (cfiCond64) V3 load(1, XDATA, add(CFA_XSP16, literal(-17)))
        CFI (cfiCond64) V4 load(1, XDATA, add(CFA_XSP16, literal(-16)))
        CFI (cfiCond64) V5 load(1, XDATA, add(CFA_XSP16, literal(-15)))
        CFI (cfiCond64) V6 load(1, XDATA, add(CFA_XSP16, literal(-14)))
        CFI (cfiCond64) V7 load(1, XDATA, add(CFA_XSP16, literal(-13)))
        CFI (cfiCond64) V8 load(1, XDATA, add(CFA_XSP16, literal(-12)))
        CFI (cfiCond64) V9 load(1, XDATA, add(CFA_XSP16, literal(-11)))
        CFI (cfiCond64) V10 load(1, XDATA, add(CFA_XSP16, literal(-10)))
        CFI (cfiCond64) V11 load(1, XDATA, add(CFA_XSP16, literal(-9)))
        CFI (cfiCond64) V12 load(1, XDATA, add(CFA_XSP16, literal(-8)))
        CFI (cfiCond64) V13 load(1, XDATA, add(CFA_XSP16, literal(-7)))
        CFI (cfiCond64) R7 load(1, XDATA, add(CFA_XSP16, literal(-6)))
        CFI (cfiCond64) ?RET_LOW load(1, XDATA, add(CFA_XSP16, literal(-5)))
        CFI (cfiCond64) ?RET_HIGH load(1, XDATA, add(CFA_XSP16, literal(-4)))
        CFI (cfiCond64) ?BRET_EXT load(1, XDATA, add(CFA_XSP16, literal(-3)))
        CFI (cfiCond64) DPL0 load(1, XDATA, add(CFA_XSP16, literal(-2)))
        CFI (cfiCond64) DPH0 load(1, XDATA, add(CFA_XSP16, literal(-1)))
        CFI (cfiCond64) CFA_SP SP+0
        CFI (cfiCond64) CFA_XSP16 add(XSP16, 22)
        CFI Block cfiPicker65 Using cfiCommon1
        CFI (cfiPicker65) NoFunction
        CFI (cfiPicker65) Picker
        MOV     DPL,R6
        MOV     DPH,R7
        MOV     A,?V0 + 4
        CFI EndBlock cfiCond63
        CFI EndBlock cfiCond64
        CFI EndBlock cfiPicker65
        REQUIRE ??Subroutine25_0
        ; // Fall through to label ??Subroutine25_0

        RSEG BANKED_CODE:CODE:NOROOT(0)
??Subroutine25_0:
        CFI Block cfiCond66 Using cfiCommon0
        CFI NoFunction
        CFI Conditional ??CrossCallReturnLabel_35
        CFI R6 load(1, XDATA, add(CFA_XSP16, literal(-22)))
        CFI VB load(1, XDATA, add(CFA_XSP16, literal(-21)))
        CFI V0 load(1, XDATA, add(CFA_XSP16, literal(-20)))
        CFI V1 load(1, XDATA, add(CFA_XSP16, literal(-19)))
        CFI V2 load(1, XDATA, add(CFA_XSP16, literal(-18)))
        CFI V3 load(1, XDATA, add(CFA_XSP16, literal(-17)))
        CFI V4 load(1, XDATA, add(CFA_XSP16, literal(-16)))
        CFI V5 load(1, XDATA, add(CFA_XSP16, literal(-15)))
        CFI V6 load(1, XDATA, add(CFA_XSP16, literal(-14)))
        CFI V7 load(1, XDATA, add(CFA_XSP16, literal(-13)))
        CFI V8 load(1, XDATA, add(CFA_XSP16, literal(-12)))
        CFI V9 load(1, XDATA, add(CFA_XSP16, literal(-11)))
        CFI V10 load(1, XDATA, add(CFA_XSP16, literal(-10)))
        CFI V11 load(1, XDATA, add(CFA_XSP16, literal(-9)))
        CFI V12 load(1, XDATA, add(CFA_XSP16, literal(-8)))
        CFI V13 load(1, XDATA, add(CFA_XSP16, literal(-7)))
        CFI R7 load(1, XDATA, add(CFA_XSP16, literal(-6)))
        CFI ?RET_LOW load(1, XDATA, add(CFA_XSP16, literal(-5)))
        CFI ?RET_HIGH load(1, XDATA, add(CFA_XSP16, literal(-4)))
        CFI ?BRET_EXT load(1, XDATA, add(CFA_XSP16, literal(-3)))
        CFI DPL0 load(1, XDATA, add(CFA_XSP16, literal(-2)))
        CFI DPH0 load(1, XDATA, add(CFA_XSP16, literal(-1)))
        CFI CFA_SP SP+0
        CFI CFA_XSP16 add(XSP16, 22)
        CFI Block cfiCond67 Using cfiCommon0
        CFI (cfiCond67) NoFunction
        CFI (cfiCond67) Conditional ??CrossCallReturnLabel_33
        CFI (cfiCond67) R6 load(1, XDATA, add(CFA_XSP16, literal(-22)))
        CFI (cfiCond67) VB load(1, XDATA, add(CFA_XSP16, literal(-21)))
        CFI (cfiCond67) V0 load(1, XDATA, add(CFA_XSP16, literal(-20)))
        CFI (cfiCond67) V1 load(1, XDATA, add(CFA_XSP16, literal(-19)))
        CFI (cfiCond67) V2 load(1, XDATA, add(CFA_XSP16, literal(-18)))
        CFI (cfiCond67) V3 load(1, XDATA, add(CFA_XSP16, literal(-17)))
        CFI (cfiCond67) V4 load(1, XDATA, add(CFA_XSP16, literal(-16)))
        CFI (cfiCond67) V5 load(1, XDATA, add(CFA_XSP16, literal(-15)))
        CFI (cfiCond67) V6 load(1, XDATA, add(CFA_XSP16, literal(-14)))
        CFI (cfiCond67) V7 load(1, XDATA, add(CFA_XSP16, literal(-13)))
        CFI (cfiCond67) V8 load(1, XDATA, add(CFA_XSP16, literal(-12)))
        CFI (cfiCond67) V9 load(1, XDATA, add(CFA_XSP16, literal(-11)))
        CFI (cfiCond67) V10 load(1, XDATA, add(CFA_XSP16, literal(-10)))
        CFI (cfiCond67) V11 load(1, XDATA, add(CFA_XSP16, literal(-9)))
        CFI (cfiCond67) V12 load(1, XDATA, add(CFA_XSP16, literal(-8)))
        CFI (cfiCond67) V13 load(1, XDATA, add(CFA_XSP16, literal(-7)))
        CFI (cfiCond67) R7 load(1, XDATA, add(CFA_XSP16, literal(-6)))
        CFI (cfiCond67) ?RET_LOW load(1, XDATA, add(CFA_XSP16, literal(-5)))
        CFI (cfiCond67) ?RET_HIGH load(1, XDATA, add(CFA_XSP16, literal(-4)))
        CFI (cfiCond67) ?BRET_EXT load(1, XDATA, add(CFA_XSP16, literal(-3)))
        CFI (cfiCond67) DPL0 load(1, XDATA, add(CFA_XSP16, literal(-2)))
        CFI (cfiCond67) DPH0 load(1, XDATA, add(CFA_XSP16, literal(-1)))
        CFI (cfiCond67) CFA_SP SP+0
        CFI (cfiCond67) CFA_XSP16 add(XSP16, 22)
        CFI Block cfiCond68 Using cfiCommon0
        CFI (cfiCond68) NoFunction
        CFI (cfiCond68) Conditional ??CrossCallReturnLabel_34
        CFI (cfiCond68) R6 load(1, XDATA, add(CFA_XSP16, literal(-22)))
        CFI (cfiCond68) VB load(1, XDATA, add(CFA_XSP16, literal(-21)))
        CFI (cfiCond68) V0 load(1, XDATA, add(CFA_XSP16, literal(-20)))
        CFI (cfiCond68) V1 load(1, XDATA, add(CFA_XSP16, literal(-19)))
        CFI (cfiCond68) V2 load(1, XDATA, add(CFA_XSP16, literal(-18)))
        CFI (cfiCond68) V3 load(1, XDATA, add(CFA_XSP16, literal(-17)))
        CFI (cfiCond68) V4 load(1, XDATA, add(CFA_XSP16, literal(-16)))
        CFI (cfiCond68) V5 load(1, XDATA, add(CFA_XSP16, literal(-15)))
        CFI (cfiCond68) V6 load(1, XDATA, add(CFA_XSP16, literal(-14)))
        CFI (cfiCond68) V7 load(1, XDATA, add(CFA_XSP16, literal(-13)))
        CFI (cfiCond68) V8 load(1, XDATA, add(CFA_XSP16, literal(-12)))
        CFI (cfiCond68) V9 load(1, XDATA, add(CFA_XSP16, literal(-11)))
        CFI (cfiCond68) V10 load(1, XDATA, add(CFA_XSP16, literal(-10)))
        CFI (cfiCond68) V11 load(1, XDATA, add(CFA_XSP16, literal(-9)))
        CFI (cfiCond68) V12 load(1, XDATA, add(CFA_XSP16, literal(-8)))
        CFI (cfiCond68) V13 load(1, XDATA, add(CFA_XSP16, literal(-7)))
        CFI (cfiCond68) R7 load(1, XDATA, add(CFA_XSP16, literal(-6)))
        CFI (cfiCond68) ?RET_LOW load(1, XDATA, add(CFA_XSP16, literal(-5)))
        CFI (cfiCond68) ?RET_HIGH load(1, XDATA, add(CFA_XSP16, literal(-4)))
        CFI (cfiCond68) ?BRET_EXT load(1, XDATA, add(CFA_XSP16, literal(-3)))
        CFI (cfiCond68) DPL0 load(1, XDATA, add(CFA_XSP16, literal(-2)))
        CFI (cfiCond68) DPH0 load(1, XDATA, add(CFA_XSP16, literal(-1)))
        CFI (cfiCond68) CFA_SP SP+0
        CFI (cfiCond68) CFA_XSP16 add(XSP16, 22)
        CFI Block cfiPicker69 Using cfiCommon1
        CFI (cfiPicker69) NoFunction
        CFI (cfiPicker69) Picker
        MOVX    @DPTR,A
        INC     DPTR
        INC     R6
        MOV     R7,DPH
        MOV     DPL,R2
        MOV     DPH,R3
        MOV     R0,#?V0 + 4
        RET
        CFI EndBlock cfiCond66
        CFI EndBlock cfiCond67
        CFI EndBlock cfiCond68
        CFI EndBlock cfiPicker69

        RSEG BANKED_CODE:CODE:NOROOT(0)
?Subroutine6:
        CFI Block cfiCond70 Using cfiCommon0
        CFI NoFunction
        CFI Conditional ??CrossCallReturnLabel_6
        CFI R6 load(1, XDATA, add(CFA_XSP16, literal(-22)))
        CFI VB load(1, XDATA, add(CFA_XSP16, literal(-21)))
        CFI V0 load(1, XDATA, add(CFA_XSP16, literal(-20)))
        CFI V1 load(1, XDATA, add(CFA_XSP16, literal(-19)))
        CFI V2 load(1, XDATA, add(CFA_XSP16, literal(-18)))
        CFI V3 load(1, XDATA, add(CFA_XSP16, literal(-17)))
        CFI V4 load(1, XDATA, add(CFA_XSP16, literal(-16)))
        CFI V5 load(1, XDATA, add(CFA_XSP16, literal(-15)))
        CFI V6 load(1, XDATA, add(CFA_XSP16, literal(-14)))
        CFI V7 load(1, XDATA, add(CFA_XSP16, literal(-13)))
        CFI V8 load(1, XDATA, add(CFA_XSP16, literal(-12)))
        CFI V9 load(1, XDATA, add(CFA_XSP16, literal(-11)))
        CFI V10 load(1, XDATA, add(CFA_XSP16, literal(-10)))
        CFI V11 load(1, XDATA, add(CFA_XSP16, literal(-9)))
        CFI V12 load(1, XDATA, add(CFA_XSP16, literal(-8)))
        CFI V13 load(1, XDATA, add(CFA_XSP16, literal(-7)))
        CFI R7 load(1, XDATA, add(CFA_XSP16, literal(-6)))
        CFI ?RET_LOW load(1, XDATA, add(CFA_XSP16, literal(-5)))
        CFI ?RET_HIGH load(1, XDATA, add(CFA_XSP16, literal(-4)))
        CFI ?BRET_EXT load(1, XDATA, add(CFA_XSP16, literal(-3)))
        CFI DPL0 load(1, XDATA, add(CFA_XSP16, literal(-2)))
        CFI DPH0 load(1, XDATA, add(CFA_XSP16, literal(-1)))
        CFI CFA_SP SP+0
        CFI CFA_XSP16 add(XSP16, 22)
        CFI Block cfiCond71 Using cfiCommon0
        CFI (cfiCond71) NoFunction
        CFI (cfiCond71) Conditional ??CrossCallReturnLabel_7
        CFI (cfiCond71) R6 load(1, XDATA, add(CFA_XSP16, literal(-22)))
        CFI (cfiCond71) VB load(1, XDATA, add(CFA_XSP16, literal(-21)))
        CFI (cfiCond71) V0 load(1, XDATA, add(CFA_XSP16, literal(-20)))
        CFI (cfiCond71) V1 load(1, XDATA, add(CFA_XSP16, literal(-19)))
        CFI (cfiCond71) V2 load(1, XDATA, add(CFA_XSP16, literal(-18)))
        CFI (cfiCond71) V3 load(1, XDATA, add(CFA_XSP16, literal(-17)))
        CFI (cfiCond71) V4 load(1, XDATA, add(CFA_XSP16, literal(-16)))
        CFI (cfiCond71) V5 load(1, XDATA, add(CFA_XSP16, literal(-15)))
        CFI (cfiCond71) V6 load(1, XDATA, add(CFA_XSP16, literal(-14)))
        CFI (cfiCond71) V7 load(1, XDATA, add(CFA_XSP16, literal(-13)))
        CFI (cfiCond71) V8 load(1, XDATA, add(CFA_XSP16, literal(-12)))
        CFI (cfiCond71) V9 load(1, XDATA, add(CFA_XSP16, literal(-11)))
        CFI (cfiCond71) V10 load(1, XDATA, add(CFA_XSP16, literal(-10)))
        CFI (cfiCond71) V11 load(1, XDATA, add(CFA_XSP16, literal(-9)))
        CFI (cfiCond71) V12 load(1, XDATA, add(CFA_XSP16, literal(-8)))
        CFI (cfiCond71) V13 load(1, XDATA, add(CFA_XSP16, literal(-7)))
        CFI (cfiCond71) R7 load(1, XDATA, add(CFA_XSP16, literal(-6)))
        CFI (cfiCond71) ?RET_LOW load(1, XDATA, add(CFA_XSP16, literal(-5)))
        CFI (cfiCond71) ?RET_HIGH load(1, XDATA, add(CFA_XSP16, literal(-4)))
        CFI (cfiCond71) ?BRET_EXT load(1, XDATA, add(CFA_XSP16, literal(-3)))
        CFI (cfiCond71) DPL0 load(1, XDATA, add(CFA_XSP16, literal(-2)))
        CFI (cfiCond71) DPH0 load(1, XDATA, add(CFA_XSP16, literal(-1)))
        CFI (cfiCond71) CFA_SP SP+0
        CFI (cfiCond71) CFA_XSP16 add(XSP16, 22)
        CFI Block cfiPicker72 Using cfiCommon1
        CFI (cfiPicker72) NoFunction
        CFI (cfiPicker72) Picker
        LCALL   ?Subroutine16 & 0xFFFF
??CrossCallReturnLabel_40:
        INC     R6
        MOV     A,R1
        MOV     R7,A
        RET
        CFI EndBlock cfiCond70
        CFI EndBlock cfiCond71
        CFI EndBlock cfiPicker72

        RSEG BANKED_CODE:CODE:NOROOT(0)
?Subroutine4:
        CFI Block cfiCond73 Using cfiCommon0
        CFI NoFunction
        CFI Conditional ??CrossCallReturnLabel_37
        CFI R6 load(1, XDATA, add(CFA_XSP16, literal(-22)))
        CFI VB load(1, XDATA, add(CFA_XSP16, literal(-21)))
        CFI V0 load(1, XDATA, add(CFA_XSP16, literal(-20)))
        CFI V1 load(1, XDATA, add(CFA_XSP16, literal(-19)))
        CFI V2 load(1, XDATA, add(CFA_XSP16, literal(-18)))
        CFI V3 load(1, XDATA, add(CFA_XSP16, literal(-17)))
        CFI V4 load(1, XDATA, add(CFA_XSP16, literal(-16)))
        CFI V5 load(1, XDATA, add(CFA_XSP16, literal(-15)))
        CFI V6 load(1, XDATA, add(CFA_XSP16, literal(-14)))
        CFI V7 load(1, XDATA, add(CFA_XSP16, literal(-13)))
        CFI V8 load(1, XDATA, add(CFA_XSP16, literal(-12)))
        CFI V9 load(1, XDATA, add(CFA_XSP16, literal(-11)))
        CFI V10 load(1, XDATA, add(CFA_XSP16, literal(-10)))
        CFI V11 load(1, XDATA, add(CFA_XSP16, literal(-9)))
        CFI V12 load(1, XDATA, add(CFA_XSP16, literal(-8)))
        CFI V13 load(1, XDATA, add(CFA_XSP16, literal(-7)))
        CFI R7 load(1, XDATA, add(CFA_XSP16, literal(-6)))
        CFI ?RET_LOW load(1, XDATA, add(CFA_XSP16, literal(-5)))
        CFI ?RET_HIGH load(1, XDATA, add(CFA_XSP16, literal(-4)))
        CFI ?BRET_EXT load(1, XDATA, add(CFA_XSP16, literal(-3)))
        CFI DPL0 load(1, XDATA, add(CFA_XSP16, literal(-2)))
        CFI DPH0 load(1, XDATA, add(CFA_XSP16, literal(-1)))
        CFI CFA_SP SP+0
        CFI CFA_XSP16 add(XSP16, 22)
        CFI Block cfiCond74 Using cfiCommon0
        CFI (cfiCond74) NoFunction
        CFI (cfiCond74) Conditional ??CrossCallReturnLabel_38
        CFI (cfiCond74) R6 load(1, XDATA, add(CFA_XSP16, literal(-22)))
        CFI (cfiCond74) VB load(1, XDATA, add(CFA_XSP16, literal(-21)))
        CFI (cfiCond74) V0 load(1, XDATA, add(CFA_XSP16, literal(-20)))
        CFI (cfiCond74) V1 load(1, XDATA, add(CFA_XSP16, literal(-19)))
        CFI (cfiCond74) V2 load(1, XDATA, add(CFA_XSP16, literal(-18)))
        CFI (cfiCond74) V3 load(1, XDATA, add(CFA_XSP16, literal(-17)))
        CFI (cfiCond74) V4 load(1, XDATA, add(CFA_XSP16, literal(-16)))
        CFI (cfiCond74) V5 load(1, XDATA, add(CFA_XSP16, literal(-15)))
        CFI (cfiCond74) V6 load(1, XDATA, add(CFA_XSP16, literal(-14)))
        CFI (cfiCond74) V7 load(1, XDATA, add(CFA_XSP16, literal(-13)))
        CFI (cfiCond74) V8 load(1, XDATA, add(CFA_XSP16, literal(-12)))
        CFI (cfiCond74) V9 load(1, XDATA, add(CFA_XSP16, literal(-11)))
        CFI (cfiCond74) V10 load(1, XDATA, add(CFA_XSP16, literal(-10)))
        CFI (cfiCond74) V11 load(1, XDATA, add(CFA_XSP16, literal(-9)))
        CFI (cfiCond74) V12 load(1, XDATA, add(CFA_XSP16, literal(-8)))
        CFI (cfiCond74) V13 load(1, XDATA, add(CFA_XSP16, literal(-7)))
        CFI (cfiCond74) R7 load(1, XDATA, add(CFA_XSP16, literal(-6)))
        CFI (cfiCond74) ?RET_LOW load(1, XDATA, add(CFA_XSP16, literal(-5)))
        CFI (cfiCond74) ?RET_HIGH load(1, XDATA, add(CFA_XSP16, literal(-4)))
        CFI (cfiCond74) ?BRET_EXT load(1, XDATA, add(CFA_XSP16, literal(-3)))
        CFI (cfiCond74) DPL0 load(1, XDATA, add(CFA_XSP16, literal(-2)))
        CFI (cfiCond74) DPH0 load(1, XDATA, add(CFA_XSP16, literal(-1)))
        CFI (cfiCond74) CFA_SP SP+0
        CFI (cfiCond74) CFA_XSP16 add(XSP16, 22)
        CFI Block cfiPicker75 Using cfiCommon1
        CFI (cfiPicker75) NoFunction
        CFI (cfiPicker75) Picker
        MOV     DPL,?V0 + 12
        MOV     DPH,?V0 + 13
        CFI EndBlock cfiCond73
        CFI EndBlock cfiCond74
        CFI EndBlock cfiPicker75
        REQUIRE ??Subroutine26_0
        ; // Fall through to label ??Subroutine26_0

        RSEG BANKED_CODE:CODE:NOROOT(0)
??Subroutine26_0:
        CFI Block cfiCond76 Using cfiCommon0
        CFI NoFunction
        CFI Conditional ??CrossCallReturnLabel_36
        CFI R6 load(1, XDATA, add(CFA_XSP16, literal(-22)))
        CFI VB load(1, XDATA, add(CFA_XSP16, literal(-21)))
        CFI V0 load(1, XDATA, add(CFA_XSP16, literal(-20)))
        CFI V1 load(1, XDATA, add(CFA_XSP16, literal(-19)))
        CFI V2 load(1, XDATA, add(CFA_XSP16, literal(-18)))
        CFI V3 load(1, XDATA, add(CFA_XSP16, literal(-17)))
        CFI V4 load(1, XDATA, add(CFA_XSP16, literal(-16)))
        CFI V5 load(1, XDATA, add(CFA_XSP16, literal(-15)))
        CFI V6 load(1, XDATA, add(CFA_XSP16, literal(-14)))
        CFI V7 load(1, XDATA, add(CFA_XSP16, literal(-13)))
        CFI V8 load(1, XDATA, add(CFA_XSP16, literal(-12)))
        CFI V9 load(1, XDATA, add(CFA_XSP16, literal(-11)))
        CFI V10 load(1, XDATA, add(CFA_XSP16, literal(-10)))
        CFI V11 load(1, XDATA, add(CFA_XSP16, literal(-9)))
        CFI V12 load(1, XDATA, add(CFA_XSP16, literal(-8)))
        CFI V13 load(1, XDATA, add(CFA_XSP16, literal(-7)))
        CFI R7 load(1, XDATA, add(CFA_XSP16, literal(-6)))
        CFI ?RET_LOW load(1, XDATA, add(CFA_XSP16, literal(-5)))
        CFI ?RET_HIGH load(1, XDATA, add(CFA_XSP16, literal(-4)))
        CFI ?BRET_EXT load(1, XDATA, add(CFA_XSP16, literal(-3)))
        CFI DPL0 load(1, XDATA, add(CFA_XSP16, literal(-2)))
        CFI DPH0 load(1, XDATA, add(CFA_XSP16, literal(-1)))
        CFI CFA_SP SP+0
        CFI CFA_XSP16 add(XSP16, 22)
        CFI Block cfiCond77 Using cfiCommon0
        CFI (cfiCond77) NoFunction
        CFI (cfiCond77) Conditional ??CrossCallReturnLabel_37
        CFI (cfiCond77) R6 load(1, XDATA, add(CFA_XSP16, literal(-22)))
        CFI (cfiCond77) VB load(1, XDATA, add(CFA_XSP16, literal(-21)))
        CFI (cfiCond77) V0 load(1, XDATA, add(CFA_XSP16, literal(-20)))
        CFI (cfiCond77) V1 load(1, XDATA, add(CFA_XSP16, literal(-19)))
        CFI (cfiCond77) V2 load(1, XDATA, add(CFA_XSP16, literal(-18)))
        CFI (cfiCond77) V3 load(1, XDATA, add(CFA_XSP16, literal(-17)))
        CFI (cfiCond77) V4 load(1, XDATA, add(CFA_XSP16, literal(-16)))
        CFI (cfiCond77) V5 load(1, XDATA, add(CFA_XSP16, literal(-15)))
        CFI (cfiCond77) V6 load(1, XDATA, add(CFA_XSP16, literal(-14)))
        CFI (cfiCond77) V7 load(1, XDATA, add(CFA_XSP16, literal(-13)))
        CFI (cfiCond77) V8 load(1, XDATA, add(CFA_XSP16, literal(-12)))
        CFI (cfiCond77) V9 load(1, XDATA, add(CFA_XSP16, literal(-11)))
        CFI (cfiCond77) V10 load(1, XDATA, add(CFA_XSP16, literal(-10)))
        CFI (cfiCond77) V11 load(1, XDATA, add(CFA_XSP16, literal(-9)))
        CFI (cfiCond77) V12 load(1, XDATA, add(CFA_XSP16, literal(-8)))
        CFI (cfiCond77) V13 load(1, XDATA, add(CFA_XSP16, literal(-7)))
        CFI (cfiCond77) R7 load(1, XDATA, add(CFA_XSP16, literal(-6)))
        CFI (cfiCond77) ?RET_LOW load(1, XDATA, add(CFA_XSP16, literal(-5)))
        CFI (cfiCond77) ?RET_HIGH load(1, XDATA, add(CFA_XSP16, literal(-4)))
        CFI (cfiCond77) ?BRET_EXT load(1, XDATA, add(CFA_XSP16, literal(-3)))
        CFI (cfiCond77) DPL0 load(1, XDATA, add(CFA_XSP16, literal(-2)))
        CFI (cfiCond77) DPH0 load(1, XDATA, add(CFA_XSP16, literal(-1)))
        CFI (cfiCond77) CFA_SP SP+0
        CFI (cfiCond77) CFA_XSP16 add(XSP16, 22)
        CFI Block cfiCond78 Using cfiCommon0
        CFI (cfiCond78) NoFunction
        CFI (cfiCond78) Conditional ??CrossCallReturnLabel_38
        CFI (cfiCond78) R6 load(1, XDATA, add(CFA_XSP16, literal(-22)))
        CFI (cfiCond78) VB load(1, XDATA, add(CFA_XSP16, literal(-21)))
        CFI (cfiCond78) V0 load(1, XDATA, add(CFA_XSP16, literal(-20)))
        CFI (cfiCond78) V1 load(1, XDATA, add(CFA_XSP16, literal(-19)))
        CFI (cfiCond78) V2 load(1, XDATA, add(CFA_XSP16, literal(-18)))
        CFI (cfiCond78) V3 load(1, XDATA, add(CFA_XSP16, literal(-17)))
        CFI (cfiCond78) V4 load(1, XDATA, add(CFA_XSP16, literal(-16)))
        CFI (cfiCond78) V5 load(1, XDATA, add(CFA_XSP16, literal(-15)))
        CFI (cfiCond78) V6 load(1, XDATA, add(CFA_XSP16, literal(-14)))
        CFI (cfiCond78) V7 load(1, XDATA, add(CFA_XSP16, literal(-13)))
        CFI (cfiCond78) V8 load(1, XDATA, add(CFA_XSP16, literal(-12)))
        CFI (cfiCond78) V9 load(1, XDATA, add(CFA_XSP16, literal(-11)))
        CFI (cfiCond78) V10 load(1, XDATA, add(CFA_XSP16, literal(-10)))
        CFI (cfiCond78) V11 load(1, XDATA, add(CFA_XSP16, literal(-9)))
        CFI (cfiCond78) V12 load(1, XDATA, add(CFA_XSP16, literal(-8)))
        CFI (cfiCond78) V13 load(1, XDATA, add(CFA_XSP16, literal(-7)))
        CFI (cfiCond78) R7 load(1, XDATA, add(CFA_XSP16, literal(-6)))
        CFI (cfiCond78) ?RET_LOW load(1, XDATA, add(CFA_XSP16, literal(-5)))
        CFI (cfiCond78) ?RET_HIGH load(1, XDATA, add(CFA_XSP16, literal(-4)))
        CFI (cfiCond78) ?BRET_EXT load(1, XDATA, add(CFA_XSP16, literal(-3)))
        CFI (cfiCond78) DPL0 load(1, XDATA, add(CFA_XSP16, literal(-2)))
        CFI (cfiCond78) DPH0 load(1, XDATA, add(CFA_XSP16, literal(-1)))
        CFI (cfiCond78) CFA_SP SP+0
        CFI (cfiCond78) CFA_XSP16 add(XSP16, 22)
        CFI Block cfiPicker79 Using cfiCommon1
        CFI (cfiPicker79) NoFunction
        CFI (cfiPicker79) Picker
        LCALL   ?Subroutine16 & 0xFFFF
??CrossCallReturnLabel_41:
        INC     DPTR
        RET
        CFI EndBlock cfiCond76
        CFI EndBlock cfiCond77
        CFI EndBlock cfiCond78
        CFI EndBlock cfiPicker79

        RSEG BANKED_CODE:CODE:NOROOT(0)
?Subroutine16:
        CFI Block cfiCond80 Using cfiCommon0
        CFI NoFunction
        CFI Conditional ??CrossCallReturnLabel_40, ??CrossCallReturnLabel_6
        CFI R6 load(1, XDATA, add(CFA_XSP16, literal(-22)))
        CFI VB load(1, XDATA, add(CFA_XSP16, literal(-21)))
        CFI V0 load(1, XDATA, add(CFA_XSP16, literal(-20)))
        CFI V1 load(1, XDATA, add(CFA_XSP16, literal(-19)))
        CFI V2 load(1, XDATA, add(CFA_XSP16, literal(-18)))
        CFI V3 load(1, XDATA, add(CFA_XSP16, literal(-17)))
        CFI V4 load(1, XDATA, add(CFA_XSP16, literal(-16)))
        CFI V5 load(1, XDATA, add(CFA_XSP16, literal(-15)))
        CFI V6 load(1, XDATA, add(CFA_XSP16, literal(-14)))
        CFI V7 load(1, XDATA, add(CFA_XSP16, literal(-13)))
        CFI V8 load(1, XDATA, add(CFA_XSP16, literal(-12)))
        CFI V9 load(1, XDATA, add(CFA_XSP16, literal(-11)))
        CFI V10 load(1, XDATA, add(CFA_XSP16, literal(-10)))
        CFI V11 load(1, XDATA, add(CFA_XSP16, literal(-9)))
        CFI V12 load(1, XDATA, add(CFA_XSP16, literal(-8)))
        CFI V13 load(1, XDATA, add(CFA_XSP16, literal(-7)))
        CFI R7 load(1, XDATA, add(CFA_XSP16, literal(-6)))
        CFI ?RET_LOW load(1, XDATA, add(CFA_XSP16, literal(-5)))
        CFI ?RET_HIGH load(1, XDATA, add(CFA_XSP16, literal(-4)))
        CFI ?BRET_EXT load(1, XDATA, add(CFA_XSP16, literal(-3)))
        CFI DPL0 load(1, XDATA, add(CFA_XSP16, literal(-2)))
        CFI DPH0 load(1, XDATA, add(CFA_XSP16, literal(-1)))
        CFI CFA_SP SP+0
        CFI CFA_XSP16 add(XSP16, 22)
        CFI Block cfiCond81 Using cfiCommon0
        CFI (cfiCond81) NoFunction
        CFI (cfiCond81) Conditional ??CrossCallReturnLabel_40, ??CrossCallReturnLabel_7
        CFI (cfiCond81) R6 load(1, XDATA, add(CFA_XSP16, literal(-22)))
        CFI (cfiCond81) VB load(1, XDATA, add(CFA_XSP16, literal(-21)))
        CFI (cfiCond81) V0 load(1, XDATA, add(CFA_XSP16, literal(-20)))
        CFI (cfiCond81) V1 load(1, XDATA, add(CFA_XSP16, literal(-19)))
        CFI (cfiCond81) V2 load(1, XDATA, add(CFA_XSP16, literal(-18)))
        CFI (cfiCond81) V3 load(1, XDATA, add(CFA_XSP16, literal(-17)))
        CFI (cfiCond81) V4 load(1, XDATA, add(CFA_XSP16, literal(-16)))
        CFI (cfiCond81) V5 load(1, XDATA, add(CFA_XSP16, literal(-15)))
        CFI (cfiCond81) V6 load(1, XDATA, add(CFA_XSP16, literal(-14)))
        CFI (cfiCond81) V7 load(1, XDATA, add(CFA_XSP16, literal(-13)))
        CFI (cfiCond81) V8 load(1, XDATA, add(CFA_XSP16, literal(-12)))
        CFI (cfiCond81) V9 load(1, XDATA, add(CFA_XSP16, literal(-11)))
        CFI (cfiCond81) V10 load(1, XDATA, add(CFA_XSP16, literal(-10)))
        CFI (cfiCond81) V11 load(1, XDATA, add(CFA_XSP16, literal(-9)))
        CFI (cfiCond81) V12 load(1, XDATA, add(CFA_XSP16, literal(-8)))
        CFI (cfiCond81) V13 load(1, XDATA, add(CFA_XSP16, literal(-7)))
        CFI (cfiCond81) R7 load(1, XDATA, add(CFA_XSP16, literal(-6)))
        CFI (cfiCond81) ?RET_LOW load(1, XDATA, add(CFA_XSP16, literal(-5)))
        CFI (cfiCond81) ?RET_HIGH load(1, XDATA, add(CFA_XSP16, literal(-4)))
        CFI (cfiCond81) ?BRET_EXT load(1, XDATA, add(CFA_XSP16, literal(-3)))
        CFI (cfiCond81) DPL0 load(1, XDATA, add(CFA_XSP16, literal(-2)))
        CFI (cfiCond81) DPH0 load(1, XDATA, add(CFA_XSP16, literal(-1)))
        CFI (cfiCond81) CFA_SP SP+0
        CFI (cfiCond81) CFA_XSP16 add(XSP16, 22)
        CFI Block cfiCond82 Using cfiCommon0
        CFI (cfiCond82) NoFunction
        CFI (cfiCond82) Conditional ??CrossCallReturnLabel_41, ??CrossCallReturnLabel_37
        CFI (cfiCond82) R6 load(1, XDATA, add(CFA_XSP16, literal(-22)))
        CFI (cfiCond82) VB load(1, XDATA, add(CFA_XSP16, literal(-21)))
        CFI (cfiCond82) V0 load(1, XDATA, add(CFA_XSP16, literal(-20)))
        CFI (cfiCond82) V1 load(1, XDATA, add(CFA_XSP16, literal(-19)))
        CFI (cfiCond82) V2 load(1, XDATA, add(CFA_XSP16, literal(-18)))
        CFI (cfiCond82) V3 load(1, XDATA, add(CFA_XSP16, literal(-17)))
        CFI (cfiCond82) V4 load(1, XDATA, add(CFA_XSP16, literal(-16)))
        CFI (cfiCond82) V5 load(1, XDATA, add(CFA_XSP16, literal(-15)))
        CFI (cfiCond82) V6 load(1, XDATA, add(CFA_XSP16, literal(-14)))
        CFI (cfiCond82) V7 load(1, XDATA, add(CFA_XSP16, literal(-13)))
        CFI (cfiCond82) V8 load(1, XDATA, add(CFA_XSP16, literal(-12)))
        CFI (cfiCond82) V9 load(1, XDATA, add(CFA_XSP16, literal(-11)))
        CFI (cfiCond82) V10 load(1, XDATA, add(CFA_XSP16, literal(-10)))
        CFI (cfiCond82) V11 load(1, XDATA, add(CFA_XSP16, literal(-9)))
        CFI (cfiCond82) V12 load(1, XDATA, add(CFA_XSP16, literal(-8)))
        CFI (cfiCond82) V13 load(1, XDATA, add(CFA_XSP16, literal(-7)))
        CFI (cfiCond82) R7 load(1, XDATA, add(CFA_XSP16, literal(-6)))
        CFI (cfiCond82) ?RET_LOW load(1, XDATA, add(CFA_XSP16, literal(-5)))
        CFI (cfiCond82) ?RET_HIGH load(1, XDATA, add(CFA_XSP16, literal(-4)))
        CFI (cfiCond82) ?BRET_EXT load(1, XDATA, add(CFA_XSP16, literal(-3)))
        CFI (cfiCond82) DPL0 load(1, XDATA, add(CFA_XSP16, literal(-2)))
        CFI (cfiCond82) DPH0 load(1, XDATA, add(CFA_XSP16, literal(-1)))
        CFI (cfiCond82) CFA_SP SP+0
        CFI (cfiCond82) CFA_XSP16 add(XSP16, 22)
        CFI Block cfiCond83 Using cfiCommon0
        CFI (cfiCond83) NoFunction
        CFI (cfiCond83) Conditional ??CrossCallReturnLabel_41, ??CrossCallReturnLabel_38
        CFI (cfiCond83) R6 load(1, XDATA, add(CFA_XSP16, literal(-22)))
        CFI (cfiCond83) VB load(1, XDATA, add(CFA_XSP16, literal(-21)))
        CFI (cfiCond83) V0 load(1, XDATA, add(CFA_XSP16, literal(-20)))
        CFI (cfiCond83) V1 load(1, XDATA, add(CFA_XSP16, literal(-19)))
        CFI (cfiCond83) V2 load(1, XDATA, add(CFA_XSP16, literal(-18)))
        CFI (cfiCond83) V3 load(1, XDATA, add(CFA_XSP16, literal(-17)))
        CFI (cfiCond83) V4 load(1, XDATA, add(CFA_XSP16, literal(-16)))
        CFI (cfiCond83) V5 load(1, XDATA, add(CFA_XSP16, literal(-15)))
        CFI (cfiCond83) V6 load(1, XDATA, add(CFA_XSP16, literal(-14)))
        CFI (cfiCond83) V7 load(1, XDATA, add(CFA_XSP16, literal(-13)))
        CFI (cfiCond83) V8 load(1, XDATA, add(CFA_XSP16, literal(-12)))
        CFI (cfiCond83) V9 load(1, XDATA, add(CFA_XSP16, literal(-11)))
        CFI (cfiCond83) V10 load(1, XDATA, add(CFA_XSP16, literal(-10)))
        CFI (cfiCond83) V11 load(1, XDATA, add(CFA_XSP16, literal(-9)))
        CFI (cfiCond83) V12 load(1, XDATA, add(CFA_XSP16, literal(-8)))
        CFI (cfiCond83) V13 load(1, XDATA, add(CFA_XSP16, literal(-7)))
        CFI (cfiCond83) R7 load(1, XDATA, add(CFA_XSP16, literal(-6)))
        CFI (cfiCond83) ?RET_LOW load(1, XDATA, add(CFA_XSP16, literal(-5)))
        CFI (cfiCond83) ?RET_HIGH load(1, XDATA, add(CFA_XSP16, literal(-4)))
        CFI (cfiCond83) ?BRET_EXT load(1, XDATA, add(CFA_XSP16, literal(-3)))
        CFI (cfiCond83) DPL0 load(1, XDATA, add(CFA_XSP16, literal(-2)))
        CFI (cfiCond83) DPH0 load(1, XDATA, add(CFA_XSP16, literal(-1)))
        CFI (cfiCond83) CFA_SP SP+0
        CFI (cfiCond83) CFA_XSP16 add(XSP16, 22)
        CFI Block cfiCond84 Using cfiCommon0
        CFI (cfiCond84) NoFunction
        CFI (cfiCond84) Conditional ??CrossCallReturnLabel_41, ??CrossCallReturnLabel_36
        CFI (cfiCond84) R6 load(1, XDATA, add(CFA_XSP16, literal(-22)))
        CFI (cfiCond84) VB load(1, XDATA, add(CFA_XSP16, literal(-21)))
        CFI (cfiCond84) V0 load(1, XDATA, add(CFA_XSP16, literal(-20)))
        CFI (cfiCond84) V1 load(1, XDATA, add(CFA_XSP16, literal(-19)))
        CFI (cfiCond84) V2 load(1, XDATA, add(CFA_XSP16, literal(-18)))
        CFI (cfiCond84) V3 load(1, XDATA, add(CFA_XSP16, literal(-17)))
        CFI (cfiCond84) V4 load(1, XDATA, add(CFA_XSP16, literal(-16)))
        CFI (cfiCond84) V5 load(1, XDATA, add(CFA_XSP16, literal(-15)))
        CFI (cfiCond84) V6 load(1, XDATA, add(CFA_XSP16, literal(-14)))
        CFI (cfiCond84) V7 load(1, XDATA, add(CFA_XSP16, literal(-13)))
        CFI (cfiCond84) V8 load(1, XDATA, add(CFA_XSP16, literal(-12)))
        CFI (cfiCond84) V9 load(1, XDATA, add(CFA_XSP16, literal(-11)))
        CFI (cfiCond84) V10 load(1, XDATA, add(CFA_XSP16, literal(-10)))
        CFI (cfiCond84) V11 load(1, XDATA, add(CFA_XSP16, literal(-9)))
        CFI (cfiCond84) V12 load(1, XDATA, add(CFA_XSP16, literal(-8)))
        CFI (cfiCond84) V13 load(1, XDATA, add(CFA_XSP16, literal(-7)))
        CFI (cfiCond84) R7 load(1, XDATA, add(CFA_XSP16, literal(-6)))
        CFI (cfiCond84) ?RET_LOW load(1, XDATA, add(CFA_XSP16, literal(-5)))
        CFI (cfiCond84) ?RET_HIGH load(1, XDATA, add(CFA_XSP16, literal(-4)))
        CFI (cfiCond84) ?BRET_EXT load(1, XDATA, add(CFA_XSP16, literal(-3)))
        CFI (cfiCond84) DPL0 load(1, XDATA, add(CFA_XSP16, literal(-2)))
        CFI (cfiCond84) DPH0 load(1, XDATA, add(CFA_XSP16, literal(-1)))
        CFI (cfiCond84) CFA_SP SP+0
        CFI (cfiCond84) CFA_XSP16 add(XSP16, 22)
        CFI Block cfiCond85 Using cfiCommon0
        CFI (cfiCond85) NoFunction
        CFI (cfiCond85) Conditional ??CrossCallReturnLabel_39, ??CrossCallReturnLabel_2
        CFI (cfiCond85) R6 load(1, XDATA, add(CFA_XSP16, literal(-22)))
        CFI (cfiCond85) VB load(1, XDATA, add(CFA_XSP16, literal(-21)))
        CFI (cfiCond85) V0 load(1, XDATA, add(CFA_XSP16, literal(-20)))
        CFI (cfiCond85) V1 load(1, XDATA, add(CFA_XSP16, literal(-19)))
        CFI (cfiCond85) V2 load(1, XDATA, add(CFA_XSP16, literal(-18)))
        CFI (cfiCond85) V3 load(1, XDATA, add(CFA_XSP16, literal(-17)))
        CFI (cfiCond85) V4 load(1, XDATA, add(CFA_XSP16, literal(-16)))
        CFI (cfiCond85) V5 load(1, XDATA, add(CFA_XSP16, literal(-15)))
        CFI (cfiCond85) V6 load(1, XDATA, add(CFA_XSP16, literal(-14)))
        CFI (cfiCond85) V7 load(1, XDATA, add(CFA_XSP16, literal(-13)))
        CFI (cfiCond85) V8 load(1, XDATA, add(CFA_XSP16, literal(-12)))
        CFI (cfiCond85) V9 load(1, XDATA, add(CFA_XSP16, literal(-11)))
        CFI (cfiCond85) V10 load(1, XDATA, add(CFA_XSP16, literal(-10)))
        CFI (cfiCond85) V11 load(1, XDATA, add(CFA_XSP16, literal(-9)))
        CFI (cfiCond85) V12 load(1, XDATA, add(CFA_XSP16, literal(-8)))
        CFI (cfiCond85) V13 load(1, XDATA, add(CFA_XSP16, literal(-7)))
        CFI (cfiCond85) R7 load(1, XDATA, add(CFA_XSP16, literal(-6)))
        CFI (cfiCond85) ?RET_LOW load(1, XDATA, add(CFA_XSP16, literal(-5)))
        CFI (cfiCond85) ?RET_HIGH load(1, XDATA, add(CFA_XSP16, literal(-4)))
        CFI (cfiCond85) ?BRET_EXT load(1, XDATA, add(CFA_XSP16, literal(-3)))
        CFI (cfiCond85) DPL0 load(1, XDATA, add(CFA_XSP16, literal(-2)))
        CFI (cfiCond85) DPH0 load(1, XDATA, add(CFA_XSP16, literal(-1)))
        CFI (cfiCond85) CFA_SP SP+0
        CFI (cfiCond85) CFA_XSP16 add(XSP16, 22)
        CFI Block cfiCond86 Using cfiCommon0
        CFI (cfiCond86) NoFunction
        CFI (cfiCond86) Conditional ??CrossCallReturnLabel_39, ??CrossCallReturnLabel_3
        CFI (cfiCond86) R6 load(1, XDATA, add(CFA_XSP16, literal(-22)))
        CFI (cfiCond86) VB load(1, XDATA, add(CFA_XSP16, literal(-21)))
        CFI (cfiCond86) V0 load(1, XDATA, add(CFA_XSP16, literal(-20)))
        CFI (cfiCond86) V1 load(1, XDATA, add(CFA_XSP16, literal(-19)))
        CFI (cfiCond86) V2 load(1, XDATA, add(CFA_XSP16, literal(-18)))
        CFI (cfiCond86) V3 load(1, XDATA, add(CFA_XSP16, literal(-17)))
        CFI (cfiCond86) V4 load(1, XDATA, add(CFA_XSP16, literal(-16)))
        CFI (cfiCond86) V5 load(1, XDATA, add(CFA_XSP16, literal(-15)))
        CFI (cfiCond86) V6 load(1, XDATA, add(CFA_XSP16, literal(-14)))
        CFI (cfiCond86) V7 load(1, XDATA, add(CFA_XSP16, literal(-13)))
        CFI (cfiCond86) V8 load(1, XDATA, add(CFA_XSP16, literal(-12)))
        CFI (cfiCond86) V9 load(1, XDATA, add(CFA_XSP16, literal(-11)))
        CFI (cfiCond86) V10 load(1, XDATA, add(CFA_XSP16, literal(-10)))
        CFI (cfiCond86) V11 load(1, XDATA, add(CFA_XSP16, literal(-9)))
        CFI (cfiCond86) V12 load(1, XDATA, add(CFA_XSP16, literal(-8)))
        CFI (cfiCond86) V13 load(1, XDATA, add(CFA_XSP16, literal(-7)))
        CFI (cfiCond86) R7 load(1, XDATA, add(CFA_XSP16, literal(-6)))
        CFI (cfiCond86) ?RET_LOW load(1, XDATA, add(CFA_XSP16, literal(-5)))
        CFI (cfiCond86) ?RET_HIGH load(1, XDATA, add(CFA_XSP16, literal(-4)))
        CFI (cfiCond86) ?BRET_EXT load(1, XDATA, add(CFA_XSP16, literal(-3)))
        CFI (cfiCond86) DPL0 load(1, XDATA, add(CFA_XSP16, literal(-2)))
        CFI (cfiCond86) DPH0 load(1, XDATA, add(CFA_XSP16, literal(-1)))
        CFI (cfiCond86) CFA_SP SP+0
        CFI (cfiCond86) CFA_XSP16 add(XSP16, 22)
        CFI Block cfiPicker87 Using cfiCommon1
        CFI (cfiPicker87) NoFunction
        CFI (cfiPicker87) Picker
        LCALL   ?Subroutine20 & 0xFFFF
??CrossCallReturnLabel_53:
        MOVX    @DPTR,A
        RET
        CFI EndBlock cfiCond80
        CFI EndBlock cfiCond81
        CFI EndBlock cfiCond82
        CFI EndBlock cfiCond83
        CFI EndBlock cfiCond84
        CFI EndBlock cfiCond85
        CFI EndBlock cfiCond86
        CFI EndBlock cfiPicker87

        RSEG BANKED_CODE:CODE:NOROOT(0)
?Subroutine20:
        CFI Block cfiCond88 Using cfiCommon0
        CFI NoFunction
        CFI Conditional ??CrossCallReturnLabel_51
        CFI R6 load(1, XDATA, add(CFA_XSP16, literal(-22)))
        CFI VB load(1, XDATA, add(CFA_XSP16, literal(-21)))
        CFI V0 load(1, XDATA, add(CFA_XSP16, literal(-20)))
        CFI V1 load(1, XDATA, add(CFA_XSP16, literal(-19)))
        CFI V2 load(1, XDATA, add(CFA_XSP16, literal(-18)))
        CFI V3 load(1, XDATA, add(CFA_XSP16, literal(-17)))
        CFI V4 load(1, XDATA, add(CFA_XSP16, literal(-16)))
        CFI V5 load(1, XDATA, add(CFA_XSP16, literal(-15)))
        CFI V6 load(1, XDATA, add(CFA_XSP16, literal(-14)))
        CFI V7 load(1, XDATA, add(CFA_XSP16, literal(-13)))
        CFI V8 load(1, XDATA, add(CFA_XSP16, literal(-12)))
        CFI V9 load(1, XDATA, add(CFA_XSP16, literal(-11)))
        CFI V10 load(1, XDATA, add(CFA_XSP16, literal(-10)))
        CFI V11 load(1, XDATA, add(CFA_XSP16, literal(-9)))
        CFI V12 load(1, XDATA, add(CFA_XSP16, literal(-8)))
        CFI V13 load(1, XDATA, add(CFA_XSP16, literal(-7)))
        CFI R7 load(1, XDATA, add(CFA_XSP16, literal(-6)))
        CFI ?RET_LOW load(1, XDATA, add(CFA_XSP16, literal(-5)))
        CFI ?RET_HIGH load(1, XDATA, add(CFA_XSP16, literal(-4)))
        CFI ?BRET_EXT load(1, XDATA, add(CFA_XSP16, literal(-3)))
        CFI DPL0 load(1, XDATA, add(CFA_XSP16, literal(-2)))
        CFI DPH0 load(1, XDATA, add(CFA_XSP16, literal(-1)))
        CFI CFA_SP SP+0
        CFI CFA_XSP16 add(XSP16, 22)
        CFI Block cfiCond89 Using cfiCommon0
        CFI (cfiCond89) NoFunction
        CFI (cfiCond89) Conditional ??CrossCallReturnLabel_52
        CFI (cfiCond89) R6 load(1, XDATA, add(CFA_XSP16, literal(-22)))
        CFI (cfiCond89) VB load(1, XDATA, add(CFA_XSP16, literal(-21)))
        CFI (cfiCond89) V0 load(1, XDATA, add(CFA_XSP16, literal(-20)))
        CFI (cfiCond89) V1 load(1, XDATA, add(CFA_XSP16, literal(-19)))
        CFI (cfiCond89) V2 load(1, XDATA, add(CFA_XSP16, literal(-18)))
        CFI (cfiCond89) V3 load(1, XDATA, add(CFA_XSP16, literal(-17)))
        CFI (cfiCond89) V4 load(1, XDATA, add(CFA_XSP16, literal(-16)))
        CFI (cfiCond89) V5 load(1, XDATA, add(CFA_XSP16, literal(-15)))
        CFI (cfiCond89) V6 load(1, XDATA, add(CFA_XSP16, literal(-14)))
        CFI (cfiCond89) V7 load(1, XDATA, add(CFA_XSP16, literal(-13)))
        CFI (cfiCond89) V8 load(1, XDATA, add(CFA_XSP16, literal(-12)))
        CFI (cfiCond89) V9 load(1, XDATA, add(CFA_XSP16, literal(-11)))
        CFI (cfiCond89) V10 load(1, XDATA, add(CFA_XSP16, literal(-10)))
        CFI (cfiCond89) V11 load(1, XDATA, add(CFA_XSP16, literal(-9)))
        CFI (cfiCond89) V12 load(1, XDATA, add(CFA_XSP16, literal(-8)))
        CFI (cfiCond89) V13 load(1, XDATA, add(CFA_XSP16, literal(-7)))
        CFI (cfiCond89) R7 load(1, XDATA, add(CFA_XSP16, literal(-6)))
        CFI (cfiCond89) ?RET_LOW load(1, XDATA, add(CFA_XSP16, literal(-5)))
        CFI (cfiCond89) ?RET_HIGH load(1, XDATA, add(CFA_XSP16, literal(-4)))
        CFI (cfiCond89) ?BRET_EXT load(1, XDATA, add(CFA_XSP16, literal(-3)))
        CFI (cfiCond89) DPL0 load(1, XDATA, add(CFA_XSP16, literal(-2)))
        CFI (cfiCond89) DPH0 load(1, XDATA, add(CFA_XSP16, literal(-1)))
        CFI (cfiCond89) CFA_SP SP+0
        CFI (cfiCond89) CFA_XSP16 add(XSP16, 22)
        CFI Block cfiCond90 Using cfiCommon0
        CFI (cfiCond90) NoFunction
        CFI (cfiCond90) Conditional ??CrossCallReturnLabel_53, ??CrossCallReturnLabel_40, ??CrossCallReturnLabel_6
        CFI (cfiCond90) R6 load(1, XDATA, add(CFA_XSP16, literal(-22)))
        CFI (cfiCond90) VB load(1, XDATA, add(CFA_XSP16, literal(-21)))
        CFI (cfiCond90) V0 load(1, XDATA, add(CFA_XSP16, literal(-20)))
        CFI (cfiCond90) V1 load(1, XDATA, add(CFA_XSP16, literal(-19)))
        CFI (cfiCond90) V2 load(1, XDATA, add(CFA_XSP16, literal(-18)))
        CFI (cfiCond90) V3 load(1, XDATA, add(CFA_XSP16, literal(-17)))
        CFI (cfiCond90) V4 load(1, XDATA, add(CFA_XSP16, literal(-16)))
        CFI (cfiCond90) V5 load(1, XDATA, add(CFA_XSP16, literal(-15)))
        CFI (cfiCond90) V6 load(1, XDATA, add(CFA_XSP16, literal(-14)))
        CFI (cfiCond90) V7 load(1, XDATA, add(CFA_XSP16, literal(-13)))
        CFI (cfiCond90) V8 load(1, XDATA, add(CFA_XSP16, literal(-12)))
        CFI (cfiCond90) V9 load(1, XDATA, add(CFA_XSP16, literal(-11)))
        CFI (cfiCond90) V10 load(1, XDATA, add(CFA_XSP16, literal(-10)))
        CFI (cfiCond90) V11 load(1, XDATA, add(CFA_XSP16, literal(-9)))
        CFI (cfiCond90) V12 load(1, XDATA, add(CFA_XSP16, literal(-8)))
        CFI (cfiCond90) V13 load(1, XDATA, add(CFA_XSP16, literal(-7)))
        CFI (cfiCond90) R7 load(1, XDATA, add(CFA_XSP16, literal(-6)))
        CFI (cfiCond90) ?RET_LOW load(1, XDATA, add(CFA_XSP16, literal(-5)))
        CFI (cfiCond90) ?RET_HIGH load(1, XDATA, add(CFA_XSP16, literal(-4)))
        CFI (cfiCond90) ?BRET_EXT load(1, XDATA, add(CFA_XSP16, literal(-3)))
        CFI (cfiCond90) DPL0 load(1, XDATA, add(CFA_XSP16, literal(-2)))
        CFI (cfiCond90) DPH0 load(1, XDATA, add(CFA_XSP16, literal(-1)))
        CFI (cfiCond90) CFA_SP SP+0
        CFI (cfiCond90) CFA_XSP16 add(XSP16, 22)
        CFI Block cfiCond91 Using cfiCommon0
        CFI (cfiCond91) NoFunction
        CFI (cfiCond91) Conditional ??CrossCallReturnLabel_53, ??CrossCallReturnLabel_40, ??CrossCallReturnLabel_7
        CFI (cfiCond91) R6 load(1, XDATA, add(CFA_XSP16, literal(-22)))
        CFI (cfiCond91) VB load(1, XDATA, add(CFA_XSP16, literal(-21)))
        CFI (cfiCond91) V0 load(1, XDATA, add(CFA_XSP16, literal(-20)))
        CFI (cfiCond91) V1 load(1, XDATA, add(CFA_XSP16, literal(-19)))
        CFI (cfiCond91) V2 load(1, XDATA, add(CFA_XSP16, literal(-18)))
        CFI (cfiCond91) V3 load(1, XDATA, add(CFA_XSP16, literal(-17)))
        CFI (cfiCond91) V4 load(1, XDATA, add(CFA_XSP16, literal(-16)))
        CFI (cfiCond91) V5 load(1, XDATA, add(CFA_XSP16, literal(-15)))
        CFI (cfiCond91) V6 load(1, XDATA, add(CFA_XSP16, literal(-14)))
        CFI (cfiCond91) V7 load(1, XDATA, add(CFA_XSP16, literal(-13)))
        CFI (cfiCond91) V8 load(1, XDATA, add(CFA_XSP16, literal(-12)))
        CFI (cfiCond91) V9 load(1, XDATA, add(CFA_XSP16, literal(-11)))
        CFI (cfiCond91) V10 load(1, XDATA, add(CFA_XSP16, literal(-10)))
        CFI (cfiCond91) V11 load(1, XDATA, add(CFA_XSP16, literal(-9)))
        CFI (cfiCond91) V12 load(1, XDATA, add(CFA_XSP16, literal(-8)))
        CFI (cfiCond91) V13 load(1, XDATA, add(CFA_XSP16, literal(-7)))
        CFI (cfiCond91) R7 load(1, XDATA, add(CFA_XSP16, literal(-6)))
        CFI (cfiCond91) ?RET_LOW load(1, XDATA, add(CFA_XSP16, literal(-5)))
        CFI (cfiCond91) ?RET_HIGH load(1, XDATA, add(CFA_XSP16, literal(-4)))
        CFI (cfiCond91) ?BRET_EXT load(1, XDATA, add(CFA_XSP16, literal(-3)))
        CFI (cfiCond91) DPL0 load(1, XDATA, add(CFA_XSP16, literal(-2)))
        CFI (cfiCond91) DPH0 load(1, XDATA, add(CFA_XSP16, literal(-1)))
        CFI (cfiCond91) CFA_SP SP+0
        CFI (cfiCond91) CFA_XSP16 add(XSP16, 22)
        CFI Block cfiCond92 Using cfiCommon0
        CFI (cfiCond92) NoFunction
        CFI (cfiCond92) Conditional ??CrossCallReturnLabel_53, ??CrossCallReturnLabel_41, ??CrossCallReturnLabel_37
        CFI (cfiCond92) R6 load(1, XDATA, add(CFA_XSP16, literal(-22)))
        CFI (cfiCond92) VB load(1, XDATA, add(CFA_XSP16, literal(-21)))
        CFI (cfiCond92) V0 load(1, XDATA, add(CFA_XSP16, literal(-20)))
        CFI (cfiCond92) V1 load(1, XDATA, add(CFA_XSP16, literal(-19)))
        CFI (cfiCond92) V2 load(1, XDATA, add(CFA_XSP16, literal(-18)))
        CFI (cfiCond92) V3 load(1, XDATA, add(CFA_XSP16, literal(-17)))
        CFI (cfiCond92) V4 load(1, XDATA, add(CFA_XSP16, literal(-16)))
        CFI (cfiCond92) V5 load(1, XDATA, add(CFA_XSP16, literal(-15)))
        CFI (cfiCond92) V6 load(1, XDATA, add(CFA_XSP16, literal(-14)))
        CFI (cfiCond92) V7 load(1, XDATA, add(CFA_XSP16, literal(-13)))
        CFI (cfiCond92) V8 load(1, XDATA, add(CFA_XSP16, literal(-12)))
        CFI (cfiCond92) V9 load(1, XDATA, add(CFA_XSP16, literal(-11)))
        CFI (cfiCond92) V10 load(1, XDATA, add(CFA_XSP16, literal(-10)))
        CFI (cfiCond92) V11 load(1, XDATA, add(CFA_XSP16, literal(-9)))
        CFI (cfiCond92) V12 load(1, XDATA, add(CFA_XSP16, literal(-8)))
        CFI (cfiCond92) V13 load(1, XDATA, add(CFA_XSP16, literal(-7)))
        CFI (cfiCond92) R7 load(1, XDATA, add(CFA_XSP16, literal(-6)))
        CFI (cfiCond92) ?RET_LOW load(1, XDATA, add(CFA_XSP16, literal(-5)))
        CFI (cfiCond92) ?RET_HIGH load(1, XDATA, add(CFA_XSP16, literal(-4)))
        CFI (cfiCond92) ?BRET_EXT load(1, XDATA, add(CFA_XSP16, literal(-3)))
        CFI (cfiCond92) DPL0 load(1, XDATA, add(CFA_XSP16, literal(-2)))
        CFI (cfiCond92) DPH0 load(1, XDATA, add(CFA_XSP16, literal(-1)))
        CFI (cfiCond92) CFA_SP SP+0
        CFI (cfiCond92) CFA_XSP16 add(XSP16, 22)
        CFI Block cfiCond93 Using cfiCommon0
        CFI (cfiCond93) NoFunction
        CFI (cfiCond93) Conditional ??CrossCallReturnLabel_53, ??CrossCallReturnLabel_41, ??CrossCallReturnLabel_38
        CFI (cfiCond93) R6 load(1, XDATA, add(CFA_XSP16, literal(-22)))
        CFI (cfiCond93) VB load(1, XDATA, add(CFA_XSP16, literal(-21)))
        CFI (cfiCond93) V0 load(1, XDATA, add(CFA_XSP16, literal(-20)))
        CFI (cfiCond93) V1 load(1, XDATA, add(CFA_XSP16, literal(-19)))
        CFI (cfiCond93) V2 load(1, XDATA, add(CFA_XSP16, literal(-18)))
        CFI (cfiCond93) V3 load(1, XDATA, add(CFA_XSP16, literal(-17)))
        CFI (cfiCond93) V4 load(1, XDATA, add(CFA_XSP16, literal(-16)))
        CFI (cfiCond93) V5 load(1, XDATA, add(CFA_XSP16, literal(-15)))
        CFI (cfiCond93) V6 load(1, XDATA, add(CFA_XSP16, literal(-14)))
        CFI (cfiCond93) V7 load(1, XDATA, add(CFA_XSP16, literal(-13)))
        CFI (cfiCond93) V8 load(1, XDATA, add(CFA_XSP16, literal(-12)))
        CFI (cfiCond93) V9 load(1, XDATA, add(CFA_XSP16, literal(-11)))
        CFI (cfiCond93) V10 load(1, XDATA, add(CFA_XSP16, literal(-10)))
        CFI (cfiCond93) V11 load(1, XDATA, add(CFA_XSP16, literal(-9)))
        CFI (cfiCond93) V12 load(1, XDATA, add(CFA_XSP16, literal(-8)))
        CFI (cfiCond93) V13 load(1, XDATA, add(CFA_XSP16, literal(-7)))
        CFI (cfiCond93) R7 load(1, XDATA, add(CFA_XSP16, literal(-6)))
        CFI (cfiCond93) ?RET_LOW load(1, XDATA, add(CFA_XSP16, literal(-5)))
        CFI (cfiCond93) ?RET_HIGH load(1, XDATA, add(CFA_XSP16, literal(-4)))
        CFI (cfiCond93) ?BRET_EXT load(1, XDATA, add(CFA_XSP16, literal(-3)))
        CFI (cfiCond93) DPL0 load(1, XDATA, add(CFA_XSP16, literal(-2)))
        CFI (cfiCond93) DPH0 load(1, XDATA, add(CFA_XSP16, literal(-1)))
        CFI (cfiCond93) CFA_SP SP+0
        CFI (cfiCond93) CFA_XSP16 add(XSP16, 22)
        CFI Block cfiCond94 Using cfiCommon0
        CFI (cfiCond94) NoFunction
        CFI (cfiCond94) Conditional ??CrossCallReturnLabel_53, ??CrossCallReturnLabel_41, ??CrossCallReturnLabel_36
        CFI (cfiCond94) R6 load(1, XDATA, add(CFA_XSP16, literal(-22)))
        CFI (cfiCond94) VB load(1, XDATA, add(CFA_XSP16, literal(-21)))
        CFI (cfiCond94) V0 load(1, XDATA, add(CFA_XSP16, literal(-20)))
        CFI (cfiCond94) V1 load(1, XDATA, add(CFA_XSP16, literal(-19)))
        CFI (cfiCond94) V2 load(1, XDATA, add(CFA_XSP16, literal(-18)))
        CFI (cfiCond94) V3 load(1, XDATA, add(CFA_XSP16, literal(-17)))
        CFI (cfiCond94) V4 load(1, XDATA, add(CFA_XSP16, literal(-16)))
        CFI (cfiCond94) V5 load(1, XDATA, add(CFA_XSP16, literal(-15)))
        CFI (cfiCond94) V6 load(1, XDATA, add(CFA_XSP16, literal(-14)))
        CFI (cfiCond94) V7 load(1, XDATA, add(CFA_XSP16, literal(-13)))
        CFI (cfiCond94) V8 load(1, XDATA, add(CFA_XSP16, literal(-12)))
        CFI (cfiCond94) V9 load(1, XDATA, add(CFA_XSP16, literal(-11)))
        CFI (cfiCond94) V10 load(1, XDATA, add(CFA_XSP16, literal(-10)))
        CFI (cfiCond94) V11 load(1, XDATA, add(CFA_XSP16, literal(-9)))
        CFI (cfiCond94) V12 load(1, XDATA, add(CFA_XSP16, literal(-8)))
        CFI (cfiCond94) V13 load(1, XDATA, add(CFA_XSP16, literal(-7)))
        CFI (cfiCond94) R7 load(1, XDATA, add(CFA_XSP16, literal(-6)))
        CFI (cfiCond94) ?RET_LOW load(1, XDATA, add(CFA_XSP16, literal(-5)))
        CFI (cfiCond94) ?RET_HIGH load(1, XDATA, add(CFA_XSP16, literal(-4)))
        CFI (cfiCond94) ?BRET_EXT load(1, XDATA, add(CFA_XSP16, literal(-3)))
        CFI (cfiCond94) DPL0 load(1, XDATA, add(CFA_XSP16, literal(-2)))
        CFI (cfiCond94) DPH0 load(1, XDATA, add(CFA_XSP16, literal(-1)))
        CFI (cfiCond94) CFA_SP SP+0
        CFI (cfiCond94) CFA_XSP16 add(XSP16, 22)
        CFI Block cfiCond95 Using cfiCommon0
        CFI (cfiCond95) NoFunction
        CFI (cfiCond95) Conditional ??CrossCallReturnLabel_53, ??CrossCallReturnLabel_39, ??CrossCallReturnLabel_2
        CFI (cfiCond95) R6 load(1, XDATA, add(CFA_XSP16, literal(-22)))
        CFI (cfiCond95) VB load(1, XDATA, add(CFA_XSP16, literal(-21)))
        CFI (cfiCond95) V0 load(1, XDATA, add(CFA_XSP16, literal(-20)))
        CFI (cfiCond95) V1 load(1, XDATA, add(CFA_XSP16, literal(-19)))
        CFI (cfiCond95) V2 load(1, XDATA, add(CFA_XSP16, literal(-18)))
        CFI (cfiCond95) V3 load(1, XDATA, add(CFA_XSP16, literal(-17)))
        CFI (cfiCond95) V4 load(1, XDATA, add(CFA_XSP16, literal(-16)))
        CFI (cfiCond95) V5 load(1, XDATA, add(CFA_XSP16, literal(-15)))
        CFI (cfiCond95) V6 load(1, XDATA, add(CFA_XSP16, literal(-14)))
        CFI (cfiCond95) V7 load(1, XDATA, add(CFA_XSP16, literal(-13)))
        CFI (cfiCond95) V8 load(1, XDATA, add(CFA_XSP16, literal(-12)))
        CFI (cfiCond95) V9 load(1, XDATA, add(CFA_XSP16, literal(-11)))
        CFI (cfiCond95) V10 load(1, XDATA, add(CFA_XSP16, literal(-10)))
        CFI (cfiCond95) V11 load(1, XDATA, add(CFA_XSP16, literal(-9)))
        CFI (cfiCond95) V12 load(1, XDATA, add(CFA_XSP16, literal(-8)))
        CFI (cfiCond95) V13 load(1, XDATA, add(CFA_XSP16, literal(-7)))
        CFI (cfiCond95) R7 load(1, XDATA, add(CFA_XSP16, literal(-6)))
        CFI (cfiCond95) ?RET_LOW load(1, XDATA, add(CFA_XSP16, literal(-5)))
        CFI (cfiCond95) ?RET_HIGH load(1, XDATA, add(CFA_XSP16, literal(-4)))
        CFI (cfiCond95) ?BRET_EXT load(1, XDATA, add(CFA_XSP16, literal(-3)))
        CFI (cfiCond95) DPL0 load(1, XDATA, add(CFA_XSP16, literal(-2)))
        CFI (cfiCond95) DPH0 load(1, XDATA, add(CFA_XSP16, literal(-1)))
        CFI (cfiCond95) CFA_SP SP+0
        CFI (cfiCond95) CFA_XSP16 add(XSP16, 22)
        CFI Block cfiCond96 Using cfiCommon0
        CFI (cfiCond96) NoFunction
        CFI (cfiCond96) Conditional ??CrossCallReturnLabel_53, ??CrossCallReturnLabel_39, ??CrossCallReturnLabel_3
        CFI (cfiCond96) R6 load(1, XDATA, add(CFA_XSP16, literal(-22)))
        CFI (cfiCond96) VB load(1, XDATA, add(CFA_XSP16, literal(-21)))
        CFI (cfiCond96) V0 load(1, XDATA, add(CFA_XSP16, literal(-20)))
        CFI (cfiCond96) V1 load(1, XDATA, add(CFA_XSP16, literal(-19)))
        CFI (cfiCond96) V2 load(1, XDATA, add(CFA_XSP16, literal(-18)))
        CFI (cfiCond96) V3 load(1, XDATA, add(CFA_XSP16, literal(-17)))
        CFI (cfiCond96) V4 load(1, XDATA, add(CFA_XSP16, literal(-16)))
        CFI (cfiCond96) V5 load(1, XDATA, add(CFA_XSP16, literal(-15)))
        CFI (cfiCond96) V6 load(1, XDATA, add(CFA_XSP16, literal(-14)))
        CFI (cfiCond96) V7 load(1, XDATA, add(CFA_XSP16, literal(-13)))
        CFI (cfiCond96) V8 load(1, XDATA, add(CFA_XSP16, literal(-12)))
        CFI (cfiCond96) V9 load(1, XDATA, add(CFA_XSP16, literal(-11)))
        CFI (cfiCond96) V10 load(1, XDATA, add(CFA_XSP16, literal(-10)))
        CFI (cfiCond96) V11 load(1, XDATA, add(CFA_XSP16, literal(-9)))
        CFI (cfiCond96) V12 load(1, XDATA, add(CFA_XSP16, literal(-8)))
        CFI (cfiCond96) V13 load(1, XDATA, add(CFA_XSP16, literal(-7)))
        CFI (cfiCond96) R7 load(1, XDATA, add(CFA_XSP16, literal(-6)))
        CFI (cfiCond96) ?RET_LOW load(1, XDATA, add(CFA_XSP16, literal(-5)))
        CFI (cfiCond96) ?RET_HIGH load(1, XDATA, add(CFA_XSP16, literal(-4)))
        CFI (cfiCond96) ?BRET_EXT load(1, XDATA, add(CFA_XSP16, literal(-3)))
        CFI (cfiCond96) DPL0 load(1, XDATA, add(CFA_XSP16, literal(-2)))
        CFI (cfiCond96) DPH0 load(1, XDATA, add(CFA_XSP16, literal(-1)))
        CFI (cfiCond96) CFA_SP SP+0
        CFI (cfiCond96) CFA_XSP16 add(XSP16, 22)
        CFI Block cfiCond97 Using cfiCommon0
        CFI (cfiCond97) NoFunction
        CFI (cfiCond97) Conditional ??CrossCallReturnLabel_54, ??CrossCallReturnLabel_49, ??CrossCallReturnLabel_43
        CFI (cfiCond97) R6 load(1, XDATA, add(CFA_XSP16, literal(-22)))
        CFI (cfiCond97) VB load(1, XDATA, add(CFA_XSP16, literal(-21)))
        CFI (cfiCond97) V0 load(1, XDATA, add(CFA_XSP16, literal(-20)))
        CFI (cfiCond97) V1 load(1, XDATA, add(CFA_XSP16, literal(-19)))
        CFI (cfiCond97) V2 load(1, XDATA, add(CFA_XSP16, literal(-18)))
        CFI (cfiCond97) V3 load(1, XDATA, add(CFA_XSP16, literal(-17)))
        CFI (cfiCond97) V4 load(1, XDATA, add(CFA_XSP16, literal(-16)))
        CFI (cfiCond97) V5 load(1, XDATA, add(CFA_XSP16, literal(-15)))
        CFI (cfiCond97) V6 load(1, XDATA, add(CFA_XSP16, literal(-14)))
        CFI (cfiCond97) V7 load(1, XDATA, add(CFA_XSP16, literal(-13)))
        CFI (cfiCond97) V8 load(1, XDATA, add(CFA_XSP16, literal(-12)))
        CFI (cfiCond97) V9 load(1, XDATA, add(CFA_XSP16, literal(-11)))
        CFI (cfiCond97) V10 load(1, XDATA, add(CFA_XSP16, literal(-10)))
        CFI (cfiCond97) V11 load(1, XDATA, add(CFA_XSP16, literal(-9)))
        CFI (cfiCond97) V12 load(1, XDATA, add(CFA_XSP16, literal(-8)))
        CFI (cfiCond97) V13 load(1, XDATA, add(CFA_XSP16, literal(-7)))
        CFI (cfiCond97) R7 load(1, XDATA, add(CFA_XSP16, literal(-6)))
        CFI (cfiCond97) ?RET_LOW load(1, XDATA, add(CFA_XSP16, literal(-5)))
        CFI (cfiCond97) ?RET_HIGH load(1, XDATA, add(CFA_XSP16, literal(-4)))
        CFI (cfiCond97) ?BRET_EXT load(1, XDATA, add(CFA_XSP16, literal(-3)))
        CFI (cfiCond97) DPL0 load(1, XDATA, add(CFA_XSP16, literal(-2)))
        CFI (cfiCond97) DPH0 load(1, XDATA, add(CFA_XSP16, literal(-1)))
        CFI (cfiCond97) CFA_SP SP+0
        CFI (cfiCond97) CFA_XSP16 add(XSP16, 22)
        CFI Block cfiCond98 Using cfiCommon0
        CFI (cfiCond98) NoFunction
        CFI (cfiCond98) Conditional ??CrossCallReturnLabel_54, ??CrossCallReturnLabel_49, ??CrossCallReturnLabel_44
        CFI (cfiCond98) R6 load(1, XDATA, add(CFA_XSP16, literal(-22)))
        CFI (cfiCond98) VB load(1, XDATA, add(CFA_XSP16, literal(-21)))
        CFI (cfiCond98) V0 load(1, XDATA, add(CFA_XSP16, literal(-20)))
        CFI (cfiCond98) V1 load(1, XDATA, add(CFA_XSP16, literal(-19)))
        CFI (cfiCond98) V2 load(1, XDATA, add(CFA_XSP16, literal(-18)))
        CFI (cfiCond98) V3 load(1, XDATA, add(CFA_XSP16, literal(-17)))
        CFI (cfiCond98) V4 load(1, XDATA, add(CFA_XSP16, literal(-16)))
        CFI (cfiCond98) V5 load(1, XDATA, add(CFA_XSP16, literal(-15)))
        CFI (cfiCond98) V6 load(1, XDATA, add(CFA_XSP16, literal(-14)))
        CFI (cfiCond98) V7 load(1, XDATA, add(CFA_XSP16, literal(-13)))
        CFI (cfiCond98) V8 load(1, XDATA, add(CFA_XSP16, literal(-12)))
        CFI (cfiCond98) V9 load(1, XDATA, add(CFA_XSP16, literal(-11)))
        CFI (cfiCond98) V10 load(1, XDATA, add(CFA_XSP16, literal(-10)))
        CFI (cfiCond98) V11 load(1, XDATA, add(CFA_XSP16, literal(-9)))
        CFI (cfiCond98) V12 load(1, XDATA, add(CFA_XSP16, literal(-8)))
        CFI (cfiCond98) V13 load(1, XDATA, add(CFA_XSP16, literal(-7)))
        CFI (cfiCond98) R7 load(1, XDATA, add(CFA_XSP16, literal(-6)))
        CFI (cfiCond98) ?RET_LOW load(1, XDATA, add(CFA_XSP16, literal(-5)))
        CFI (cfiCond98) ?RET_HIGH load(1, XDATA, add(CFA_XSP16, literal(-4)))
        CFI (cfiCond98) ?BRET_EXT load(1, XDATA, add(CFA_XSP16, literal(-3)))
        CFI (cfiCond98) DPL0 load(1, XDATA, add(CFA_XSP16, literal(-2)))
        CFI (cfiCond98) DPH0 load(1, XDATA, add(CFA_XSP16, literal(-1)))
        CFI (cfiCond98) CFA_SP SP+0
        CFI (cfiCond98) CFA_XSP16 add(XSP16, 22)
        CFI Block cfiCond99 Using cfiCommon0
        CFI (cfiCond99) NoFunction
        CFI (cfiCond99) Conditional ??CrossCallReturnLabel_54, ??CrossCallReturnLabel_49, ??CrossCallReturnLabel_42
        CFI (cfiCond99) R6 load(1, XDATA, add(CFA_XSP16, literal(-22)))
        CFI (cfiCond99) VB load(1, XDATA, add(CFA_XSP16, literal(-21)))
        CFI (cfiCond99) V0 load(1, XDATA, add(CFA_XSP16, literal(-20)))
        CFI (cfiCond99) V1 load(1, XDATA, add(CFA_XSP16, literal(-19)))
        CFI (cfiCond99) V2 load(1, XDATA, add(CFA_XSP16, literal(-18)))
        CFI (cfiCond99) V3 load(1, XDATA, add(CFA_XSP16, literal(-17)))
        CFI (cfiCond99) V4 load(1, XDATA, add(CFA_XSP16, literal(-16)))
        CFI (cfiCond99) V5 load(1, XDATA, add(CFA_XSP16, literal(-15)))
        CFI (cfiCond99) V6 load(1, XDATA, add(CFA_XSP16, literal(-14)))
        CFI (cfiCond99) V7 load(1, XDATA, add(CFA_XSP16, literal(-13)))
        CFI (cfiCond99) V8 load(1, XDATA, add(CFA_XSP16, literal(-12)))
        CFI (cfiCond99) V9 load(1, XDATA, add(CFA_XSP16, literal(-11)))
        CFI (cfiCond99) V10 load(1, XDATA, add(CFA_XSP16, literal(-10)))
        CFI (cfiCond99) V11 load(1, XDATA, add(CFA_XSP16, literal(-9)))
        CFI (cfiCond99) V12 load(1, XDATA, add(CFA_XSP16, literal(-8)))
        CFI (cfiCond99) V13 load(1, XDATA, add(CFA_XSP16, literal(-7)))
        CFI (cfiCond99) R7 load(1, XDATA, add(CFA_XSP16, literal(-6)))
        CFI (cfiCond99) ?RET_LOW load(1, XDATA, add(CFA_XSP16, literal(-5)))
        CFI (cfiCond99) ?RET_HIGH load(1, XDATA, add(CFA_XSP16, literal(-4)))
        CFI (cfiCond99) ?BRET_EXT load(1, XDATA, add(CFA_XSP16, literal(-3)))
        CFI (cfiCond99) DPL0 load(1, XDATA, add(CFA_XSP16, literal(-2)))
        CFI (cfiCond99) DPH0 load(1, XDATA, add(CFA_XSP16, literal(-1)))
        CFI (cfiCond99) CFA_SP SP+0
        CFI (cfiCond99) CFA_XSP16 add(XSP16, 22)
        CFI Block cfiCond100 Using cfiCommon0
        CFI (cfiCond100) NoFunction
        CFI (cfiCond100) Conditional ??CrossCallReturnLabel_54, ??CrossCallReturnLabel_50, ??CrossCallReturnLabel_45
        CFI (cfiCond100) R6 load(1, XDATA, add(CFA_XSP16, literal(-22)))
        CFI (cfiCond100) VB load(1, XDATA, add(CFA_XSP16, literal(-21)))
        CFI (cfiCond100) V0 load(1, XDATA, add(CFA_XSP16, literal(-20)))
        CFI (cfiCond100) V1 load(1, XDATA, add(CFA_XSP16, literal(-19)))
        CFI (cfiCond100) V2 load(1, XDATA, add(CFA_XSP16, literal(-18)))
        CFI (cfiCond100) V3 load(1, XDATA, add(CFA_XSP16, literal(-17)))
        CFI (cfiCond100) V4 load(1, XDATA, add(CFA_XSP16, literal(-16)))
        CFI (cfiCond100) V5 load(1, XDATA, add(CFA_XSP16, literal(-15)))
        CFI (cfiCond100) V6 load(1, XDATA, add(CFA_XSP16, literal(-14)))
        CFI (cfiCond100) V7 load(1, XDATA, add(CFA_XSP16, literal(-13)))
        CFI (cfiCond100) V8 load(1, XDATA, add(CFA_XSP16, literal(-12)))
        CFI (cfiCond100) V9 load(1, XDATA, add(CFA_XSP16, literal(-11)))
        CFI (cfiCond100) V10 load(1, XDATA, add(CFA_XSP16, literal(-10)))
        CFI (cfiCond100) V11 load(1, XDATA, add(CFA_XSP16, literal(-9)))
        CFI (cfiCond100) V12 load(1, XDATA, add(CFA_XSP16, literal(-8)))
        CFI (cfiCond100) V13 load(1, XDATA, add(CFA_XSP16, literal(-7)))
        CFI (cfiCond100) R7 load(1, XDATA, add(CFA_XSP16, literal(-6)))
        CFI (cfiCond100) ?RET_LOW load(1, XDATA, add(CFA_XSP16, literal(-5)))
        CFI (cfiCond100) ?RET_HIGH load(1, XDATA, add(CFA_XSP16, literal(-4)))
        CFI (cfiCond100) ?BRET_EXT load(1, XDATA, add(CFA_XSP16, literal(-3)))
        CFI (cfiCond100) DPL0 load(1, XDATA, add(CFA_XSP16, literal(-2)))
        CFI (cfiCond100) DPH0 load(1, XDATA, add(CFA_XSP16, literal(-1)))
        CFI (cfiCond100) CFA_SP SP+0
        CFI (cfiCond100) CFA_XSP16 add(XSP16, 22)
        CFI Block cfiCond101 Using cfiCommon0
        CFI (cfiCond101) NoFunction
        CFI (cfiCond101) Conditional ??CrossCallReturnLabel_54, ??CrossCallReturnLabel_50, ??CrossCallReturnLabel_46
        CFI (cfiCond101) R6 load(1, XDATA, add(CFA_XSP16, literal(-22)))
        CFI (cfiCond101) VB load(1, XDATA, add(CFA_XSP16, literal(-21)))
        CFI (cfiCond101) V0 load(1, XDATA, add(CFA_XSP16, literal(-20)))
        CFI (cfiCond101) V1 load(1, XDATA, add(CFA_XSP16, literal(-19)))
        CFI (cfiCond101) V2 load(1, XDATA, add(CFA_XSP16, literal(-18)))
        CFI (cfiCond101) V3 load(1, XDATA, add(CFA_XSP16, literal(-17)))
        CFI (cfiCond101) V4 load(1, XDATA, add(CFA_XSP16, literal(-16)))
        CFI (cfiCond101) V5 load(1, XDATA, add(CFA_XSP16, literal(-15)))
        CFI (cfiCond101) V6 load(1, XDATA, add(CFA_XSP16, literal(-14)))
        CFI (cfiCond101) V7 load(1, XDATA, add(CFA_XSP16, literal(-13)))
        CFI (cfiCond101) V8 load(1, XDATA, add(CFA_XSP16, literal(-12)))
        CFI (cfiCond101) V9 load(1, XDATA, add(CFA_XSP16, literal(-11)))
        CFI (cfiCond101) V10 load(1, XDATA, add(CFA_XSP16, literal(-10)))
        CFI (cfiCond101) V11 load(1, XDATA, add(CFA_XSP16, literal(-9)))
        CFI (cfiCond101) V12 load(1, XDATA, add(CFA_XSP16, literal(-8)))
        CFI (cfiCond101) V13 load(1, XDATA, add(CFA_XSP16, literal(-7)))
        CFI (cfiCond101) R7 load(1, XDATA, add(CFA_XSP16, literal(-6)))
        CFI (cfiCond101) ?RET_LOW load(1, XDATA, add(CFA_XSP16, literal(-5)))
        CFI (cfiCond101) ?RET_HIGH load(1, XDATA, add(CFA_XSP16, literal(-4)))
        CFI (cfiCond101) ?BRET_EXT load(1, XDATA, add(CFA_XSP16, literal(-3)))
        CFI (cfiCond101) DPL0 load(1, XDATA, add(CFA_XSP16, literal(-2)))
        CFI (cfiCond101) DPH0 load(1, XDATA, add(CFA_XSP16, literal(-1)))
        CFI (cfiCond101) CFA_SP SP+0
        CFI (cfiCond101) CFA_XSP16 add(XSP16, 22)
        CFI Block cfiCond102 Using cfiCommon0
        CFI (cfiCond102) NoFunction
        CFI (cfiCond102) Conditional ??CrossCallReturnLabel_54, ??CrossCallReturnLabel_50, ??CrossCallReturnLabel_47
        CFI (cfiCond102) R6 load(1, XDATA, add(CFA_XSP16, literal(-22)))
        CFI (cfiCond102) VB load(1, XDATA, add(CFA_XSP16, literal(-21)))
        CFI (cfiCond102) V0 load(1, XDATA, add(CFA_XSP16, literal(-20)))
        CFI (cfiCond102) V1 load(1, XDATA, add(CFA_XSP16, literal(-19)))
        CFI (cfiCond102) V2 load(1, XDATA, add(CFA_XSP16, literal(-18)))
        CFI (cfiCond102) V3 load(1, XDATA, add(CFA_XSP16, literal(-17)))
        CFI (cfiCond102) V4 load(1, XDATA, add(CFA_XSP16, literal(-16)))
        CFI (cfiCond102) V5 load(1, XDATA, add(CFA_XSP16, literal(-15)))
        CFI (cfiCond102) V6 load(1, XDATA, add(CFA_XSP16, literal(-14)))
        CFI (cfiCond102) V7 load(1, XDATA, add(CFA_XSP16, literal(-13)))
        CFI (cfiCond102) V8 load(1, XDATA, add(CFA_XSP16, literal(-12)))
        CFI (cfiCond102) V9 load(1, XDATA, add(CFA_XSP16, literal(-11)))
        CFI (cfiCond102) V10 load(1, XDATA, add(CFA_XSP16, literal(-10)))
        CFI (cfiCond102) V11 load(1, XDATA, add(CFA_XSP16, literal(-9)))
        CFI (cfiCond102) V12 load(1, XDATA, add(CFA_XSP16, literal(-8)))
        CFI (cfiCond102) V13 load(1, XDATA, add(CFA_XSP16, literal(-7)))
        CFI (cfiCond102) R7 load(1, XDATA, add(CFA_XSP16, literal(-6)))
        CFI (cfiCond102) ?RET_LOW load(1, XDATA, add(CFA_XSP16, literal(-5)))
        CFI (cfiCond102) ?RET_HIGH load(1, XDATA, add(CFA_XSP16, literal(-4)))
        CFI (cfiCond102) ?BRET_EXT load(1, XDATA, add(CFA_XSP16, literal(-3)))
        CFI (cfiCond102) DPL0 load(1, XDATA, add(CFA_XSP16, literal(-2)))
        CFI (cfiCond102) DPH0 load(1, XDATA, add(CFA_XSP16, literal(-1)))
        CFI (cfiCond102) CFA_SP SP+0
        CFI (cfiCond102) CFA_XSP16 add(XSP16, 22)
        CFI Block cfiCond103 Using cfiCommon0
        CFI (cfiCond103) NoFunction
        CFI (cfiCond103) Conditional ??CrossCallReturnLabel_54, ??CrossCallReturnLabel_50, ??CrossCallReturnLabel_48
        CFI (cfiCond103) R6 load(1, XDATA, add(CFA_XSP16, literal(-22)))
        CFI (cfiCond103) VB load(1, XDATA, add(CFA_XSP16, literal(-21)))
        CFI (cfiCond103) V0 load(1, XDATA, add(CFA_XSP16, literal(-20)))
        CFI (cfiCond103) V1 load(1, XDATA, add(CFA_XSP16, literal(-19)))
        CFI (cfiCond103) V2 load(1, XDATA, add(CFA_XSP16, literal(-18)))
        CFI (cfiCond103) V3 load(1, XDATA, add(CFA_XSP16, literal(-17)))
        CFI (cfiCond103) V4 load(1, XDATA, add(CFA_XSP16, literal(-16)))
        CFI (cfiCond103) V5 load(1, XDATA, add(CFA_XSP16, literal(-15)))
        CFI (cfiCond103) V6 load(1, XDATA, add(CFA_XSP16, literal(-14)))
        CFI (cfiCond103) V7 load(1, XDATA, add(CFA_XSP16, literal(-13)))
        CFI (cfiCond103) V8 load(1, XDATA, add(CFA_XSP16, literal(-12)))
        CFI (cfiCond103) V9 load(1, XDATA, add(CFA_XSP16, literal(-11)))
        CFI (cfiCond103) V10 load(1, XDATA, add(CFA_XSP16, literal(-10)))
        CFI (cfiCond103) V11 load(1, XDATA, add(CFA_XSP16, literal(-9)))
        CFI (cfiCond103) V12 load(1, XDATA, add(CFA_XSP16, literal(-8)))
        CFI (cfiCond103) V13 load(1, XDATA, add(CFA_XSP16, literal(-7)))
        CFI (cfiCond103) R7 load(1, XDATA, add(CFA_XSP16, literal(-6)))
        CFI (cfiCond103) ?RET_LOW load(1, XDATA, add(CFA_XSP16, literal(-5)))
        CFI (cfiCond103) ?RET_HIGH load(1, XDATA, add(CFA_XSP16, literal(-4)))
        CFI (cfiCond103) ?BRET_EXT load(1, XDATA, add(CFA_XSP16, literal(-3)))
        CFI (cfiCond103) DPL0 load(1, XDATA, add(CFA_XSP16, literal(-2)))
        CFI (cfiCond103) DPH0 load(1, XDATA, add(CFA_XSP16, literal(-1)))
        CFI (cfiCond103) CFA_SP SP+0
        CFI (cfiCond103) CFA_XSP16 add(XSP16, 22)
        CFI Block cfiPicker104 Using cfiCommon1
        CFI (cfiPicker104) NoFunction
        CFI (cfiPicker104) Picker
        MOVX    A,@DPTR
        MOV     DPL,R6
        MOV     DPH,R7
        RET
        CFI EndBlock cfiCond88
        CFI EndBlock cfiCond89
        CFI EndBlock cfiCond90
        CFI EndBlock cfiCond91
        CFI EndBlock cfiCond92
        CFI EndBlock cfiCond93
        CFI EndBlock cfiCond94
        CFI EndBlock cfiCond95
        CFI EndBlock cfiCond96
        CFI EndBlock cfiCond97
        CFI EndBlock cfiCond98
        CFI EndBlock cfiCond99
        CFI EndBlock cfiCond100
        CFI EndBlock cfiCond101
        CFI EndBlock cfiCond102
        CFI EndBlock cfiCond103
        CFI EndBlock cfiPicker104

        RSEG BANKED_CODE:CODE:NOROOT(0)
?Subroutine3:
        CFI Block cfiCond105 Using cfiCommon0
        CFI NoFunction
        CFI Conditional ??CrossCallReturnLabel_2
        CFI R6 load(1, XDATA, add(CFA_XSP16, literal(-22)))
        CFI VB load(1, XDATA, add(CFA_XSP16, literal(-21)))
        CFI V0 load(1, XDATA, add(CFA_XSP16, literal(-20)))
        CFI V1 load(1, XDATA, add(CFA_XSP16, literal(-19)))
        CFI V2 load(1, XDATA, add(CFA_XSP16, literal(-18)))
        CFI V3 load(1, XDATA, add(CFA_XSP16, literal(-17)))
        CFI V4 load(1, XDATA, add(CFA_XSP16, literal(-16)))
        CFI V5 load(1, XDATA, add(CFA_XSP16, literal(-15)))
        CFI V6 load(1, XDATA, add(CFA_XSP16, literal(-14)))
        CFI V7 load(1, XDATA, add(CFA_XSP16, literal(-13)))
        CFI V8 load(1, XDATA, add(CFA_XSP16, literal(-12)))
        CFI V9 load(1, XDATA, add(CFA_XSP16, literal(-11)))
        CFI V10 load(1, XDATA, add(CFA_XSP16, literal(-10)))
        CFI V11 load(1, XDATA, add(CFA_XSP16, literal(-9)))
        CFI V12 load(1, XDATA, add(CFA_XSP16, literal(-8)))
        CFI V13 load(1, XDATA, add(CFA_XSP16, literal(-7)))
        CFI R7 load(1, XDATA, add(CFA_XSP16, literal(-6)))
        CFI ?RET_LOW load(1, XDATA, add(CFA_XSP16, literal(-5)))
        CFI ?RET_HIGH load(1, XDATA, add(CFA_XSP16, literal(-4)))
        CFI ?BRET_EXT load(1, XDATA, add(CFA_XSP16, literal(-3)))
        CFI DPL0 load(1, XDATA, add(CFA_XSP16, literal(-2)))
        CFI DPH0 load(1, XDATA, add(CFA_XSP16, literal(-1)))
        CFI CFA_SP SP+0
        CFI CFA_XSP16 add(XSP16, 22)
        CFI Block cfiCond106 Using cfiCommon0
        CFI (cfiCond106) NoFunction
        CFI (cfiCond106) Conditional ??CrossCallReturnLabel_3
        CFI (cfiCond106) R6 load(1, XDATA, add(CFA_XSP16, literal(-22)))
        CFI (cfiCond106) VB load(1, XDATA, add(CFA_XSP16, literal(-21)))
        CFI (cfiCond106) V0 load(1, XDATA, add(CFA_XSP16, literal(-20)))
        CFI (cfiCond106) V1 load(1, XDATA, add(CFA_XSP16, literal(-19)))
        CFI (cfiCond106) V2 load(1, XDATA, add(CFA_XSP16, literal(-18)))
        CFI (cfiCond106) V3 load(1, XDATA, add(CFA_XSP16, literal(-17)))
        CFI (cfiCond106) V4 load(1, XDATA, add(CFA_XSP16, literal(-16)))
        CFI (cfiCond106) V5 load(1, XDATA, add(CFA_XSP16, literal(-15)))
        CFI (cfiCond106) V6 load(1, XDATA, add(CFA_XSP16, literal(-14)))
        CFI (cfiCond106) V7 load(1, XDATA, add(CFA_XSP16, literal(-13)))
        CFI (cfiCond106) V8 load(1, XDATA, add(CFA_XSP16, literal(-12)))
        CFI (cfiCond106) V9 load(1, XDATA, add(CFA_XSP16, literal(-11)))
        CFI (cfiCond106) V10 load(1, XDATA, add(CFA_XSP16, literal(-10)))
        CFI (cfiCond106) V11 load(1, XDATA, add(CFA_XSP16, literal(-9)))
        CFI (cfiCond106) V12 load(1, XDATA, add(CFA_XSP16, literal(-8)))
        CFI (cfiCond106) V13 load(1, XDATA, add(CFA_XSP16, literal(-7)))
        CFI (cfiCond106) R7 load(1, XDATA, add(CFA_XSP16, literal(-6)))
        CFI (cfiCond106) ?RET_LOW load(1, XDATA, add(CFA_XSP16, literal(-5)))
        CFI (cfiCond106) ?RET_HIGH load(1, XDATA, add(CFA_XSP16, literal(-4)))
        CFI (cfiCond106) ?BRET_EXT load(1, XDATA, add(CFA_XSP16, literal(-3)))
        CFI (cfiCond106) DPL0 load(1, XDATA, add(CFA_XSP16, literal(-2)))
        CFI (cfiCond106) DPH0 load(1, XDATA, add(CFA_XSP16, literal(-1)))
        CFI (cfiCond106) CFA_SP SP+0
        CFI (cfiCond106) CFA_XSP16 add(XSP16, 22)
        CFI Block cfiPicker107 Using cfiCommon1
        CFI (cfiPicker107) NoFunction
        CFI (cfiPicker107) Picker
        LCALL   ?Subroutine16 & 0xFFFF
??CrossCallReturnLabel_39:
        INC     DPTR
        MOV     R6,DPL
        MOV     R7,DPH
        RET
        CFI EndBlock cfiCond105
        CFI EndBlock cfiCond106
        CFI EndBlock cfiPicker107

        RSEG BANKED_CODE:CODE:NOROOT(0)
?Subroutine1:
        CFI Block cfiCond108 Using cfiCommon0
        CFI NoFunction
        CFI Conditional ??CrossCallReturnLabel_43
        CFI R6 load(1, XDATA, add(CFA_XSP16, literal(-22)))
        CFI VB load(1, XDATA, add(CFA_XSP16, literal(-21)))
        CFI V0 load(1, XDATA, add(CFA_XSP16, literal(-20)))
        CFI V1 load(1, XDATA, add(CFA_XSP16, literal(-19)))
        CFI V2 load(1, XDATA, add(CFA_XSP16, literal(-18)))
        CFI V3 load(1, XDATA, add(CFA_XSP16, literal(-17)))
        CFI V4 load(1, XDATA, add(CFA_XSP16, literal(-16)))
        CFI V5 load(1, XDATA, add(CFA_XSP16, literal(-15)))
        CFI V6 load(1, XDATA, add(CFA_XSP16, literal(-14)))
        CFI V7 load(1, XDATA, add(CFA_XSP16, literal(-13)))
        CFI V8 load(1, XDATA, add(CFA_XSP16, literal(-12)))
        CFI V9 load(1, XDATA, add(CFA_XSP16, literal(-11)))
        CFI V10 load(1, XDATA, add(CFA_XSP16, literal(-10)))
        CFI V11 load(1, XDATA, add(CFA_XSP16, literal(-9)))
        CFI V12 load(1, XDATA, add(CFA_XSP16, literal(-8)))
        CFI V13 load(1, XDATA, add(CFA_XSP16, literal(-7)))
        CFI R7 load(1, XDATA, add(CFA_XSP16, literal(-6)))
        CFI ?RET_LOW load(1, XDATA, add(CFA_XSP16, literal(-5)))
        CFI ?RET_HIGH load(1, XDATA, add(CFA_XSP16, literal(-4)))
        CFI ?BRET_EXT load(1, XDATA, add(CFA_XSP16, literal(-3)))
        CFI DPL0 load(1, XDATA, add(CFA_XSP16, literal(-2)))
        CFI DPH0 load(1, XDATA, add(CFA_XSP16, literal(-1)))
        CFI CFA_SP SP+0
        CFI CFA_XSP16 add(XSP16, 22)
        CFI Block cfiCond109 Using cfiCommon0
        CFI (cfiCond109) NoFunction
        CFI (cfiCond109) Conditional ??CrossCallReturnLabel_44
        CFI (cfiCond109) R6 load(1, XDATA, add(CFA_XSP16, literal(-22)))
        CFI (cfiCond109) VB load(1, XDATA, add(CFA_XSP16, literal(-21)))
        CFI (cfiCond109) V0 load(1, XDATA, add(CFA_XSP16, literal(-20)))
        CFI (cfiCond109) V1 load(1, XDATA, add(CFA_XSP16, literal(-19)))
        CFI (cfiCond109) V2 load(1, XDATA, add(CFA_XSP16, literal(-18)))
        CFI (cfiCond109) V3 load(1, XDATA, add(CFA_XSP16, literal(-17)))
        CFI (cfiCond109) V4 load(1, XDATA, add(CFA_XSP16, literal(-16)))
        CFI (cfiCond109) V5 load(1, XDATA, add(CFA_XSP16, literal(-15)))
        CFI (cfiCond109) V6 load(1, XDATA, add(CFA_XSP16, literal(-14)))
        CFI (cfiCond109) V7 load(1, XDATA, add(CFA_XSP16, literal(-13)))
        CFI (cfiCond109) V8 load(1, XDATA, add(CFA_XSP16, literal(-12)))
        CFI (cfiCond109) V9 load(1, XDATA, add(CFA_XSP16, literal(-11)))
        CFI (cfiCond109) V10 load(1, XDATA, add(CFA_XSP16, literal(-10)))
        CFI (cfiCond109) V11 load(1, XDATA, add(CFA_XSP16, literal(-9)))
        CFI (cfiCond109) V12 load(1, XDATA, add(CFA_XSP16, literal(-8)))
        CFI (cfiCond109) V13 load(1, XDATA, add(CFA_XSP16, literal(-7)))
        CFI (cfiCond109) R7 load(1, XDATA, add(CFA_XSP16, literal(-6)))
        CFI (cfiCond109) ?RET_LOW load(1, XDATA, add(CFA_XSP16, literal(-5)))
        CFI (cfiCond109) ?RET_HIGH load(1, XDATA, add(CFA_XSP16, literal(-4)))
        CFI (cfiCond109) ?BRET_EXT load(1, XDATA, add(CFA_XSP16, literal(-3)))
        CFI (cfiCond109) DPL0 load(1, XDATA, add(CFA_XSP16, literal(-2)))
        CFI (cfiCond109) DPH0 load(1, XDATA, add(CFA_XSP16, literal(-1)))
        CFI (cfiCond109) CFA_SP SP+0
        CFI (cfiCond109) CFA_XSP16 add(XSP16, 22)
        CFI Block cfiPicker110 Using cfiCommon1
        CFI (cfiPicker110) NoFunction
        CFI (cfiPicker110) Picker
        INC     DPTR
        CFI EndBlock cfiCond108
        CFI EndBlock cfiCond109
        CFI EndBlock cfiPicker110
        REQUIRE ??Subroutine27_0
        ; // Fall through to label ??Subroutine27_0

        RSEG BANKED_CODE:CODE:NOROOT(0)
??Subroutine27_0:
        CFI Block cfiCond111 Using cfiCommon0
        CFI NoFunction
        CFI Conditional ??CrossCallReturnLabel_42
        CFI R6 load(1, XDATA, add(CFA_XSP16, literal(-22)))
        CFI VB load(1, XDATA, add(CFA_XSP16, literal(-21)))
        CFI V0 load(1, XDATA, add(CFA_XSP16, literal(-20)))
        CFI V1 load(1, XDATA, add(CFA_XSP16, literal(-19)))
        CFI V2 load(1, XDATA, add(CFA_XSP16, literal(-18)))
        CFI V3 load(1, XDATA, add(CFA_XSP16, literal(-17)))
        CFI V4 load(1, XDATA, add(CFA_XSP16, literal(-16)))
        CFI V5 load(1, XDATA, add(CFA_XSP16, literal(-15)))
        CFI V6 load(1, XDATA, add(CFA_XSP16, literal(-14)))
        CFI V7 load(1, XDATA, add(CFA_XSP16, literal(-13)))
        CFI V8 load(1, XDATA, add(CFA_XSP16, literal(-12)))
        CFI V9 load(1, XDATA, add(CFA_XSP16, literal(-11)))
        CFI V10 load(1, XDATA, add(CFA_XSP16, literal(-10)))
        CFI V11 load(1, XDATA, add(CFA_XSP16, literal(-9)))
        CFI V12 load(1, XDATA, add(CFA_XSP16, literal(-8)))
        CFI V13 load(1, XDATA, add(CFA_XSP16, literal(-7)))
        CFI R7 load(1, XDATA, add(CFA_XSP16, literal(-6)))
        CFI ?RET_LOW load(1, XDATA, add(CFA_XSP16, literal(-5)))
        CFI ?RET_HIGH load(1, XDATA, add(CFA_XSP16, literal(-4)))
        CFI ?BRET_EXT load(1, XDATA, add(CFA_XSP16, literal(-3)))
        CFI DPL0 load(1, XDATA, add(CFA_XSP16, literal(-2)))
        CFI DPH0 load(1, XDATA, add(CFA_XSP16, literal(-1)))
        CFI CFA_SP SP+0
        CFI CFA_XSP16 add(XSP16, 22)
        CFI Block cfiCond112 Using cfiCommon0
        CFI (cfiCond112) NoFunction
        CFI (cfiCond112) Conditional ??CrossCallReturnLabel_43
        CFI (cfiCond112) R6 load(1, XDATA, add(CFA_XSP16, literal(-22)))
        CFI (cfiCond112) VB load(1, XDATA, add(CFA_XSP16, literal(-21)))
        CFI (cfiCond112) V0 load(1, XDATA, add(CFA_XSP16, literal(-20)))
        CFI (cfiCond112) V1 load(1, XDATA, add(CFA_XSP16, literal(-19)))
        CFI (cfiCond112) V2 load(1, XDATA, add(CFA_XSP16, literal(-18)))
        CFI (cfiCond112) V3 load(1, XDATA, add(CFA_XSP16, literal(-17)))
        CFI (cfiCond112) V4 load(1, XDATA, add(CFA_XSP16, literal(-16)))
        CFI (cfiCond112) V5 load(1, XDATA, add(CFA_XSP16, literal(-15)))
        CFI (cfiCond112) V6 load(1, XDATA, add(CFA_XSP16, literal(-14)))
        CFI (cfiCond112) V7 load(1, XDATA, add(CFA_XSP16, literal(-13)))
        CFI (cfiCond112) V8 load(1, XDATA, add(CFA_XSP16, literal(-12)))
        CFI (cfiCond112) V9 load(1, XDATA, add(CFA_XSP16, literal(-11)))
        CFI (cfiCond112) V10 load(1, XDATA, add(CFA_XSP16, literal(-10)))
        CFI (cfiCond112) V11 load(1, XDATA, add(CFA_XSP16, literal(-9)))
        CFI (cfiCond112) V12 load(1, XDATA, add(CFA_XSP16, literal(-8)))
        CFI (cfiCond112) V13 load(1, XDATA, add(CFA_XSP16, literal(-7)))
        CFI (cfiCond112) R7 load(1, XDATA, add(CFA_XSP16, literal(-6)))
        CFI (cfiCond112) ?RET_LOW load(1, XDATA, add(CFA_XSP16, literal(-5)))
        CFI (cfiCond112) ?RET_HIGH load(1, XDATA, add(CFA_XSP16, literal(-4)))
        CFI (cfiCond112) ?BRET_EXT load(1, XDATA, add(CFA_XSP16, literal(-3)))
        CFI (cfiCond112) DPL0 load(1, XDATA, add(CFA_XSP16, literal(-2)))
        CFI (cfiCond112) DPH0 load(1, XDATA, add(CFA_XSP16, literal(-1)))
        CFI (cfiCond112) CFA_SP SP+0
        CFI (cfiCond112) CFA_XSP16 add(XSP16, 22)
        CFI Block cfiCond113 Using cfiCommon0
        CFI (cfiCond113) NoFunction
        CFI (cfiCond113) Conditional ??CrossCallReturnLabel_44
        CFI (cfiCond113) R6 load(1, XDATA, add(CFA_XSP16, literal(-22)))
        CFI (cfiCond113) VB load(1, XDATA, add(CFA_XSP16, literal(-21)))
        CFI (cfiCond113) V0 load(1, XDATA, add(CFA_XSP16, literal(-20)))
        CFI (cfiCond113) V1 load(1, XDATA, add(CFA_XSP16, literal(-19)))
        CFI (cfiCond113) V2 load(1, XDATA, add(CFA_XSP16, literal(-18)))
        CFI (cfiCond113) V3 load(1, XDATA, add(CFA_XSP16, literal(-17)))
        CFI (cfiCond113) V4 load(1, XDATA, add(CFA_XSP16, literal(-16)))
        CFI (cfiCond113) V5 load(1, XDATA, add(CFA_XSP16, literal(-15)))
        CFI (cfiCond113) V6 load(1, XDATA, add(CFA_XSP16, literal(-14)))
        CFI (cfiCond113) V7 load(1, XDATA, add(CFA_XSP16, literal(-13)))
        CFI (cfiCond113) V8 load(1, XDATA, add(CFA_XSP16, literal(-12)))
        CFI (cfiCond113) V9 load(1, XDATA, add(CFA_XSP16, literal(-11)))
        CFI (cfiCond113) V10 load(1, XDATA, add(CFA_XSP16, literal(-10)))
        CFI (cfiCond113) V11 load(1, XDATA, add(CFA_XSP16, literal(-9)))
        CFI (cfiCond113) V12 load(1, XDATA, add(CFA_XSP16, literal(-8)))
        CFI (cfiCond113) V13 load(1, XDATA, add(CFA_XSP16, literal(-7)))
        CFI (cfiCond113) R7 load(1, XDATA, add(CFA_XSP16, literal(-6)))
        CFI (cfiCond113) ?RET_LOW load(1, XDATA, add(CFA_XSP16, literal(-5)))
        CFI (cfiCond113) ?RET_HIGH load(1, XDATA, add(CFA_XSP16, literal(-4)))
        CFI (cfiCond113) ?BRET_EXT load(1, XDATA, add(CFA_XSP16, literal(-3)))
        CFI (cfiCond113) DPL0 load(1, XDATA, add(CFA_XSP16, literal(-2)))
        CFI (cfiCond113) DPH0 load(1, XDATA, add(CFA_XSP16, literal(-1)))
        CFI (cfiCond113) CFA_SP SP+0
        CFI (cfiCond113) CFA_XSP16 add(XSP16, 22)
        CFI Block cfiPicker114 Using cfiCommon1
        CFI (cfiPicker114) NoFunction
        CFI (cfiPicker114) Picker
        LCALL   ?Subroutine14 & 0xFFFF
??CrossCallReturnLabel_49:
        RET
        CFI EndBlock cfiCond111
        CFI EndBlock cfiCond112
        CFI EndBlock cfiCond113
        CFI EndBlock cfiPicker114

        RSEG BANKED_CODE:CODE:NOROOT(0)
?Subroutine14:
        CFI Block cfiCond115 Using cfiCommon0
        CFI NoFunction
        CFI Conditional ??CrossCallReturnLabel_49, ??CrossCallReturnLabel_43
        CFI R6 load(1, XDATA, add(CFA_XSP16, literal(-22)))
        CFI VB load(1, XDATA, add(CFA_XSP16, literal(-21)))
        CFI V0 load(1, XDATA, add(CFA_XSP16, literal(-20)))
        CFI V1 load(1, XDATA, add(CFA_XSP16, literal(-19)))
        CFI V2 load(1, XDATA, add(CFA_XSP16, literal(-18)))
        CFI V3 load(1, XDATA, add(CFA_XSP16, literal(-17)))
        CFI V4 load(1, XDATA, add(CFA_XSP16, literal(-16)))
        CFI V5 load(1, XDATA, add(CFA_XSP16, literal(-15)))
        CFI V6 load(1, XDATA, add(CFA_XSP16, literal(-14)))
        CFI V7 load(1, XDATA, add(CFA_XSP16, literal(-13)))
        CFI V8 load(1, XDATA, add(CFA_XSP16, literal(-12)))
        CFI V9 load(1, XDATA, add(CFA_XSP16, literal(-11)))
        CFI V10 load(1, XDATA, add(CFA_XSP16, literal(-10)))
        CFI V11 load(1, XDATA, add(CFA_XSP16, literal(-9)))
        CFI V12 load(1, XDATA, add(CFA_XSP16, literal(-8)))
        CFI V13 load(1, XDATA, add(CFA_XSP16, literal(-7)))
        CFI R7 load(1, XDATA, add(CFA_XSP16, literal(-6)))
        CFI ?RET_LOW load(1, XDATA, add(CFA_XSP16, literal(-5)))
        CFI ?RET_HIGH load(1, XDATA, add(CFA_XSP16, literal(-4)))
        CFI ?BRET_EXT load(1, XDATA, add(CFA_XSP16, literal(-3)))
        CFI DPL0 load(1, XDATA, add(CFA_XSP16, literal(-2)))
        CFI DPH0 load(1, XDATA, add(CFA_XSP16, literal(-1)))
        CFI CFA_SP SP+0
        CFI CFA_XSP16 add(XSP16, 22)
        CFI Block cfiCond116 Using cfiCommon0
        CFI (cfiCond116) NoFunction
        CFI (cfiCond116) Conditional ??CrossCallReturnLabel_49, ??CrossCallReturnLabel_44
        CFI (cfiCond116) R6 load(1, XDATA, add(CFA_XSP16, literal(-22)))
        CFI (cfiCond116) VB load(1, XDATA, add(CFA_XSP16, literal(-21)))
        CFI (cfiCond116) V0 load(1, XDATA, add(CFA_XSP16, literal(-20)))
        CFI (cfiCond116) V1 load(1, XDATA, add(CFA_XSP16, literal(-19)))
        CFI (cfiCond116) V2 load(1, XDATA, add(CFA_XSP16, literal(-18)))
        CFI (cfiCond116) V3 load(1, XDATA, add(CFA_XSP16, literal(-17)))
        CFI (cfiCond116) V4 load(1, XDATA, add(CFA_XSP16, literal(-16)))
        CFI (cfiCond116) V5 load(1, XDATA, add(CFA_XSP16, literal(-15)))
        CFI (cfiCond116) V6 load(1, XDATA, add(CFA_XSP16, literal(-14)))
        CFI (cfiCond116) V7 load(1, XDATA, add(CFA_XSP16, literal(-13)))
        CFI (cfiCond116) V8 load(1, XDATA, add(CFA_XSP16, literal(-12)))
        CFI (cfiCond116) V9 load(1, XDATA, add(CFA_XSP16, literal(-11)))
        CFI (cfiCond116) V10 load(1, XDATA, add(CFA_XSP16, literal(-10)))
        CFI (cfiCond116) V11 load(1, XDATA, add(CFA_XSP16, literal(-9)))
        CFI (cfiCond116) V12 load(1, XDATA, add(CFA_XSP16, literal(-8)))
        CFI (cfiCond116) V13 load(1, XDATA, add(CFA_XSP16, literal(-7)))
        CFI (cfiCond116) R7 load(1, XDATA, add(CFA_XSP16, literal(-6)))
        CFI (cfiCond116) ?RET_LOW load(1, XDATA, add(CFA_XSP16, literal(-5)))
        CFI (cfiCond116) ?RET_HIGH load(1, XDATA, add(CFA_XSP16, literal(-4)))
        CFI (cfiCond116) ?BRET_EXT load(1, XDATA, add(CFA_XSP16, literal(-3)))
        CFI (cfiCond116) DPL0 load(1, XDATA, add(CFA_XSP16, literal(-2)))
        CFI (cfiCond116) DPH0 load(1, XDATA, add(CFA_XSP16, literal(-1)))
        CFI (cfiCond116) CFA_SP SP+0
        CFI (cfiCond116) CFA_XSP16 add(XSP16, 22)
        CFI Block cfiCond117 Using cfiCommon0
        CFI (cfiCond117) NoFunction
        CFI (cfiCond117) Conditional ??CrossCallReturnLabel_49, ??CrossCallReturnLabel_42
        CFI (cfiCond117) R6 load(1, XDATA, add(CFA_XSP16, literal(-22)))
        CFI (cfiCond117) VB load(1, XDATA, add(CFA_XSP16, literal(-21)))
        CFI (cfiCond117) V0 load(1, XDATA, add(CFA_XSP16, literal(-20)))
        CFI (cfiCond117) V1 load(1, XDATA, add(CFA_XSP16, literal(-19)))
        CFI (cfiCond117) V2 load(1, XDATA, add(CFA_XSP16, literal(-18)))
        CFI (cfiCond117) V3 load(1, XDATA, add(CFA_XSP16, literal(-17)))
        CFI (cfiCond117) V4 load(1, XDATA, add(CFA_XSP16, literal(-16)))
        CFI (cfiCond117) V5 load(1, XDATA, add(CFA_XSP16, literal(-15)))
        CFI (cfiCond117) V6 load(1, XDATA, add(CFA_XSP16, literal(-14)))
        CFI (cfiCond117) V7 load(1, XDATA, add(CFA_XSP16, literal(-13)))
        CFI (cfiCond117) V8 load(1, XDATA, add(CFA_XSP16, literal(-12)))
        CFI (cfiCond117) V9 load(1, XDATA, add(CFA_XSP16, literal(-11)))
        CFI (cfiCond117) V10 load(1, XDATA, add(CFA_XSP16, literal(-10)))
        CFI (cfiCond117) V11 load(1, XDATA, add(CFA_XSP16, literal(-9)))
        CFI (cfiCond117) V12 load(1, XDATA, add(CFA_XSP16, literal(-8)))
        CFI (cfiCond117) V13 load(1, XDATA, add(CFA_XSP16, literal(-7)))
        CFI (cfiCond117) R7 load(1, XDATA, add(CFA_XSP16, literal(-6)))
        CFI (cfiCond117) ?RET_LOW load(1, XDATA, add(CFA_XSP16, literal(-5)))
        CFI (cfiCond117) ?RET_HIGH load(1, XDATA, add(CFA_XSP16, literal(-4)))
        CFI (cfiCond117) ?BRET_EXT load(1, XDATA, add(CFA_XSP16, literal(-3)))
        CFI (cfiCond117) DPL0 load(1, XDATA, add(CFA_XSP16, literal(-2)))
        CFI (cfiCond117) DPH0 load(1, XDATA, add(CFA_XSP16, literal(-1)))
        CFI (cfiCond117) CFA_SP SP+0
        CFI (cfiCond117) CFA_XSP16 add(XSP16, 22)
        CFI Block cfiCond118 Using cfiCommon0
        CFI (cfiCond118) NoFunction
        CFI (cfiCond118) Conditional ??CrossCallReturnLabel_50, ??CrossCallReturnLabel_45
        CFI (cfiCond118) R6 load(1, XDATA, add(CFA_XSP16, literal(-22)))
        CFI (cfiCond118) VB load(1, XDATA, add(CFA_XSP16, literal(-21)))
        CFI (cfiCond118) V0 load(1, XDATA, add(CFA_XSP16, literal(-20)))
        CFI (cfiCond118) V1 load(1, XDATA, add(CFA_XSP16, literal(-19)))
        CFI (cfiCond118) V2 load(1, XDATA, add(CFA_XSP16, literal(-18)))
        CFI (cfiCond118) V3 load(1, XDATA, add(CFA_XSP16, literal(-17)))
        CFI (cfiCond118) V4 load(1, XDATA, add(CFA_XSP16, literal(-16)))
        CFI (cfiCond118) V5 load(1, XDATA, add(CFA_XSP16, literal(-15)))
        CFI (cfiCond118) V6 load(1, XDATA, add(CFA_XSP16, literal(-14)))
        CFI (cfiCond118) V7 load(1, XDATA, add(CFA_XSP16, literal(-13)))
        CFI (cfiCond118) V8 load(1, XDATA, add(CFA_XSP16, literal(-12)))
        CFI (cfiCond118) V9 load(1, XDATA, add(CFA_XSP16, literal(-11)))
        CFI (cfiCond118) V10 load(1, XDATA, add(CFA_XSP16, literal(-10)))
        CFI (cfiCond118) V11 load(1, XDATA, add(CFA_XSP16, literal(-9)))
        CFI (cfiCond118) V12 load(1, XDATA, add(CFA_XSP16, literal(-8)))
        CFI (cfiCond118) V13 load(1, XDATA, add(CFA_XSP16, literal(-7)))
        CFI (cfiCond118) R7 load(1, XDATA, add(CFA_XSP16, literal(-6)))
        CFI (cfiCond118) ?RET_LOW load(1, XDATA, add(CFA_XSP16, literal(-5)))
        CFI (cfiCond118) ?RET_HIGH load(1, XDATA, add(CFA_XSP16, literal(-4)))
        CFI (cfiCond118) ?BRET_EXT load(1, XDATA, add(CFA_XSP16, literal(-3)))
        CFI (cfiCond118) DPL0 load(1, XDATA, add(CFA_XSP16, literal(-2)))
        CFI (cfiCond118) DPH0 load(1, XDATA, add(CFA_XSP16, literal(-1)))
        CFI (cfiCond118) CFA_SP SP+0
        CFI (cfiCond118) CFA_XSP16 add(XSP16, 22)
        CFI Block cfiCond119 Using cfiCommon0
        CFI (cfiCond119) NoFunction
        CFI (cfiCond119) Conditional ??CrossCallReturnLabel_50, ??CrossCallReturnLabel_46
        CFI (cfiCond119) R6 load(1, XDATA, add(CFA_XSP16, literal(-22)))
        CFI (cfiCond119) VB load(1, XDATA, add(CFA_XSP16, literal(-21)))
        CFI (cfiCond119) V0 load(1, XDATA, add(CFA_XSP16, literal(-20)))
        CFI (cfiCond119) V1 load(1, XDATA, add(CFA_XSP16, literal(-19)))
        CFI (cfiCond119) V2 load(1, XDATA, add(CFA_XSP16, literal(-18)))
        CFI (cfiCond119) V3 load(1, XDATA, add(CFA_XSP16, literal(-17)))
        CFI (cfiCond119) V4 load(1, XDATA, add(CFA_XSP16, literal(-16)))
        CFI (cfiCond119) V5 load(1, XDATA, add(CFA_XSP16, literal(-15)))
        CFI (cfiCond119) V6 load(1, XDATA, add(CFA_XSP16, literal(-14)))
        CFI (cfiCond119) V7 load(1, XDATA, add(CFA_XSP16, literal(-13)))
        CFI (cfiCond119) V8 load(1, XDATA, add(CFA_XSP16, literal(-12)))
        CFI (cfiCond119) V9 load(1, XDATA, add(CFA_XSP16, literal(-11)))
        CFI (cfiCond119) V10 load(1, XDATA, add(CFA_XSP16, literal(-10)))
        CFI (cfiCond119) V11 load(1, XDATA, add(CFA_XSP16, literal(-9)))
        CFI (cfiCond119) V12 load(1, XDATA, add(CFA_XSP16, literal(-8)))
        CFI (cfiCond119) V13 load(1, XDATA, add(CFA_XSP16, literal(-7)))
        CFI (cfiCond119) R7 load(1, XDATA, add(CFA_XSP16, literal(-6)))
        CFI (cfiCond119) ?RET_LOW load(1, XDATA, add(CFA_XSP16, literal(-5)))
        CFI (cfiCond119) ?RET_HIGH load(1, XDATA, add(CFA_XSP16, literal(-4)))
        CFI (cfiCond119) ?BRET_EXT load(1, XDATA, add(CFA_XSP16, literal(-3)))
        CFI (cfiCond119) DPL0 load(1, XDATA, add(CFA_XSP16, literal(-2)))
        CFI (cfiCond119) DPH0 load(1, XDATA, add(CFA_XSP16, literal(-1)))
        CFI (cfiCond119) CFA_SP SP+0
        CFI (cfiCond119) CFA_XSP16 add(XSP16, 22)
        CFI Block cfiCond120 Using cfiCommon0
        CFI (cfiCond120) NoFunction
        CFI (cfiCond120) Conditional ??CrossCallReturnLabel_50, ??CrossCallReturnLabel_47
        CFI (cfiCond120) R6 load(1, XDATA, add(CFA_XSP16, literal(-22)))
        CFI (cfiCond120) VB load(1, XDATA, add(CFA_XSP16, literal(-21)))
        CFI (cfiCond120) V0 load(1, XDATA, add(CFA_XSP16, literal(-20)))
        CFI (cfiCond120) V1 load(1, XDATA, add(CFA_XSP16, literal(-19)))
        CFI (cfiCond120) V2 load(1, XDATA, add(CFA_XSP16, literal(-18)))
        CFI (cfiCond120) V3 load(1, XDATA, add(CFA_XSP16, literal(-17)))
        CFI (cfiCond120) V4 load(1, XDATA, add(CFA_XSP16, literal(-16)))
        CFI (cfiCond120) V5 load(1, XDATA, add(CFA_XSP16, literal(-15)))
        CFI (cfiCond120) V6 load(1, XDATA, add(CFA_XSP16, literal(-14)))
        CFI (cfiCond120) V7 load(1, XDATA, add(CFA_XSP16, literal(-13)))
        CFI (cfiCond120) V8 load(1, XDATA, add(CFA_XSP16, literal(-12)))
        CFI (cfiCond120) V9 load(1, XDATA, add(CFA_XSP16, literal(-11)))
        CFI (cfiCond120) V10 load(1, XDATA, add(CFA_XSP16, literal(-10)))
        CFI (cfiCond120) V11 load(1, XDATA, add(CFA_XSP16, literal(-9)))
        CFI (cfiCond120) V12 load(1, XDATA, add(CFA_XSP16, literal(-8)))
        CFI (cfiCond120) V13 load(1, XDATA, add(CFA_XSP16, literal(-7)))
        CFI (cfiCond120) R7 load(1, XDATA, add(CFA_XSP16, literal(-6)))
        CFI (cfiCond120) ?RET_LOW load(1, XDATA, add(CFA_XSP16, literal(-5)))
        CFI (cfiCond120) ?RET_HIGH load(1, XDATA, add(CFA_XSP16, literal(-4)))
        CFI (cfiCond120) ?BRET_EXT load(1, XDATA, add(CFA_XSP16, literal(-3)))
        CFI (cfiCond120) DPL0 load(1, XDATA, add(CFA_XSP16, literal(-2)))
        CFI (cfiCond120) DPH0 load(1, XDATA, add(CFA_XSP16, literal(-1)))
        CFI (cfiCond120) CFA_SP SP+0
        CFI (cfiCond120) CFA_XSP16 add(XSP16, 22)
        CFI Block cfiCond121 Using cfiCommon0
        CFI (cfiCond121) NoFunction
        CFI (cfiCond121) Conditional ??CrossCallReturnLabel_50, ??CrossCallReturnLabel_48
        CFI (cfiCond121) R6 load(1, XDATA, add(CFA_XSP16, literal(-22)))
        CFI (cfiCond121) VB load(1, XDATA, add(CFA_XSP16, literal(-21)))
        CFI (cfiCond121) V0 load(1, XDATA, add(CFA_XSP16, literal(-20)))
        CFI (cfiCond121) V1 load(1, XDATA, add(CFA_XSP16, literal(-19)))
        CFI (cfiCond121) V2 load(1, XDATA, add(CFA_XSP16, literal(-18)))
        CFI (cfiCond121) V3 load(1, XDATA, add(CFA_XSP16, literal(-17)))
        CFI (cfiCond121) V4 load(1, XDATA, add(CFA_XSP16, literal(-16)))
        CFI (cfiCond121) V5 load(1, XDATA, add(CFA_XSP16, literal(-15)))
        CFI (cfiCond121) V6 load(1, XDATA, add(CFA_XSP16, literal(-14)))
        CFI (cfiCond121) V7 load(1, XDATA, add(CFA_XSP16, literal(-13)))
        CFI (cfiCond121) V8 load(1, XDATA, add(CFA_XSP16, literal(-12)))
        CFI (cfiCond121) V9 load(1, XDATA, add(CFA_XSP16, literal(-11)))
        CFI (cfiCond121) V10 load(1, XDATA, add(CFA_XSP16, literal(-10)))
        CFI (cfiCond121) V11 load(1, XDATA, add(CFA_XSP16, literal(-9)))
        CFI (cfiCond121) V12 load(1, XDATA, add(CFA_XSP16, literal(-8)))
        CFI (cfiCond121) V13 load(1, XDATA, add(CFA_XSP16, literal(-7)))
        CFI (cfiCond121) R7 load(1, XDATA, add(CFA_XSP16, literal(-6)))
        CFI (cfiCond121) ?RET_LOW load(1, XDATA, add(CFA_XSP16, literal(-5)))
        CFI (cfiCond121) ?RET_HIGH load(1, XDATA, add(CFA_XSP16, literal(-4)))
        CFI (cfiCond121) ?BRET_EXT load(1, XDATA, add(CFA_XSP16, literal(-3)))
        CFI (cfiCond121) DPL0 load(1, XDATA, add(CFA_XSP16, literal(-2)))
        CFI (cfiCond121) DPH0 load(1, XDATA, add(CFA_XSP16, literal(-1)))
        CFI (cfiCond121) CFA_SP SP+0
        CFI (cfiCond121) CFA_XSP16 add(XSP16, 22)
        CFI Block cfiPicker122 Using cfiCommon1
        CFI (cfiPicker122) NoFunction
        CFI (cfiPicker122) Picker
        LCALL   ?Subroutine20 & 0xFFFF
??CrossCallReturnLabel_54:
        MOVX    @DPTR,A
        INC     DPTR
        INC     R6
        MOV     R7,DPH
        RET
        CFI EndBlock cfiCond115
        CFI EndBlock cfiCond116
        CFI EndBlock cfiCond117
        CFI EndBlock cfiCond118
        CFI EndBlock cfiCond119
        CFI EndBlock cfiCond120
        CFI EndBlock cfiCond121
        CFI EndBlock cfiPicker122

        RSEG BANKED_CODE:CODE:NOROOT(0)
?Subroutine0:
        CFI Block cfiCond123 Using cfiCommon0
        CFI NoFunction
        CFI Conditional ??CrossCallReturnLabel_45
        CFI R6 load(1, XDATA, add(CFA_XSP16, literal(-22)))
        CFI VB load(1, XDATA, add(CFA_XSP16, literal(-21)))
        CFI V0 load(1, XDATA, add(CFA_XSP16, literal(-20)))
        CFI V1 load(1, XDATA, add(CFA_XSP16, literal(-19)))
        CFI V2 load(1, XDATA, add(CFA_XSP16, literal(-18)))
        CFI V3 load(1, XDATA, add(CFA_XSP16, literal(-17)))
        CFI V4 load(1, XDATA, add(CFA_XSP16, literal(-16)))
        CFI V5 load(1, XDATA, add(CFA_XSP16, literal(-15)))
        CFI V6 load(1, XDATA, add(CFA_XSP16, literal(-14)))
        CFI V7 load(1, XDATA, add(CFA_XSP16, literal(-13)))
        CFI V8 load(1, XDATA, add(CFA_XSP16, literal(-12)))
        CFI V9 load(1, XDATA, add(CFA_XSP16, literal(-11)))
        CFI V10 load(1, XDATA, add(CFA_XSP16, literal(-10)))
        CFI V11 load(1, XDATA, add(CFA_XSP16, literal(-9)))
        CFI V12 load(1, XDATA, add(CFA_XSP16, literal(-8)))
        CFI V13 load(1, XDATA, add(CFA_XSP16, literal(-7)))
        CFI R7 load(1, XDATA, add(CFA_XSP16, literal(-6)))
        CFI ?RET_LOW load(1, XDATA, add(CFA_XSP16, literal(-5)))
        CFI ?RET_HIGH load(1, XDATA, add(CFA_XSP16, literal(-4)))
        CFI ?BRET_EXT load(1, XDATA, add(CFA_XSP16, literal(-3)))
        CFI DPL0 load(1, XDATA, add(CFA_XSP16, literal(-2)))
        CFI DPH0 load(1, XDATA, add(CFA_XSP16, literal(-1)))
        CFI CFA_SP SP+0
        CFI CFA_XSP16 add(XSP16, 22)
        CFI Block cfiCond124 Using cfiCommon0
        CFI (cfiCond124) NoFunction
        CFI (cfiCond124) Conditional ??CrossCallReturnLabel_46
        CFI (cfiCond124) R6 load(1, XDATA, add(CFA_XSP16, literal(-22)))
        CFI (cfiCond124) VB load(1, XDATA, add(CFA_XSP16, literal(-21)))
        CFI (cfiCond124) V0 load(1, XDATA, add(CFA_XSP16, literal(-20)))
        CFI (cfiCond124) V1 load(1, XDATA, add(CFA_XSP16, literal(-19)))
        CFI (cfiCond124) V2 load(1, XDATA, add(CFA_XSP16, literal(-18)))
        CFI (cfiCond124) V3 load(1, XDATA, add(CFA_XSP16, literal(-17)))
        CFI (cfiCond124) V4 load(1, XDATA, add(CFA_XSP16, literal(-16)))
        CFI (cfiCond124) V5 load(1, XDATA, add(CFA_XSP16, literal(-15)))
        CFI (cfiCond124) V6 load(1, XDATA, add(CFA_XSP16, literal(-14)))
        CFI (cfiCond124) V7 load(1, XDATA, add(CFA_XSP16, literal(-13)))
        CFI (cfiCond124) V8 load(1, XDATA, add(CFA_XSP16, literal(-12)))
        CFI (cfiCond124) V9 load(1, XDATA, add(CFA_XSP16, literal(-11)))
        CFI (cfiCond124) V10 load(1, XDATA, add(CFA_XSP16, literal(-10)))
        CFI (cfiCond124) V11 load(1, XDATA, add(CFA_XSP16, literal(-9)))
        CFI (cfiCond124) V12 load(1, XDATA, add(CFA_XSP16, literal(-8)))
        CFI (cfiCond124) V13 load(1, XDATA, add(CFA_XSP16, literal(-7)))
        CFI (cfiCond124) R7 load(1, XDATA, add(CFA_XSP16, literal(-6)))
        CFI (cfiCond124) ?RET_LOW load(1, XDATA, add(CFA_XSP16, literal(-5)))
        CFI (cfiCond124) ?RET_HIGH load(1, XDATA, add(CFA_XSP16, literal(-4)))
        CFI (cfiCond124) ?BRET_EXT load(1, XDATA, add(CFA_XSP16, literal(-3)))
        CFI (cfiCond124) DPL0 load(1, XDATA, add(CFA_XSP16, literal(-2)))
        CFI (cfiCond124) DPH0 load(1, XDATA, add(CFA_XSP16, literal(-1)))
        CFI (cfiCond124) CFA_SP SP+0
        CFI (cfiCond124) CFA_XSP16 add(XSP16, 22)
        CFI Block cfiCond125 Using cfiCommon0
        CFI (cfiCond125) NoFunction
        CFI (cfiCond125) Conditional ??CrossCallReturnLabel_47
        CFI (cfiCond125) R6 load(1, XDATA, add(CFA_XSP16, literal(-22)))
        CFI (cfiCond125) VB load(1, XDATA, add(CFA_XSP16, literal(-21)))
        CFI (cfiCond125) V0 load(1, XDATA, add(CFA_XSP16, literal(-20)))
        CFI (cfiCond125) V1 load(1, XDATA, add(CFA_XSP16, literal(-19)))
        CFI (cfiCond125) V2 load(1, XDATA, add(CFA_XSP16, literal(-18)))
        CFI (cfiCond125) V3 load(1, XDATA, add(CFA_XSP16, literal(-17)))
        CFI (cfiCond125) V4 load(1, XDATA, add(CFA_XSP16, literal(-16)))
        CFI (cfiCond125) V5 load(1, XDATA, add(CFA_XSP16, literal(-15)))
        CFI (cfiCond125) V6 load(1, XDATA, add(CFA_XSP16, literal(-14)))
        CFI (cfiCond125) V7 load(1, XDATA, add(CFA_XSP16, literal(-13)))
        CFI (cfiCond125) V8 load(1, XDATA, add(CFA_XSP16, literal(-12)))
        CFI (cfiCond125) V9 load(1, XDATA, add(CFA_XSP16, literal(-11)))
        CFI (cfiCond125) V10 load(1, XDATA, add(CFA_XSP16, literal(-10)))
        CFI (cfiCond125) V11 load(1, XDATA, add(CFA_XSP16, literal(-9)))
        CFI (cfiCond125) V12 load(1, XDATA, add(CFA_XSP16, literal(-8)))
        CFI (cfiCond125) V13 load(1, XDATA, add(CFA_XSP16, literal(-7)))
        CFI (cfiCond125) R7 load(1, XDATA, add(CFA_XSP16, literal(-6)))
        CFI (cfiCond125) ?RET_LOW load(1, XDATA, add(CFA_XSP16, literal(-5)))
        CFI (cfiCond125) ?RET_HIGH load(1, XDATA, add(CFA_XSP16, literal(-4)))
        CFI (cfiCond125) ?BRET_EXT load(1, XDATA, add(CFA_XSP16, literal(-3)))
        CFI (cfiCond125) DPL0 load(1, XDATA, add(CFA_XSP16, literal(-2)))
        CFI (cfiCond125) DPH0 load(1, XDATA, add(CFA_XSP16, literal(-1)))
        CFI (cfiCond125) CFA_SP SP+0
        CFI (cfiCond125) CFA_XSP16 add(XSP16, 22)
        CFI Block cfiPicker126 Using cfiCommon1
        CFI (cfiPicker126) NoFunction
        CFI (cfiPicker126) Picker
        MOV     DPL,A
        MOV     A,?V0 + 1
        ADDC    A,#0x0
        MOV     DPH,A
        CFI EndBlock cfiCond123
        CFI EndBlock cfiCond124
        CFI EndBlock cfiCond125
        CFI EndBlock cfiPicker126
        REQUIRE ??Subroutine28_0
        ; // Fall through to label ??Subroutine28_0

        RSEG BANKED_CODE:CODE:NOROOT(0)
??Subroutine28_0:
        CFI Block cfiCond127 Using cfiCommon0
        CFI NoFunction
        CFI Conditional ??CrossCallReturnLabel_48
        CFI R6 load(1, XDATA, add(CFA_XSP16, literal(-22)))
        CFI VB load(1, XDATA, add(CFA_XSP16, literal(-21)))
        CFI V0 load(1, XDATA, add(CFA_XSP16, literal(-20)))
        CFI V1 load(1, XDATA, add(CFA_XSP16, literal(-19)))
        CFI V2 load(1, XDATA, add(CFA_XSP16, literal(-18)))
        CFI V3 load(1, XDATA, add(CFA_XSP16, literal(-17)))
        CFI V4 load(1, XDATA, add(CFA_XSP16, literal(-16)))
        CFI V5 load(1, XDATA, add(CFA_XSP16, literal(-15)))
        CFI V6 load(1, XDATA, add(CFA_XSP16, literal(-14)))
        CFI V7 load(1, XDATA, add(CFA_XSP16, literal(-13)))
        CFI V8 load(1, XDATA, add(CFA_XSP16, literal(-12)))
        CFI V9 load(1, XDATA, add(CFA_XSP16, literal(-11)))
        CFI V10 load(1, XDATA, add(CFA_XSP16, literal(-10)))
        CFI V11 load(1, XDATA, add(CFA_XSP16, literal(-9)))
        CFI V12 load(1, XDATA, add(CFA_XSP16, literal(-8)))
        CFI V13 load(1, XDATA, add(CFA_XSP16, literal(-7)))
        CFI R7 load(1, XDATA, add(CFA_XSP16, literal(-6)))
        CFI ?RET_LOW load(1, XDATA, add(CFA_XSP16, literal(-5)))
        CFI ?RET_HIGH load(1, XDATA, add(CFA_XSP16, literal(-4)))
        CFI ?BRET_EXT load(1, XDATA, add(CFA_XSP16, literal(-3)))
        CFI DPL0 load(1, XDATA, add(CFA_XSP16, literal(-2)))
        CFI DPH0 load(1, XDATA, add(CFA_XSP16, literal(-1)))
        CFI CFA_SP SP+0
        CFI CFA_XSP16 add(XSP16, 22)
        CFI Block cfiCond128 Using cfiCommon0
        CFI (cfiCond128) NoFunction
        CFI (cfiCond128) Conditional ??CrossCallReturnLabel_45
        CFI (cfiCond128) R6 load(1, XDATA, add(CFA_XSP16, literal(-22)))
        CFI (cfiCond128) VB load(1, XDATA, add(CFA_XSP16, literal(-21)))
        CFI (cfiCond128) V0 load(1, XDATA, add(CFA_XSP16, literal(-20)))
        CFI (cfiCond128) V1 load(1, XDATA, add(CFA_XSP16, literal(-19)))
        CFI (cfiCond128) V2 load(1, XDATA, add(CFA_XSP16, literal(-18)))
        CFI (cfiCond128) V3 load(1, XDATA, add(CFA_XSP16, literal(-17)))
        CFI (cfiCond128) V4 load(1, XDATA, add(CFA_XSP16, literal(-16)))
        CFI (cfiCond128) V5 load(1, XDATA, add(CFA_XSP16, literal(-15)))
        CFI (cfiCond128) V6 load(1, XDATA, add(CFA_XSP16, literal(-14)))
        CFI (cfiCond128) V7 load(1, XDATA, add(CFA_XSP16, literal(-13)))
        CFI (cfiCond128) V8 load(1, XDATA, add(CFA_XSP16, literal(-12)))
        CFI (cfiCond128) V9 load(1, XDATA, add(CFA_XSP16, literal(-11)))
        CFI (cfiCond128) V10 load(1, XDATA, add(CFA_XSP16, literal(-10)))
        CFI (cfiCond128) V11 load(1, XDATA, add(CFA_XSP16, literal(-9)))
        CFI (cfiCond128) V12 load(1, XDATA, add(CFA_XSP16, literal(-8)))
        CFI (cfiCond128) V13 load(1, XDATA, add(CFA_XSP16, literal(-7)))
