///////////////////////////////////////////////////////////////////////////////
//                                                                            /
// IAR C/C++ Compiler V7.51A/W32 for 8051               30/May/2015  21:45:58 /
// Copyright 2004-2009 IAR Systems AB.                                        /
//                                                                            /
//    Core               =  plain                                             /
//    Code model         =  banked                                            /
//    Data model         =  large                                             /
//    Calling convention =  xdata reentrant                                   /
//    Constant location  =  data_rom                                          /
//    Dptr setup         =  1,16                                              /
//    Source file        =  C:\Texas Instruments\ZStack-CC2530-2.3.0-1.4.0\Co /
//                          mponents\hal\target\CC2530EB\hal_sleep.c          /
//    Command line       =  -f "C:\Texas Instruments\ZStack-CC2530-2.3.0-1.4. /
//                          0\Projects\zstack\Samples\ParkingS\CC2530DB\..\.. /
//                          \..\Tools\CC2530DB\f8wEndev.cfg" (-DCPU32MHZ      /
//                          -DROOT=__near_func -DBLINK_LEDS) -f "C:\Texas     /
//                          Instruments\ZStack-CC2530-2.3.0-1.4.0\Projects\zs /
//                          tack\Samples\ParkingS\CC2530DB\..\..\..\Tools\CC2 /
//                          530DB\f8wConfig.cfg" (-DSECURE=0                  /
//                          -DZG_SECURE_DYNAMIC=0 -DREFLECTOR                 /
//                          -DDEFAULT_CHANLIST=0x00000800                     /
//                          -DZDAPP_CONFIG_PAN_ID=0xFFFF                      /
//                          -DNWK_START_DELAY=100 -DEXTENDED_JOINING_RANDOM_M /
//                          ASK=0x007F -DBEACON_REQUEST_DELAY=100             /
//                          -DBEACON_REQ_DELAY_MASK=0x00FF                    /
//                          -DROUTE_EXPIRY_TIME=30 -DAPSC_ACK_WAIT_DURATION_P /
//                          OLLED=3000 -DNWK_INDIRECT_MSG_TIMEOUT=7           /
//                          -DMAX_RREQ_ENTRIES=8 -DAPSC_MAX_FRAME_RETRIES=3   /
//                          -DNWK_MAX_DATA_RETRIES=2                          /
//                          -DMAX_POLL_FAILURE_RETRIES=2 -DMAX_BCAST=9        /
//                          -DAPS_MAX_GROUPS=16 -DMAX_RTG_ENTRIES=40          /
//                          -DNWK_MAX_BINDING_ENTRIES=4                       /
//                          -DMAX_BINDING_CLUSTER_IDS=4                       /
//                          "-DDEFAULT_KEY={0x01, 0x03, 0x05, 0x07, 0x09,     /
//                          0x0B, 0x0D, 0x0F, 0x00, 0x02, 0x04, 0x06, 0x08,   /
//                          0x0A, 0x0C, 0x0D}" -DMAC_MAX_FRAME_SIZE=116       /
//                          "-DCONST=const __code" -DGENERIC=__generic        /
//                          -DRFD_RCVC_ALWAYS_ON=FALSE -DPOLL_RATE=1000       /
//                          -DQUEUED_POLL_RATE=100 -DRESPONSE_POLL_RATE=100)  /
//                          -DREJOIN_POLL_RATE=440 "C:\Texas                  /
//                          Instruments\ZStack-CC2530-2.3.0-1.4.0\Components\ /
//                          hal\target\CC2530EB\hal_sleep.c" -D               /
//                          NWK_AUTO_POLL -D ENDDEVICE -D ZTOOL_P1 -D         /
//                          MT_TASK -D MT_SYS_FUNC -D MT_ZDO_FUNC -D          /
//                          SerialApp_CallBack -D xLCD_SUPPORTED=DEBUG -lC    /
//                          "C:\Texas Instruments\ZStack-CC2530-2.3.0-1.4.0\P /
//                          rojects\zstack\Samples\ParkingS\CC2530DB\EndDevic /
//                          eEB\List\" -lA "C:\Texas                          /
//                          Instruments\ZStack-CC2530-2.3.0-1.4.0\Projects\zs /
//                          tack\Samples\ParkingS\CC2530DB\EndDeviceEB\List\" /
//                           --diag_suppress Pe001,Pa010 -o "C:\Texas         /
//                          Instruments\ZStack-CC2530-2.3.0-1.4.0\Projects\zs /
//                          tack\Samples\ParkingS\CC2530DB\EndDeviceEB\Obj\"  /
//                          -e --require_prototypes --debug --core=plain      /
//                          --dptr=16,1 --data_model=large                    /
//                          --code_model=banked --calling_convention=xdata_re /
//                          entrant --place_constants=data_rom                /
//                          --nr_virtual_regs 16 -I "C:\Texas                 /
//                          Instruments\ZStack-CC2530-2.3.0-1.4.0\Projects\zs /
//                          tack\Samples\ParkingS\CC2530DB\" -I "C:\Texas     /
//                          Instruments\ZStack-CC2530-2.3.0-1.4.0\Projects\zs /
//                          tack\Samples\ParkingS\CC2530DB\..\SOURCE\" -I     /
//                          "C:\Texas Instruments\ZStack-CC2530-2.3.0-1.4.0\P /
//                          rojects\zstack\Samples\ParkingS\CC2530DB\..\..\.. /
//                          \ZMAIN\TI2530DB\" -I "C:\Texas                    /
//                          Instruments\ZStack-CC2530-2.3.0-1.4.0\Projects\zs /
//                          tack\Samples\ParkingS\CC2530DB\..\..\..\..\..\COM /
//                          PONENTS\MT\" -I "C:\Texas                         /
//                          Instruments\ZStack-CC2530-2.3.0-1.4.0\Projects\zs /
//                          tack\Samples\ParkingS\CC2530DB\..\..\..\..\..\COM /
//                          PONENTS\HAL\INCLUDE\" -I "C:\Texas                /
//                          Instruments\ZStack-CC2530-2.3.0-1.4.0\Projects\zs /
//                          tack\Samples\ParkingS\CC2530DB\..\..\..\..\..\COM /
//                          PONENTS\HAL\TARGET\CC2530EB\" -I "C:\Texas        /
//                          Instruments\ZStack-CC2530-2.3.0-1.4.0\Projects\zs /
//                          tack\Samples\ParkingS\CC2530DB\..\..\..\..\..\COM /
//                          PONENTS\OSAL\MCU\CCSOC\" -I "C:\Texas             /
//                          Instruments\ZStack-CC2530-2.3.0-1.4.0\Projects\zs /
//                          tack\Samples\ParkingS\CC2530DB\..\..\..\..\..\COM /
//                          PONENTS\OSAL\INCLUDE\" -I "C:\Texas               /
//                          Instruments\ZStack-CC2530-2.3.0-1.4.0\Projects\zs /
//                          tack\Samples\ParkingS\CC2530DB\..\..\..\..\..\COM /
//                          PONENTS\STACK\AF\" -I "C:\Texas                   /
//                          Instruments\ZStack-CC2530-2.3.0-1.4.0\Projects\zs /
//                          tack\Samples\ParkingS\CC2530DB\..\..\..\..\..\COM /
//                          PONENTS\STACK\NWK\" -I "C:\Texas                  /
//                          Instruments\ZStack-CC2530-2.3.0-1.4.0\Projects\zs /
//                          tack\Samples\ParkingS\CC2530DB\..\..\..\..\..\COM /
//                          PONENTS\STACK\SEC\" -I "C:\Texas                  /
//                          Instruments\ZStack-CC2530-2.3.0-1.4.0\Projects\zs /
//                          tack\Samples\ParkingS\CC2530DB\..\..\..\..\..\COM /
//                          PONENTS\STACK\SAPI\" -I "C:\Texas                 /
//                          Instruments\ZStack-CC2530-2.3.0-1.4.0\Projects\zs /
//                          tack\Samples\ParkingS\CC2530DB\..\..\..\..\..\COM /
//                          PONENTS\STACK\SYS\" -I "C:\Texas                  /
//                          Instruments\ZStack-CC2530-2.3.0-1.4.0\Projects\zs /
//                          tack\Samples\ParkingS\CC2530DB\..\..\..\..\..\COM /
//                          PONENTS\STACK\ZDO\" -I "C:\Texas                  /
//                          Instruments\ZStack-CC2530-2.3.0-1.4.0\Projects\zs /
//                          tack\Samples\ParkingS\CC2530DB\..\..\..\..\..\COM /
//                          PONENTS\ZMAC\F8W\" -I "C:\Texas                   /
//                          Instruments\ZStack-CC2530-2.3.0-1.4.0\Projects\zs /
//                          tack\Samples\ParkingS\CC2530DB\..\..\..\..\..\COM /
//                          PONENTS\ZMAC\" -I "C:\Texas                       /
//                          Instruments\ZStack-CC2530-2.3.0-1.4.0\Projects\zs /
//                          tack\Samples\ParkingS\CC2530DB\..\..\..\..\..\COM /
//                          PONENTS\SERVICES\SADDR\" -I "C:\Texas             /
//                          Instruments\ZStack-CC2530-2.3.0-1.4.0\Projects\zs /
//                          tack\Samples\ParkingS\CC2530DB\..\..\..\..\..\COM /
//                          PONENTS\SERVICES\SDATA\" -I "C:\Texas             /
//                          Instruments\ZStack-CC2530-2.3.0-1.4.0\Projects\zs /
//                          tack\Samples\ParkingS\CC2530DB\..\..\..\..\..\COM /
//                          PONENTS\MAC\INCLUDE\" -I "C:\Texas                /
//                          Instruments\ZStack-CC2530-2.3.0-1.4.0\Projects\zs /
//                          tack\Samples\ParkingS\CC2530DB\..\..\..\..\..\COM /
//                          PONENTS\MAC\HIGH_LEVEL\" -I "C:\Texas             /
//                          Instruments\ZStack-CC2530-2.3.0-1.4.0\Projects\zs /
//                          tack\Samples\ParkingS\CC2530DB\..\..\..\..\..\COM /
//                          PONENTS\MAC\LOW_LEVEL\srf04\" -I "C:\Texas        /
//                          Instruments\ZStack-CC2530-2.3.0-1.4.0\Projects\zs /
//                          tack\Samples\ParkingS\CC2530DB\..\..\..\..\..\COM /
//                          PONENTS\MAC\LOW_LEVEL\srf04\SINGLE_CHIP\" -I      /
//                          "C:\Program Files\IAR Systems\Embedded Workbench  /
//                          5.3\8051\INC\" -I "C:\Program Files\IAR           /
//                          Systems\Embedded Workbench 5.3\8051\INC\CLIB\"    /
//                          -Ohz                                              /
//    List file          =  C:\Texas Instruments\ZStack-CC2530-2.3.0-1.4.0\Pr /
//                          ojects\zstack\Samples\ParkingS\CC2530DB\EndDevice /
//                          EB\List\hal_sleep.s51                             /
//                                                                            /
//                                                                            /
///////////////////////////////////////////////////////////////////////////////

        NAME hal_sleep

        RTMODEL "__calling_convention", "xdata_reentrant"
        RTMODEL "__code_model", "banked"
        RTMODEL "__core", "plain"
        RTMODEL "__data_model", "large"
        RTMODEL "__dptr_size", "16"
        RTMODEL "__extended_stack", "disabled"
        RTMODEL "__location_for_constants", "data"
        RTMODEL "__number_of_dptrs", "1"
        RTMODEL "__rt_version", "1"

        RSEG DOVERLAY:DATA:NOROOT(0)
        RSEG IOVERLAY:IDATA:NOROOT(0)
        RSEG ISTACK:IDATA:NOROOT(0)
        RSEG PSTACK:XDATA:NOROOT(0)
        RSEG XSTACK:XDATA:NOROOT(0)

        EXTERN ??HalTimerElapsed?relay
        EXTERN ??halSetSleepMode?relay
        EXTERN ??halSleepSetTimer?relay
        EXTERN ?ALLOC_XSTACK8
        EXTERN ?BANKED_ENTER_XDATA
        EXTERN ?BANKED_LEAVE_XDATA
        EXTERN ?BDISPATCH
        EXTERN ?BRET
        EXTERN ?DEALLOC_XSTACK8
        EXTERN ?L_ADD_TO_X
        EXTERN ?L_ADD_X
        EXTERN ?L_AND_X
        EXTERN ?L_EQ_X
        EXTERN ?L_MOV_TO_X
        EXTERN ?L_MOV_X
        EXTERN ?L_MUL
        EXTERN ?L_SUB_X
        EXTERN ?UL_GT
        EXTERN ?UL_SHR
        EXTERN ?V0
        EXTERN ?XSP
        EXTERN ?XSTACK_DISP0_8
        EXTERN __INIT_XDATA_Z

        PUBLIC ??HalTimerElapsed?relay
        FUNCTION ??HalTimerElapsed?relay,0203H
        PUBLIC ??TimerElapsed?relay
        FUNCTION ??TimerElapsed?relay,0203H
        PUBLIC ??halRestoreSleepLevel?relay
        FUNCTION ??halRestoreSleepLevel?relay,0203H
        PUBLIC ??halSetSleepMode?relay
        FUNCTION ??halSetSleepMode?relay,0203H
        PUBLIC ??halSleep?relay
        FUNCTION ??halSleep?relay,0203H
        PUBLIC ??halSleepSetTimer?relay
        FUNCTION ??halSleepSetTimer?relay,0203H
        PUBWEAK `??halSleepTimerIsr??INTVEC 43`
        PUBLIC ??halSleepWait?relay
        FUNCTION ??halSleepWait?relay,0203H
        PUBLIC HalTimerElapsed
        FUNCTION HalTimerElapsed,0203H
        ARGFRAME XSTACK, 16, STACK
        ARGFRAME IOVERLAY, 0, STATIC
        ARGFRAME DOVERLAY, 0, STATIC
        LOCFRAME ISTACK, 1, STACK
        LOCFRAME XSTACK, 20, STACK
        PUBWEAK IEN2
        PUBWEAK PCON
        PUBWEAK SLEEPCMD
        PUBWEAK ST0
        PUBWEAK ST1
        PUBWEAK ST2
        PUBWEAK STLOAD
        PUBLIC TimerElapsed
        FUNCTION TimerElapsed,0203H
        ARGFRAME XSTACK, 0, STACK
        LOCFRAME XSTACK, 12, STACK
        PUBWEAK _A_IEN0
        PUBWEAK _A_IEN1
        PUBWEAK _A_IRCON
        PUBWEAK __Constant_0
        PUBWEAK __Constant_11
        PUBWEAK __Constant_185196
        PUBWEAK __Constant_185197
        PUBWEAK __Constant_1f
        PUBWEAK __Constant_29f
        PUBWEAK __Constant_2d
        PUBWEAK __Constant_64
        PUBWEAK __Constant_7d
        PUBWEAK __Constant_fff
        PUBWEAK __Constant_ffffff
        PUBWEAK __Constant_ffffffef
        PUBLIC halRestoreSleepLevel
        FUNCTION halRestoreSleepLevel,0203H
        ARGFRAME XSTACK, 0, STACK
        PUBLIC halSetSleepMode
        FUNCTION halSetSleepMode,0203H
        ARGFRAME XSTACK, 16, STACK
        ARGFRAME IOVERLAY, 0, STATIC
        ARGFRAME DOVERLAY, 0, STATIC
        PUBLIC halSleep
        FUNCTION halSleep,021203H
        ARGFRAME XSTACK, 0, STACK
        LOCFRAME XSTACK, 16, STACK
        PUBLIC halSleepSetTimer
        FUNCTION halSleepSetTimer,0203H
        ARGFRAME XSTACK, 16, STACK
        ARGFRAME IOVERLAY, 0, STATIC
        ARGFRAME DOVERLAY, 0, STATIC
        LOCFRAME ISTACK, 1, STACK
        LOCFRAME XSTACK, 20, STACK
        PUBLIC halSleepTimerIsr
        FUNCTION halSleepTimerIsr,0233H
        ARGFRAME XSTACK, 0, STACK
        LOCFRAME ISTACK, 1, STACK
        PUBLIC halSleepWait
        FUNCTION halSleepWait,080203H
        ARGFRAME XSTACK, 0, STACK
        
        CFI Names cfiNames0
        CFI StackFrame CFA_SP SP IDATA
        CFI StackFrame CFA_PSP16 PSP16 XDATA
        CFI StackFrame CFA_XSP16 XSP16 XDATA
        CFI StaticOverlayFrame CFA_IOVERLAY IOVERLAY
        CFI StaticOverlayFrame CFA_DOVERLAY DOVERLAY
        CFI Resource `PSW.CY`:1, `B.BR0`:1, `B.BR1`:1, `B.BR2`:1, `B.BR3`:1
        CFI Resource `B.BR4`:1, `B.BR5`:1, `B.BR6`:1, `B.BR7`:1, `VB.BR8`:1
        CFI Resource `VB.BR9`:1, `VB.BR10`:1, `VB.BR11`:1, `VB.BR12`:1
        CFI Resource `VB.BR13`:1, `VB.BR14`:1, `VB.BR15`:1, VB:8, B:8, A:8
        CFI Resource PSW:8, DPL0:8, DPH0:8, R0:8, R1:8, R2:8, R3:8, R4:8, R5:8
        CFI Resource R6:8, R7:8, V0:8, V1:8, V2:8, V3:8, V4:8, V5:8, V6:8, V7:8
        CFI Resource V8:8, V9:8, V10:8, V11:8, V12:8, V13:8, V14:8, V15:8, SP:8
        CFI Resource PSPH:8, PSPL:8, PSP16:16, XSPH:8, XSPL:8, XSP16:16
        CFI VirtualResource ?RET:24
        CFI Resource ?BRET_EXT:8
        CFI VirtualResource ?RET_HIGH:8, ?RET_LOW:8
        CFI ResourceParts PSP16 PSPH, PSPL
        CFI ResourceParts XSP16 XSPH, XSPL
        CFI ResourceParts ?RET ?BRET_EXT, ?RET_HIGH, ?RET_LOW
        CFI EndNames cfiNames0
        
        CFI Common cfiCommon0 Using cfiNames0
        CFI CodeAlign 1
        CFI DataAlign -1
        CFI ReturnAddress ?RET CODE
        CFI CFA_DOVERLAY Used
        CFI CFA_IOVERLAY Used
        CFI CFA_SP SP+-3
        CFI CFA_PSP16 PSP16+0
        CFI CFA_XSP16 XSP16+0
        CFI `PSW.CY` SameValue
        CFI `B.BR0` SameValue
        CFI `B.BR1` SameValue
        CFI `B.BR2` SameValue
        CFI `B.BR3` SameValue
        CFI `B.BR4` SameValue
        CFI `B.BR5` SameValue
        CFI `B.BR6` SameValue
        CFI `B.BR7` SameValue
        CFI `VB.BR8` SameValue
        CFI `VB.BR9` SameValue
        CFI `VB.BR10` SameValue
        CFI `VB.BR11` SameValue
        CFI `VB.BR12` SameValue
        CFI `VB.BR13` SameValue
        CFI `VB.BR14` SameValue
        CFI `VB.BR15` SameValue
        CFI VB SameValue
        CFI B Undefined
        CFI A Undefined
        CFI PSW SameValue
        CFI DPL0 SameValue
        CFI DPH0 SameValue
        CFI R0 Undefined
        CFI R1 Undefined
        CFI R2 Undefined
        CFI R3 Undefined
        CFI R4 Undefined
        CFI R5 Undefined
        CFI R6 SameValue
        CFI R7 SameValue
        CFI V0 SameValue
        CFI V1 SameValue
        CFI V2 SameValue
        CFI V3 SameValue
        CFI V4 SameValue
        CFI V5 SameValue
        CFI V6 SameValue
        CFI V7 SameValue
        CFI V8 SameValue
        CFI V9 SameValue
        CFI V10 SameValue
        CFI V11 SameValue
        CFI V12 SameValue
        CFI V13 SameValue
        CFI V14 SameValue
        CFI V15 SameValue
        CFI PSPH Undefined
        CFI PSPL Undefined
        CFI XSPH Undefined
        CFI XSPL Undefined
        CFI ?RET Concat
        CFI ?BRET_EXT Frame(CFA_SP, 3)
        CFI ?RET_HIGH Frame(CFA_SP, 2)
        CFI ?RET_LOW Frame(CFA_SP, 1)
        CFI EndCommon cfiCommon0
        
        
        CFI Common cfiCommon1 Using cfiNames0
        CFI CodeAlign 1
        CFI DataAlign -1
        CFI ReturnAddress ?RET CODE
        CFI CFA_DOVERLAY Used
        CFI CFA_IOVERLAY Used
        CFI CFA_SP SP+-2
        CFI CFA_PSP16 PSP16+0
        CFI CFA_XSP16 XSP16+0
        CFI `PSW.CY` SameValue
        CFI `B.BR0` SameValue
        CFI `B.BR1` SameValue
        CFI `B.BR2` SameValue
        CFI `B.BR3` SameValue
        CFI `B.BR4` SameValue
        CFI `B.BR5` SameValue
        CFI `B.BR6` SameValue
        CFI `B.BR7` SameValue
        CFI `VB.BR8` SameValue
        CFI `VB.BR9` SameValue
        CFI `VB.BR10` SameValue
        CFI `VB.BR11` SameValue
        CFI `VB.BR12` SameValue
        CFI `VB.BR13` SameValue
        CFI `VB.BR14` SameValue
        CFI `VB.BR15` SameValue
        CFI VB SameValue
        CFI B SameValue
        CFI A SameValue
        CFI PSW SameValue
        CFI DPL0 SameValue
        CFI DPH0 SameValue
        CFI R0 SameValue
        CFI R1 SameValue
        CFI R2 SameValue
        CFI R3 SameValue
        CFI R4 SameValue
        CFI R5 SameValue
        CFI R6 SameValue
        CFI R7 SameValue
        CFI V0 SameValue
        CFI V1 SameValue
        CFI V2 SameValue
        CFI V3 SameValue
        CFI V4 SameValue
        CFI V5 SameValue
        CFI V6 SameValue
        CFI V7 SameValue
        CFI V8 SameValue
        CFI V9 SameValue
        CFI V10 SameValue
        CFI V11 SameValue
        CFI V12 SameValue
        CFI V13 SameValue
        CFI V14 SameValue
        CFI V15 SameValue
        CFI PSPH Undefined
        CFI PSPL Undefined
        CFI XSPH Undefined
        CFI XSPL Undefined
        CFI ?RET Concat
        CFI ?BRET_EXT SameValue
        CFI ?RET_HIGH Frame(CFA_SP, 2)
        CFI ?RET_LOW Frame(CFA_SP, 1)
        CFI EndCommon cfiCommon1
        
MAC_PwrNextTimeout  SYMBOL "MAC_PwrNextTimeout"
halAssertHandler    SYMBOL "halAssertHandler"
MAC_PwrOffReq       SYMBOL "MAC_PwrOffReq"
HalKeyEnterSleep    SYMBOL "HalKeyEnterSleep"
HalLedEnterSleep    SYMBOL "HalLedEnterSleep"
HalLedExitSleep     SYMBOL "HalLedExitSleep"
HalKeyExitSleep     SYMBOL "HalKeyExitSleep"
MAC_PwrOnReq        SYMBOL "MAC_PwrOnReq"
macMcuTimer2OverflowWorkaround SYMBOL "macMcuTimer2OverflowWorkaround"
??HalKeyEnterSleep?relay SYMBOL "?relay", HalKeyEnterSleep
??HalKeyExitSleep?relay SYMBOL "?relay", HalKeyExitSleep
??HalLedEnterSleep?relay SYMBOL "?relay", HalLedEnterSleep
??HalLedExitSleep?relay SYMBOL "?relay", HalLedExitSleep
??MAC_PwrNextTimeout?relay SYMBOL "?relay", MAC_PwrNextTimeout
??MAC_PwrOffReq?relay SYMBOL "?relay", MAC_PwrOffReq
??MAC_PwrOnReq?relay SYMBOL "?relay", MAC_PwrOnReq
??halAssertHandler?relay SYMBOL "?relay", halAssertHandler
??macMcuTimer2OverflowWorkaround?relay SYMBOL "?relay", macMcuTimer2OverflowWorkaround
HalTimerElapsed     SYMBOL "HalTimerElapsed"
??HalTimerElapsed?relay SYMBOL "?relay", HalTimerElapsed
TimerElapsed        SYMBOL "TimerElapsed"
??TimerElapsed?relay SYMBOL "?relay", TimerElapsed
halRestoreSleepLevel SYMBOL "halRestoreSleepLevel"
??halRestoreSleepLevel?relay SYMBOL "?relay", halRestoreSleepLevel
halSetSleepMode     SYMBOL "halSetSleepMode"
??halSetSleepMode?relay SYMBOL "?relay", halSetSleepMode
halSleep            SYMBOL "halSleep"
??halSleep?relay    SYMBOL "?relay", halSleep
halSleepSetTimer    SYMBOL "halSleepSetTimer"
??halSleepSetTimer?relay SYMBOL "?relay", halSleepSetTimer
halSleepTimerIsr    SYMBOL "halSleepTimerIsr"
`??halSleepTimerIsr??INTVEC 43` SYMBOL "??INTVEC 43", halSleepTimerIsr
halSleepWait        SYMBOL "halSleepWait"
??halSleepWait?relay SYMBOL "?relay", halSleepWait

        EXTERN MAC_PwrNextTimeout
        FUNCTION MAC_PwrNextTimeout,0202H
        ARGFRAME ISTACK, 0, STACK
        ARGFRAME PSTACK, 0, STACK
        ARGFRAME XSTACK, 16, STACK
        ARGFRAME IOVERLAY, 0, STATIC
        ARGFRAME DOVERLAY, 0, STATIC
        EXTERN halAssertHandler
        FUNCTION halAssertHandler,0202H
        ARGFRAME ISTACK, 0, STACK
        ARGFRAME PSTACK, 0, STACK
        ARGFRAME XSTACK, 16, STACK
        ARGFRAME IOVERLAY, 0, STATIC
        ARGFRAME DOVERLAY, 0, STATIC
        EXTERN MAC_PwrOffReq
        FUNCTION MAC_PwrOffReq,0202H
        ARGFRAME ISTACK, 0, STACK
        ARGFRAME PSTACK, 0, STACK
        ARGFRAME XSTACK, 16, STACK
        ARGFRAME IOVERLAY, 0, STATIC
        ARGFRAME DOVERLAY, 0, STATIC
        EXTERN HalKeyEnterSleep
        FUNCTION HalKeyEnterSleep,0202H
        ARGFRAME ISTACK, 0, STACK
        ARGFRAME PSTACK, 0, STACK
        ARGFRAME XSTACK, 16, STACK
        ARGFRAME IOVERLAY, 0, STATIC
        ARGFRAME DOVERLAY, 0, STATIC
        EXTERN HalLedEnterSleep
        FUNCTION HalLedEnterSleep,0202H
        ARGFRAME ISTACK, 0, STACK
        ARGFRAME PSTACK, 0, STACK
        ARGFRAME XSTACK, 16, STACK
        ARGFRAME IOVERLAY, 0, STATIC
        ARGFRAME DOVERLAY, 0, STATIC
        EXTERN HalLedExitSleep
        FUNCTION HalLedExitSleep,0202H
        ARGFRAME ISTACK, 0, STACK
        ARGFRAME PSTACK, 0, STACK
        ARGFRAME XSTACK, 16, STACK
        ARGFRAME IOVERLAY, 0, STATIC
        ARGFRAME DOVERLAY, 0, STATIC
        EXTERN HalKeyExitSleep
        FUNCTION HalKeyExitSleep,0202H
        ARGFRAME ISTACK, 0, STACK
        ARGFRAME PSTACK, 0, STACK
        ARGFRAME XSTACK, 16, STACK
        ARGFRAME IOVERLAY, 0, STATIC
        ARGFRAME DOVERLAY, 0, STATIC
        EXTERN MAC_PwrOnReq
        FUNCTION MAC_PwrOnReq,0202H
        ARGFRAME ISTACK, 0, STACK
        ARGFRAME PSTACK, 0, STACK
        ARGFRAME XSTACK, 16, STACK
        ARGFRAME IOVERLAY, 0, STATIC
        ARGFRAME DOVERLAY, 0, STATIC
        EXTERN macMcuTimer2OverflowWorkaround
        FUNCTION macMcuTimer2OverflowWorkaround,0202H
        ARGFRAME ISTACK, 0, STACK
        ARGFRAME PSTACK, 0, STACK
        ARGFRAME XSTACK, 16, STACK
        ARGFRAME IOVERLAY, 0, STATIC
        ARGFRAME DOVERLAY, 0, STATIC
        EXTERN ??HalKeyEnterSleep?relay
        FUNCTION ??HalKeyEnterSleep?relay,00H
        EXTERN ??HalKeyExitSleep?relay
        FUNCTION ??HalKeyExitSleep?relay,00H
        EXTERN ??HalLedEnterSleep?relay
        FUNCTION ??HalLedEnterSleep?relay,00H
        EXTERN ??HalLedExitSleep?relay
        FUNCTION ??HalLedExitSleep?relay,00H
        EXTERN ??MAC_PwrNextTimeout?relay
        FUNCTION ??MAC_PwrNextTimeout?relay,00H
        EXTERN ??MAC_PwrOffReq?relay
        FUNCTION ??MAC_PwrOffReq?relay,00H
        EXTERN ??MAC_PwrOnReq?relay
        FUNCTION ??MAC_PwrOnReq?relay,00H
        EXTERN ??halAssertHandler?relay
        FUNCTION ??halAssertHandler?relay,00H
        EXTERN ??macMcuTimer2OverflowWorkaround?relay
        FUNCTION ??macMcuTimer2OverflowWorkaround?relay,00H

// C:\Texas Instruments\ZStack-CC2530-2.3.0-1.4.0\Components\hal\target\CC2530EB\hal_sleep.c
//    1 /**************************************************************************************************
//    2   Filename:       hal_sleep.c
//    3   Revised:        $Date: 2009-10-21 17:53:50 -0700 (Wed, 21 Oct 2009) $
//    4   Revision:       $Revision: 20956 $
//    5 
//    6   Description:    This module contains the HAL power management procedures for the CC2530.
//    7 
//    8 
//    9   Copyright 2006-2009 Texas Instruments Incorporated. All rights reserved.
//   10 
//   11   IMPORTANT: Your use of this Software is limited to those specific rights
//   12   granted under the terms of a software license agreement between the user
//   13   who downloaded the software, his/her employer (which must be your employer)
//   14   and Texas Instruments Incorporated (the "License").  You may not use this
//   15   Software unless you agree to abide by the terms of the License. The License
//   16   limits your use, and you acknowledge, that the Software may not be modified,
//   17   copied or distributed unless embedded on a Texas Instruments microcontroller
//   18   or used solely and exclusively in conjunction with a Texas Instruments radio
//   19   frequency transceiver, which is integrated into your product.  Other than for
//   20   the foregoing purpose, you may not use, reproduce, copy, prepare derivative
//   21   works of, modify, distribute, perform, display or sell this Software and/or
//   22   its documentation for any purpose.
//   23 
//   24   YOU FURTHER ACKNOWLEDGE AND AGREE THAT THE SOFTWARE AND DOCUMENTATION ARE
//   25   PROVIDED “AS IS” WITHOUT WARRANTY OF ANY KIND, EITHER EXPRESS OR IMPLIED,
//   26   INCLUDING WITHOUT LIMITATION, ANY WARRANTY OF MERCHANTABILITY, TITLE,
//   27   NON-INFRINGEMENT AND FITNESS FOR A PARTICULAR PURPOSE. IN NO EVENT SHALL
//   28   TEXAS INSTRUMENTS OR ITS LICENSORS BE LIABLE OR OBLIGATED UNDER CONTRACT,
//   29   NEGLIGENCE, STRICT LIABILITY, CONTRIBUTION, BREACH OF WARRANTY, OR OTHER
//   30   LEGAL EQUITABLE THEORY ANY DIRECT OR INDIRECT DAMAGES OR EXPENSES
//   31   INCLUDING BUT NOT LIMITED TO ANY INCIDENTAL, SPECIAL, INDIRECT, PUNITIVE
//   32   OR CONSEQUENTIAL DAMAGES, LOST PROFITS OR LOST DATA, COST OF PROCUREMENT
//   33   OF SUBSTITUTE GOODS, TECHNOLOGY, SERVICES, OR ANY CLAIMS BY THIRD PARTIES
//   34   (INCLUDING BUT NOT LIMITED TO ANY DEFENSE THEREOF), OR OTHER SIMILAR COSTS.
//   35 
//   36   Should you have any questions regarding your right to use this Software,
//   37   contact Texas Instruments Incorporated at www.TI.com.
//   38 **************************************************************************************************/
//   39 
//   40 /* ------------------------------------------------------------------------------------------------
//   41  *                                          Includes
//   42  * ------------------------------------------------------------------------------------------------
//   43  */
//   44 #include "hal_types.h"
//   45 #include "hal_mcu.h"

        ASEGN SFR_AN:DATA:NOROOT,087H
// unsigned char volatile __sfr PCON
PCON:
        DS 1

        ASEGN SFR_AN:DATA:NOROOT,095H
// unsigned char volatile __sfr ST0
ST0:
        DS 1

        ASEGN SFR_AN:DATA:NOROOT,096H
// unsigned char volatile __sfr ST1
ST1:
        DS 1

        ASEGN SFR_AN:DATA:NOROOT,097H
// unsigned char volatile __sfr ST2
ST2:
        DS 1

        ASEGN SFR_AN:DATA:NOROOT,09aH
// unsigned char volatile __sfr IEN2
IEN2:
        DS 1

        ASEGN SFR_AN:DATA:NOROOT,0a8H
// union <unnamed> volatile __sfr _A_IEN0
_A_IEN0:
        DS 1

        ASEGN SFR_AN:DATA:NOROOT,0adH
// unsigned char volatile __sfr STLOAD
STLOAD:
        DS 1

        ASEGN SFR_AN:DATA:NOROOT,0b8H
// union <unnamed> volatile __sfr _A_IEN1
_A_IEN1:
        DS 1

        ASEGN SFR_AN:DATA:NOROOT,0beH
// unsigned char volatile __sfr SLEEPCMD
SLEEPCMD:
        DS 1

        ASEGN SFR_AN:DATA:NOROOT,0c0H
// union <unnamed> volatile __sfr _A_IRCON
_A_IRCON:
        DS 1
//   46 #include "hal_board.h"
//   47 #include "hal_sleep.h"
//   48 #include "hal_led.h"
//   49 #include "hal_key.h"
//   50 #include "mac_api.h"
//   51 #include "OSAL.h"
//   52 #include "OSAL_Timers.h"
//   53 #include "OSAL_Tasks.h"
//   54 #include "OSAL_PwrMgr.h"
//   55 #include "OnBoard.h"
//   56 #include "hal_drivers.h"
//   57 #include "hal_assert.h"
//   58 #include "mac_mcu.h"
//   59 
//   60 #ifndef ZG_BUILD_ENDDEVICE_TYPE
//   61 # define ZG_BUILD_ENDDEVICE_TYPE FALSE
//   62 #endif
//   63 
//   64 #if ZG_BUILD_ENDDEVICE_TYPE && defined (NWK_AUTO_POLL)
//   65 #include "nwk_globals.h"
//   66 #include "ZGlobals.h"
//   67 #endif
//   68 
//   69 /* ------------------------------------------------------------------------------------------------
//   70  *                                           Macros
//   71  * ------------------------------------------------------------------------------------------------
//   72  */
//   73 
//   74 /* POWER CONSERVATION DEFINITIONS
//   75  * Sleep mode H/W definitions (enabled with POWER_SAVING compile option)
//   76  */
//   77 #define CC2530_PM0            0  /* PM0, Clock oscillators on, voltage regulator on */
//   78 #define CC2530_PM1            1  /* PM1, 32.768 kHz oscillators on, voltage regulator on */
//   79 #define CC2530_PM2            2  /* PM2, 32.768 kHz oscillators on, voltage regulator off */
//   80 #define CC2530_PM3            3  /* PM3, All clock oscillators off, voltage regulator off */
//   81 
//   82 /* HAL power management mode is set according to the power management state. The default
//   83  * setting is HAL_SLEEP_OFF. The actual value is tailored to different HW platform. Both
//   84  * HAL_SLEEP_TIMER and HAL_SLEEP_DEEP selections will:
//   85  *   1. turn off the system clock, and
//   86  *   2. halt the MCU.
//   87  * HAL_SLEEP_TIMER can be woken up by sleep timer interrupt, I/O interrupt and reset.
//   88  * HAL_SLEEP_DEEP can be woken up by I/O interrupt and reset.
//   89  */
//   90 #define HAL_SLEEP_OFF         CC2530_PM0
//   91 #define HAL_SLEEP_TIMER       CC2530_PM2
//   92 #define HAL_SLEEP_DEEP        CC2530_PM3
//   93 
//   94 /* MAX_SLEEP_TIME calculation:
//   95  *   Sleep timer maximum duration = 0xFFFF7F / 32768 Hz = 511.996 seconds
//   96  *   Round it to 510 seconds or 510000 ms
//   97  */
//   98 #define MAX_SLEEP_TIME                   510000             /* maximum time to sleep allowed by ST */
//   99 
//  100 
//  101 /* minimum time to sleep, this macro is to:
//  102  * 1. avoid thrashing in-and-out of sleep with short OSAL timer (~2ms)
//  103  * 2. define minimum safe sleep period
//  104  */
//  105 #if !defined (PM_MIN_SLEEP_TIME)
//  106 #define PM_MIN_SLEEP_TIME                14                 /* default to minimum safe sleep time minimum CAP */
//  107 #endif
//  108 
//  109 /* The PCON instruction must be 4-byte aligned. The following code may cause excessive power
//  110  * consumption if not aligned. See linker file ".xcl" for actual placement.
//  111  */
//  112 #pragma location = "SLEEP_CODE"
//  113 void halSetSleepMode(void);
//  114 
//  115 /* This value is used to adjust the sleep timer compare value such that the sleep timer
//  116  * compare takes into account the amount of processing time spent in function halSleep().
//  117  * The first value is determined by measuring the number of sleep timer ticks it from
//  118  * the beginning of the function to entering sleep mode.  The second value is determined
//  119  * by measuring the number of sleep timer ticks from exit of sleep mode to the call to
//  120  * osal_adjust_timers().
//  121  */
//  122 #define HAL_SLEEP_ADJ_TICKS   (7 + 10)
//  123 
//  124 #ifndef HAL_SLEEP_DEBUG_POWER_MODE
//  125 /* set CC2530 power mode; always use PM2 */
//  126 #define HAL_SLEEP_SET_POWER_MODE(mode)       st( SLEEPCMD &= ~PMODE; /* clear mode bits */    \ 
//  127                                                  SLEEPCMD |= mode;   /* set mode bits   */    \ 
//  128                                                  while (!(STLOAD & LDRDY));                   \ 
//  129                                                  {                                            \ 
//  130                                                    halSetSleepMode();                         \ 
//  131                                                  }                                            \ 
//  132                                                )
//  133 #else
//  134 /* Debug: don't set power mode, just block until sleep timer interrupt */
//  135 #define HAL_SLEEP_SET_POWER_MODE(mode)      st( while(halSleepInt == FALSE); \ 
//  136                                                 halSleepInt = FALSE;         \ 
//  137                                                 HAL_DISABLE_INTERRUPTS();    \ 
//  138                                               )
//  139 #endif
//  140 
//  141 /* sleep and external interrupt port masks */
//  142 #define STIE_BV                             BV(5)
//  143 #define P0IE_BV                             BV(5)
//  144 #define P1IE_BV                             BV(4)
//  145 #define P2IE_BV                             BV(1)
//  146 
//  147 /* sleep timer interrupt control */
//  148 #define HAL_SLEEP_TIMER_ENABLE_INT()        st(IEN0 |= STIE_BV;)     /* enable sleep timer interrupt */
//  149 #define HAL_SLEEP_TIMER_DISABLE_INT()       st(IEN0 &= ~STIE_BV;)    /* disable sleep timer interrupt */
//  150 #define HAL_SLEEP_TIMER_CLEAR_INT()         st(STIF = 0;)            /* clear sleep interrupt flag */
//  151 
//  152 /* backup interrupt enable registers before sleep */
//  153 #define HAL_SLEEP_IE_BACKUP_AND_DISABLE(ien0, ien1, ien2) st(ien0  = IEN0;    /* backup IEN0 register */ \ 
//  154                                                              ien1  = IEN1;    /* backup IEN1 register */ \ 
//  155                                                              ien2  = IEN2;    /* backup IEN2 register */ \ 
//  156                                                              IEN0 &= STIE_BV; /* disable IEN0 except STIE */ \ 
//  157                                                              IEN1 &= P0IE_BV; /* disable IEN1 except P0IE */ \ 
//  158                                                              IEN2 &= (P1IE_BV|P2IE_BV);) /* disable IEN2 except P1IE, P2IE */
//  159 
//  160 /* restore interrupt enable registers before sleep */
//  161 #define HAL_SLEEP_IE_RESTORE(ien0, ien1, ien2) st(IEN0 = ien0;   /* restore IEN0 register */ \ 
//  162                                                   IEN1 = ien1;   /* restore IEN1 register */ \ 
//  163                                                   IEN2 = ien2;)  /* restore IEN2 register */
//  164 
//  165 /* convert msec to 320 usec units with round */
//  166 #define HAL_SLEEP_MS_TO_320US(ms)           (((((uint32) (ms)) * 100) + 31) / 32)
//  167 
//  168 /* for optimized indexing of uint32's */
//  169 #if HAL_MCU_LITTLE_ENDIAN()
//  170 #define UINT32_NDX0   0
//  171 #define UINT32_NDX1   1
//  172 #define UINT32_NDX2   2
//  173 #define UINT32_NDX3   3
//  174 #else
//  175 #define UINT32_NDX0   3
//  176 #define UINT32_NDX1   2
//  177 #define UINT32_NDX2   1
//  178 #define UINT32_NDX3   0
//  179 #endif
//  180 
//  181 /* ------------------------------------------------------------------------------------------------
//  182  *                                        Local Variables
//  183  * ------------------------------------------------------------------------------------------------
//  184  */
//  185 
//  186 /* HAL power management mode is set according to the power management state.
//  187  */

        RSEG XDATA_Z:XDATA:NOROOT(0)
//  188 static uint8 halPwrMgtMode = HAL_SLEEP_OFF;
halPwrMgtMode:
        DS 1
        REQUIRE __INIT_XDATA_Z
//  189 
//  190 /* stores the sleep timer count upon entering sleep */

        RSEG XDATA_Z:XDATA:NOROOT(0)
//  191 static uint32 halSleepTimerStart;
halSleepTimerStart:
        DS 4
        REQUIRE __INIT_XDATA_Z
//  192 
//  193 /* stores the accumulated sleep time */

        RSEG XDATA_Z:XDATA:NOROOT(0)
//  194 static uint32 halAccumulatedSleepTime;
halAccumulatedSleepTime:
        DS 4
        REQUIRE __INIT_XDATA_Z
//  195 
//  196 #ifdef HAL_SLEEP_DEBUG_POWER_MODE
//  197 static bool halSleepInt = FALSE;
//  198 #endif
//  199 
//  200 /* ------------------------------------------------------------------------------------------------
//  201  *                                      Function Prototypes
//  202  * ------------------------------------------------------------------------------------------------
//  203  */
//  204 
//  205 void halSleepSetTimer(uint32 timeout);
//  206 uint32 HalTimerElapsed( void );
//  207 
//  208 /**************************************************************************************************
//  209  * @fn          halSleep
//  210  *
//  211  * @brief       This function put the CC2530 to sleep. The PCON instruction must be 4-byte aligned.
//  212  *              The following code may cause excessive power consumption if not aligned. See linker
//  213  *              file ".xcl" for actual placement.
//  214  *
//  215  * input parameters
//  216  *
//  217  * @param       None.
//  218  *
//  219  * output parameters
//  220  *
//  221  * None.
//  222  *
//  223  * @return      None.
//  224  **************************************************************************************************
//  225  */

        RSEG SLEEP_CODE:CODE:NOROOT(0)
//  226 void halSetSleepMode(void)
halSetSleepMode:
        CFI Block cfiBlock0 Using cfiCommon0
        CFI Function halSetSleepMode
//  227 {
        ; Saved register size: 0
        ; Auto size: 0
//  228   PCON = PCON_IDLE;
        MOV     0x87,#0x1
//  229   HAL_DISABLE_INTERRUPTS();
        CLR     0xa8.7
//  230 }
        LJMP    ?BRET
        CFI EndBlock cfiBlock0
        REQUIRE PCON
        REQUIRE _A_IEN0
//  231 
//  232 /**************************************************************************************************
//  233  * @fn          halSleep
//  234  *
//  235  * @brief       This function is called from the OSAL task loop using and existing OSAL
//  236  *              interface.  It sets the low power mode of the MAC and the CC2530.
//  237  *
//  238  * input parameters
//  239  *
//  240  * @param       osal_timeout - Next OSAL timer timeout.
//  241  *
//  242  * output parameters
//  243  *
//  244  * None.
//  245  *
//  246  * @return      None.
//  247  **************************************************************************************************
//  248  */

        RSEG BANKED_CODE:CODE:NOROOT(0)
//  249 void halSleep( uint16 osal_timeout )
halSleep:
        CFI Block cfiBlock1 Using cfiCommon0
        CFI Function halSleep
//  250 {
        FUNCALL halSleep, MAC_PwrNextTimeout
        LOCFRAME ISTACK, 0, STACK
        LOCFRAME PSTACK, 0, STACK
        LOCFRAME XSTACK, 16, STACK
        LOCFRAME IOVERLAY, 0, STATIC
        LOCFRAME DOVERLAY, 0, STATIC
        ARGFRAME ISTACK, 0, STACK
        ARGFRAME PSTACK, 0, STACK
        ARGFRAME XSTACK, 16, STACK
        ARGFRAME IOVERLAY, 0, STATIC
        ARGFRAME DOVERLAY, 0, STATIC
        FUNCALL halSleep, MAC_PwrNextTimeout
        LOCFRAME ISTACK, 0, STACK
        LOCFRAME PSTACK, 0, STACK
        LOCFRAME XSTACK, 16, STACK
        LOCFRAME IOVERLAY, 0, STATIC
        LOCFRAME DOVERLAY, 0, STATIC
        ARGFRAME ISTACK, 0, STACK
        ARGFRAME PSTACK, 0, STACK
        ARGFRAME XSTACK, 16, STACK
        ARGFRAME IOVERLAY, 0, STATIC
        ARGFRAME DOVERLAY, 0, STATIC
        FUNCALL halSleep, halAssertHandler
        LOCFRAME ISTACK, 0, STACK
        LOCFRAME PSTACK, 0, STACK
        LOCFRAME XSTACK, 16, STACK
        LOCFRAME IOVERLAY, 0, STATIC
        LOCFRAME DOVERLAY, 0, STATIC
        ARGFRAME ISTACK, 0, STACK
        ARGFRAME PSTACK, 0, STACK
        ARGFRAME XSTACK, 16, STACK
        ARGFRAME IOVERLAY, 0, STATIC
        ARGFRAME DOVERLAY, 0, STATIC
        FUNCALL halSleep, MAC_PwrOffReq
        LOCFRAME ISTACK, 0, STACK
        LOCFRAME PSTACK, 0, STACK
        LOCFRAME XSTACK, 16, STACK
        LOCFRAME IOVERLAY, 0, STATIC
        LOCFRAME DOVERLAY, 0, STATIC
        ARGFRAME ISTACK, 0, STACK
        ARGFRAME PSTACK, 0, STACK
        ARGFRAME XSTACK, 16, STACK
        ARGFRAME IOVERLAY, 0, STATIC
        ARGFRAME DOVERLAY, 0, STATIC
        FUNCALL halSleep, HalKeyEnterSleep
        LOCFRAME ISTACK, 0, STACK
        LOCFRAME PSTACK, 0, STACK
        LOCFRAME XSTACK, 16, STACK
        LOCFRAME IOVERLAY, 0, STATIC
        LOCFRAME DOVERLAY, 0, STATIC
        ARGFRAME ISTACK, 0, STACK
        ARGFRAME PSTACK, 0, STACK
        ARGFRAME XSTACK, 16, STACK
        ARGFRAME IOVERLAY, 0, STATIC
        ARGFRAME DOVERLAY, 0, STATIC
        FUNCALL halSleep, HalLedEnterSleep
        LOCFRAME ISTACK, 0, STACK
        LOCFRAME PSTACK, 0, STACK
        LOCFRAME XSTACK, 16, STACK
        LOCFRAME IOVERLAY, 0, STATIC
        LOCFRAME DOVERLAY, 0, STATIC
        ARGFRAME ISTACK, 0, STACK
        ARGFRAME PSTACK, 0, STACK
        ARGFRAME XSTACK, 16, STACK
        ARGFRAME IOVERLAY, 0, STATIC
        ARGFRAME DOVERLAY, 0, STATIC
        FUNCALL halSleep, halSleepSetTimer
        LOCFRAME ISTACK, 0, STACK
        LOCFRAME PSTACK, 0, STACK
        LOCFRAME XSTACK, 16, STACK
        LOCFRAME IOVERLAY, 0, STATIC
        LOCFRAME DOVERLAY, 0, STATIC
        ARGFRAME ISTACK, 0, STACK
        ARGFRAME PSTACK, 0, STACK
        ARGFRAME XSTACK, 16, STACK
        ARGFRAME IOVERLAY, 0, STATIC
        ARGFRAME DOVERLAY, 0, STATIC
        FUNCALL halSleep, halSleepSetTimer
        LOCFRAME ISTACK, 0, STACK
        LOCFRAME PSTACK, 0, STACK
        LOCFRAME XSTACK, 16, STACK
        LOCFRAME IOVERLAY, 0, STATIC
        LOCFRAME DOVERLAY, 0, STATIC
        ARGFRAME ISTACK, 0, STACK
        ARGFRAME PSTACK, 0, STACK
        ARGFRAME XSTACK, 16, STACK
        ARGFRAME IOVERLAY, 0, STATIC
        ARGFRAME DOVERLAY, 0, STATIC
        FUNCALL halSleep, halSetSleepMode
        LOCFRAME ISTACK, 0, STACK
        LOCFRAME PSTACK, 0, STACK
        LOCFRAME XSTACK, 16, STACK
        LOCFRAME IOVERLAY, 0, STATIC
        LOCFRAME DOVERLAY, 0, STATIC
        ARGFRAME ISTACK, 0, STACK
        ARGFRAME PSTACK, 0, STACK
        ARGFRAME XSTACK, 16, STACK
        ARGFRAME IOVERLAY, 0, STATIC
        ARGFRAME DOVERLAY, 0, STATIC
        FUNCALL halSleep, HalTimerElapsed
        LOCFRAME ISTACK, 0, STACK
        LOCFRAME PSTACK, 0, STACK
        LOCFRAME XSTACK, 16, STACK
        LOCFRAME IOVERLAY, 0, STATIC
        LOCFRAME DOVERLAY, 0, STATIC
        ARGFRAME ISTACK, 0, STACK
        ARGFRAME PSTACK, 0, STACK
        ARGFRAME XSTACK, 16, STACK
        ARGFRAME IOVERLAY, 0, STATIC
        ARGFRAME DOVERLAY, 0, STATIC
        FUNCALL halSleep, HalLedExitSleep
        LOCFRAME ISTACK, 0, STACK
        LOCFRAME PSTACK, 0, STACK
        LOCFRAME XSTACK, 16, STACK
        LOCFRAME IOVERLAY, 0, STATIC
        LOCFRAME DOVERLAY, 0, STATIC
        ARGFRAME ISTACK, 0, STACK
        ARGFRAME PSTACK, 0, STACK
        ARGFRAME XSTACK, 16, STACK
        ARGFRAME IOVERLAY, 0, STATIC
        ARGFRAME DOVERLAY, 0, STATIC
        FUNCALL halSleep, HalKeyExitSleep
        LOCFRAME ISTACK, 0, STACK
        LOCFRAME PSTACK, 0, STACK
        LOCFRAME XSTACK, 16, STACK
        LOCFRAME IOVERLAY, 0, STATIC
        LOCFRAME DOVERLAY, 0, STATIC
        ARGFRAME ISTACK, 0, STACK
        ARGFRAME PSTACK, 0, STACK
        ARGFRAME XSTACK, 16, STACK
        ARGFRAME IOVERLAY, 0, STATIC
        ARGFRAME DOVERLAY, 0, STATIC
        FUNCALL halSleep, MAC_PwrOnReq
        LOCFRAME ISTACK, 0, STACK
        LOCFRAME PSTACK, 0, STACK
        LOCFRAME XSTACK, 16, STACK
        LOCFRAME IOVERLAY, 0, STATIC
        LOCFRAME DOVERLAY, 0, STATIC
        ARGFRAME ISTACK, 0, STACK
        ARGFRAME PSTACK, 0, STACK
        ARGFRAME XSTACK, 16, STACK
        ARGFRAME IOVERLAY, 0, STATIC
        ARGFRAME DOVERLAY, 0, STATIC
        FUNCALL halSleep, macMcuTimer2OverflowWorkaround
        LOCFRAME ISTACK, 0, STACK
        LOCFRAME PSTACK, 0, STACK
        LOCFRAME XSTACK, 16, STACK
        LOCFRAME IOVERLAY, 0, STATIC
        LOCFRAME DOVERLAY, 0, STATIC
        ARGFRAME ISTACK, 0, STACK
        ARGFRAME PSTACK, 0, STACK
        ARGFRAME XSTACK, 16, STACK
        ARGFRAME IOVERLAY, 0, STATIC
        ARGFRAME DOVERLAY, 0, STATIC
        MOV     A,#-0x10
        LCALL   ?BANKED_ENTER_XDATA
        CFI DPH0 load(1, XDATA, add(CFA_XSP16, literal(-1)))
        CFI DPL0 load(1, XDATA, add(CFA_XSP16, literal(-2)))
        CFI ?BRET_EXT load(1, XDATA, add(CFA_XSP16, literal(-3)))
        CFI ?RET_HIGH load(1, XDATA, add(CFA_XSP16, literal(-4)))
        CFI ?RET_LOW load(1, XDATA, add(CFA_XSP16, literal(-5)))
        CFI R7 load(1, XDATA, add(CFA_XSP16, literal(-6)))
        CFI V7 load(1, XDATA, add(CFA_XSP16, literal(-7)))
        CFI V6 load(1, XDATA, add(CFA_XSP16, literal(-8)))
        CFI V5 load(1, XDATA, add(CFA_XSP16, literal(-9)))
        CFI V4 load(1, XDATA, add(CFA_XSP16, literal(-10)))
        CFI V3 load(1, XDATA, add(CFA_XSP16, literal(-11)))
        CFI V2 load(1, XDATA, add(CFA_XSP16, literal(-12)))
        CFI V1 load(1, XDATA, add(CFA_XSP16, literal(-13)))
        CFI V0 load(1, XDATA, add(CFA_XSP16, literal(-14)))
        CFI VB load(1, XDATA, add(CFA_XSP16, literal(-15)))
        CFI R6 load(1, XDATA, add(CFA_XSP16, literal(-16)))
        CFI CFA_SP SP+0
        CFI CFA_XSP16 add(XSP16, 16)
        ; Saved register size: 16
        ; Auto size: 0
//  251   uint32        timeout;
//  252   uint32        macTimeout = 0;
//  253 
//  254   halAccumulatedSleepTime = 0;
        MOV     DPTR,#__Constant_0
        MOV     R0,#?V0 + 0
        LCALL   ?L_MOV_X
        MOV     DPTR,#halAccumulatedSleepTime
        MOV     R0,#?V0 + 0
        LCALL   ?L_MOV_TO_X
//  255 
//  256   /* get next OSAL timer expiration converted to 320 usec units */
//  257   timeout = HAL_SLEEP_MS_TO_320US(osal_timeout);
        MOV     ?V0 + 0,R2
        MOV     ?V0 + 1,R3
        MOV     ?V0 + 2,#0x0
        MOV     ?V0 + 3,#0x0
        MOV     DPTR,#__Constant_64
        MOV     R0,#?V0 + 4
        LCALL   ?L_MOV_X
        MOV     R0,#?V0 + 0
        MOV     R1,#?V0 + 4
        LCALL   ?L_MUL
        MOV     DPTR,#__Constant_1f
        MOV     R0,#?V0 + 0
        LCALL   ?L_ADD_X
        MOV     A,#0x5
        MOV     R0,#?V0 + 0
        LCALL   ?UL_SHR
//  258   if (timeout == 0)
        MOV     DPTR,#__Constant_0
        MOV     R0,#?V0 + 0
        LCALL   ?L_EQ_X
        JNZ     ??halSleep_0
//  259   {
//  260     timeout = MAC_PwrNextTimeout();
        ; Setup parameters for call to function MAC_PwrNextTimeout
        LCALL   ??MAC_PwrNextTimeout?relay
        MOV     ?V0 + 0,R2
        MOV     ?V0 + 1,R3
        MOV     ?V0 + 2,R4
        MOV     ?V0 + 3,R5
//  261   }
//  262   else
//  263   {
//  264     /* get next MAC timer expiration */
//  265     macTimeout = MAC_PwrNextTimeout();
//  266 
//  267     /* get lesser of two timeouts */
//  268     if ((macTimeout != 0) && (macTimeout < timeout))
//  269     {
//  270       timeout = macTimeout;
//  271     }
//  272   }
//  273 
//  274   /* HAL_SLEEP_PM2 is entered only if the timeout is zero and
//  275    * the device is a stimulated device.
//  276    */
//  277   halPwrMgtMode = (timeout == 0) ? HAL_SLEEP_DEEP : HAL_SLEEP_TIMER;
        MOV     DPTR,#__Constant_0
        MOV     R0,#?V0 + 0
        LCALL   ?L_EQ_X
        JNZ     ??halSleep_1
        MOV     A,#0x3
        MOV     DPTR,#halPwrMgtMode
        MOVX    @DPTR,A
        SJMP    ??halSleep_2
??halSleep_0:
        ; Setup parameters for call to function MAC_PwrNextTimeout
        LCALL   ??MAC_PwrNextTimeout?relay
        MOV     ?V0 + 4,R2
        MOV     ?V0 + 5,R3
        MOV     ?V0 + 6,R4
        MOV     ?V0 + 7,R5
        MOV     DPTR,#__Constant_0
        MOV     R0,#?V0 + 4
        LCALL   ?L_EQ_X
        JZ      ??halSleep_1
        MOV     R0,#?V0 + 0
        MOV     R1,#?V0 + 4
        LCALL   ?UL_GT
        JNC     ??halSleep_1
        MOV     ?V0 + 0,R2
        MOV     ?V0 + 1,R3
        MOV     ?V0 + 2,R4
        MOV     ?V0 + 3,R5
??halSleep_1:
        MOV     A,#0x2
        MOV     DPTR,#halPwrMgtMode
        MOVX    @DPTR,A
//  278 
//  279   /* DEEP sleep can only be entered when zgPollRate == 0.
//  280    * This is to eliminate any possibility of entering PM3 between
//  281    * two network timers.
//  282    */
//  283 #if ZG_BUILD_ENDDEVICE_TYPE && defined (NWK_AUTO_POLL)
//  284   if ((timeout > HAL_SLEEP_MS_TO_320US(PM_MIN_SLEEP_TIME)) ||
//  285       (timeout == 0 && zgPollRate == 0))
//  286 #else
//  287   if ((timeout > HAL_SLEEP_MS_TO_320US(PM_MIN_SLEEP_TIME)) ||
//  288       (timeout == 0))
        MOV     DPTR,#__Constant_2d
        MOV     R0,#?V0 + 4
        LCALL   ?L_MOV_X
        MOV     R0,#?V0 + 4
        MOV     R1,#?V0 + 0
        LCALL   ?UL_GT
        JNC     ??halSleep_2
        MOV     DPTR,#__Constant_0
        MOV     R0,#?V0 + 0
        LCALL   ?L_EQ_X
        JZ      $+5
        LJMP    ??halSleep_3 & 0xFFFF
//  289 #endif
//  290   {
//  291     halIntState_t ien0, ien1, ien2;
//  292 
//  293     HAL_ASSERT(HAL_INTERRUPTS_ARE_ENABLED());
??halSleep_2:
        MOV     C,0xa8.7
        JC      ??halSleep_4
        ; Setup parameters for call to function halAssertHandler
        LCALL   ??halAssertHandler?relay
//  294     HAL_DISABLE_INTERRUPTS();
??halSleep_4:
        CLR     0xa8.7
//  295 
//  296     /* always use "deep sleep" to turn off radio VREG on CC2530 */
//  297     if (MAC_PwrOffReq(MAC_PWR_SLEEP_DEEP) == MAC_SUCCESS)
        ; Setup parameters for call to function MAC_PwrOffReq
        MOV     R1,#0x2
        LCALL   ??MAC_PwrOffReq?relay
        MOV     A,R1
        JZ      $+5
        LJMP    ??halSleep_5 & 0xFFFF
//  298     {
//  299 #if ((defined HAL_KEY) && (HAL_KEY == TRUE))
//  300       /* get peripherals ready for sleep */
//  301       HalKeyEnterSleep();
        ; Setup parameters for call to function HalKeyEnterSleep
        LCALL   ??HalKeyEnterSleep?relay
//  302 #endif
//  303 
//  304 #ifdef HAL_SLEEP_DEBUG_LED
//  305       HAL_TURN_OFF_LED3();
//  306 #else
//  307       /* use this to turn LEDs off during sleep */
//  308       HalLedEnterSleep();
        ; Setup parameters for call to function HalLedEnterSleep
        LCALL   ??HalLedEnterSleep?relay
//  309 #endif
//  310 
//  311       /* enable sleep timer interrupt */
//  312       if (timeout != 0)
        MOV     DPTR,#__Constant_0
        MOV     R0,#?V0 + 0
        LCALL   ?L_EQ_X
        JZ      ??halSleep_6
//  313       {
//  314         if (timeout > HAL_SLEEP_MS_TO_320US( MAX_SLEEP_TIME ))
        MOV     DPTR,#__Constant_185197
        MOV     R0,#?V0 + 4
        LCALL   ?L_MOV_X
        MOV     R0,#?V0 + 4
        MOV     R1,#?V0 + 0
        LCALL   ?UL_GT
        JC      ??halSleep_7
//  315         {
//  316           timeout -= HAL_SLEEP_MS_TO_320US( MAX_SLEEP_TIME );
//  317           halSleepSetTimer(HAL_SLEEP_MS_TO_320US( MAX_SLEEP_TIME ));
        ; Setup parameters for call to function halSleepSetTimer
        MOV     DPTR,#__Constant_185196
        MOV     R0,#?V0 + 0
        LCALL   ?L_MOV_X
//  318         }
//  319         else
//  320         {
//  321           /* set sleep timer */
//  322           halSleepSetTimer(timeout);
??halSleep_7:
        ; Setup parameters for call to function halSleepSetTimer
        MOV     R2,?V0 + 0
        MOV     R3,?V0 + 1
        MOV     R4,?V0 + 2
        MOV     R5,?V0 + 3
        LCALL   ??halSleepSetTimer?relay
//  323         }
//  324 
//  325         /* set up sleep timer interrupt */
//  326         HAL_SLEEP_TIMER_CLEAR_INT();
        CLR     0xc0.7
//  327         HAL_SLEEP_TIMER_ENABLE_INT();
        SETB    0xa8.5
//  328       }
//  329 
//  330 #ifdef HAL_SLEEP_DEBUG_LED
//  331       if (halPwrMgtMode == CC2530_PM1)
//  332       {
//  333         HAL_TURN_ON_LED1();
//  334       }
//  335       else
//  336       {
//  337         HAL_TURN_OFF_LED1();
//  338       }
//  339 #endif
//  340 
//  341       /* save interrupt enable registers and disable all interrupts */
//  342       HAL_SLEEP_IE_BACKUP_AND_DISABLE(ien0, ien1, ien2);
??halSleep_6:
        MOV     A,0xa8
        MOV     R6,A
        MOV     A,0xb8
        MOV     R7,A
        MOV     A,0x9a
        MOV     ?V0 + 0,A
        ANL     0xa8,#0x20
        MOV     A,0xa8
        ANL     0xb8,#0x20
        MOV     A,0xb8
        ANL     0x9a,#0x12
        MOV     A,0x9a
//  343       HAL_ENABLE_INTERRUPTS();
        SETB    0xa8.7
//  344 
//  345       /* set CC2530 power mode, interrupt is disabled after this function */
//  346       HAL_SLEEP_SET_POWER_MODE(halPwrMgtMode);
        ANL     0xbe,#0xfc
        MOV     A,0xbe
        MOV     DPTR,#halPwrMgtMode
        MOVX    A,@DPTR
        ORL     A,0xbe
        MOV     0xbe,A
??halSleep_8:
        MOV     A,0xad
        MOV     C,0xE0 /* A   */.0
        JNC     ??halSleep_8
        ; Setup parameters for call to function halSetSleepMode
        LCALL   ??halSetSleepMode?relay
//  347 
//  348       /* the interrupt is disabled - see halSetSleepMode() */
//  349 
//  350       /* restore interrupt enable registers */
//  351       HAL_SLEEP_IE_RESTORE(ien0, ien1, ien2);
        MOV     0xa8,R6
        MOV     0xb8,R7
        MOV     0x9a,?V0 + 0
//  352 
//  353       /* disable sleep timer interrupt */
//  354       HAL_SLEEP_TIMER_DISABLE_INT();
        CLR     0xa8.5
//  355 
//  356       /* Calculate timer elasped */
//  357       halAccumulatedSleepTime += (HalTimerElapsed() / TICK_COUNT);
        ; Setup parameters for call to function HalTimerElapsed
        LCALL   ??HalTimerElapsed?relay
        MOV     ?V0 + 0,R2
        MOV     ?V0 + 1,R3
        MOV     ?V0 + 2,R4
        MOV     ?V0 + 3,R5
        MOV     DPTR,#halAccumulatedSleepTime
        MOV     R0,#?V0 + 0
        LCALL   ?L_ADD_TO_X
//  358 
//  359 
//  360 #ifdef HAL_SLEEP_DEBUG_LED
//  361       HAL_TURN_ON_LED3();
//  362 #else
//  363       /* use this to turn LEDs back on after sleep */
//  364       HalLedExitSleep();
        ; Setup parameters for call to function HalLedExitSleep
        LCALL   ??HalLedExitSleep?relay
//  365 #endif
//  366 
//  367 #if ((defined HAL_KEY) && (HAL_KEY == TRUE))
//  368       /* handle peripherals */
//  369       (void)HalKeyExitSleep();
        ; Setup parameters for call to function HalKeyExitSleep
        LCALL   ??HalKeyExitSleep?relay
//  370 #endif
//  371 
//  372       /* power on the MAC; blocks until completion */
//  373       MAC_PwrOnReq();
        ; Setup parameters for call to function MAC_PwrOnReq
        LCALL   ??MAC_PwrOnReq?relay
//  374 
//  375       HAL_ENABLE_INTERRUPTS();
        SETB    0xa8.7
//  376 
//  377       /* For CC2530, T2 interrupt won’t be generated when the current count is greater than
//  378        * the comparator. The interrupt is only generated when the current count is equal to
//  379        * the comparator. When the CC2530 is waking up from sleep, there is a small window
//  380        * that the count may be grater than the comparator, therefore, missing the interrupt.
//  381        * This workaround will call the T2 ISR when the current T2 count is greater than the
//  382        * comparator. The problem only occurs when POWER_SAVING is turned on, i.e. the 32KHz
//  383        * drives the chip in sleep and SYNC start is used.
//  384        */
//  385       macMcuTimer2OverflowWorkaround();
        ; Setup parameters for call to function macMcuTimer2OverflowWorkaround
        LCALL   ??macMcuTimer2OverflowWorkaround?relay
        SJMP    ??halSleep_3
//  386     }
//  387     else
//  388     {
//  389       HAL_ENABLE_INTERRUPTS();
??halSleep_5:
        SETB    0xa8.7
//  390     }
//  391   }
//  392 }
??halSleep_3:
        LJMP    ??Subroutine1_0 & 0xFFFF
        CFI EndBlock cfiBlock1
        REQUIRE IEN2
        REQUIRE _A_IEN0
        REQUIRE STLOAD
        REQUIRE _A_IEN1
        REQUIRE SLEEPCMD
        REQUIRE _A_IRCON
//  393 
//  394 /**************************************************************************************************
//  395  * @fn          halSleepSetTimer
//  396  *
//  397  * @brief       This function sets the CC2530 sleep timer compare value.  First it reads and
//  398  *              stores the value of the sleep timer; this value is used later to update OSAL
//  399  *              timers.  Then the timeout value is converted from 320 usec units to 32 kHz
//  400  *              period units and the compare value is set to the timeout.
//  401  *
//  402  * input parameters
//  403  *
//  404  * @param       timeout - Timeout value in 320 usec units.  The sleep timer compare is set to
//  405  *                        this value.
//  406  *
//  407  * output parameters
//  408  *
//  409  * None.
//  410  *
//  411  * @return      None.
//  412  **************************************************************************************************
//  413  */

        RSEG BANKED_CODE:CODE:NOROOT(0)
//  414 void halSleepSetTimer(uint32 timeout)
halSleepSetTimer:
        CFI Block cfiBlock2 Using cfiCommon0
        CFI Function halSleepSetTimer
//  415 {
        MOV     A,#-0x10
        LCALL   ?BANKED_ENTER_XDATA
        CFI DPH0 load(1, XDATA, add(CFA_XSP16, literal(-1)))
        CFI DPL0 load(1, XDATA, add(CFA_XSP16, literal(-2)))
        CFI ?BRET_EXT load(1, XDATA, add(CFA_XSP16, literal(-3)))
        CFI ?RET_HIGH load(1, XDATA, add(CFA_XSP16, literal(-4)))
        CFI ?RET_LOW load(1, XDATA, add(CFA_XSP16, literal(-5)))
        CFI R7 load(1, XDATA, add(CFA_XSP16, literal(-6)))
        CFI V7 load(1, XDATA, add(CFA_XSP16, literal(-7)))
        CFI V6 load(1, XDATA, add(CFA_XSP16, literal(-8)))
        CFI V5 load(1, XDATA, add(CFA_XSP16, literal(-9)))
        CFI V4 load(1, XDATA, add(CFA_XSP16, literal(-10)))
        CFI V3 load(1, XDATA, add(CFA_XSP16, literal(-11)))
        CFI V2 load(1, XDATA, add(CFA_XSP16, literal(-12)))
        CFI V1 load(1, XDATA, add(CFA_XSP16, literal(-13)))
        CFI V0 load(1, XDATA, add(CFA_XSP16, literal(-14)))
        CFI VB load(1, XDATA, add(CFA_XSP16, literal(-15)))
        CFI R6 load(1, XDATA, add(CFA_XSP16, literal(-16)))
        CFI CFA_SP SP+0
        CFI CFA_XSP16 add(XSP16, 16)
        ; Saved register size: 16
        ; Auto size: 4
        MOV     A,#-0x4
        LCALL   ?ALLOC_XSTACK8
        CFI CFA_XSP16 add(XSP16, 20)
        MOV     ?V0 + 0,R2
        MOV     ?V0 + 1,R3
        MOV     ?V0 + 2,R4
        MOV     ?V0 + 3,R5
//  416   uint32 ticks;
//  417 
//  418   /* read the sleep timer; ST0 must be read first */
//  419   ((uint8 *) &ticks)[UINT32_NDX0] = ST0;
        MOV     A,0x95
        MOV     DPL,?XSP + 0
        MOV     DPH,?XSP + 1
        MOVX    @DPTR,A
//  420   ((uint8 *) &ticks)[UINT32_NDX1] = ST1;
        MOV     A,0x96
        PUSH    A
        CFI CFA_SP SP+-1
        MOV     A,#0x1
        LCALL   ?XSTACK_DISP0_8
        POP     A
        CFI CFA_SP SP+0
        MOVX    @DPTR,A
//  421   ((uint8 *) &ticks)[UINT32_NDX2] = ST2;
        MOV     A,0x97
        PUSH    A
        CFI CFA_SP SP+-1
        MOV     A,#0x2
        LCALL   ?XSTACK_DISP0_8
        POP     A
        CFI CFA_SP SP+0
        MOVX    @DPTR,A
//  422   ((uint8 *) &ticks)[UINT32_NDX3] = 0;
        MOV     A,#0x3
        LCALL   ?XSTACK_DISP0_8
        CLR     A
        MOVX    @DPTR,A
//  423 
//  424   /* store value for later */
//  425   halSleepTimerStart = ticks;
        MOV     DPL,?XSP + 0
        MOV     DPH,?XSP + 1
        MOV     R0,#?V0 + 4
        LCALL   ?L_MOV_X
        MOV     DPTR,#halSleepTimerStart
        MOV     R0,#?V0 + 4
        LCALL   ?L_MOV_TO_X
//  426 
//  427   /* Compute sleep timer compare value.  The ratio of 32 kHz ticks to 320 usec ticks
//  428    * is 32768/3125 = 10.48576.  This is nearly 671/64 = 10.484375.
//  429    */
//  430   ticks += (timeout * 671) / 64;
//  431 
//  432   /* subtract the processing time spent in function halSleep() */
//  433   ticks -= HAL_SLEEP_ADJ_TICKS;
        MOV     DPTR,#__Constant_29f
        MOV     R0,#?V0 + 4
        LCALL   ?L_MOV_X
        MOV     R0,#?V0 + 0
        MOV     R1,#?V0 + 4
        LCALL   ?L_MUL
        MOV     A,#0x6
        MOV     R0,#?V0 + 0
        LCALL   ?UL_SHR
        MOV     DPTR,#__Constant_ffffffef
        MOV     R0,#?V0 + 0
        LCALL   ?L_ADD_X
        MOV     DPL,?XSP + 0
        MOV     DPH,?XSP + 1
        MOV     R0,#?V0 + 0
        LCALL   ?L_ADD_TO_X
//  434 
//  435   /* set sleep timer compare; ST0 must be written last */
//  436   ST2 = ((uint8 *) &ticks)[UINT32_NDX2];
        MOV     A,#0x2
        LCALL   ?XSTACK_DISP0_8
        MOVX    A,@DPTR
        MOV     0x97,A
//  437   ST1 = ((uint8 *) &ticks)[UINT32_NDX1];
        MOV     A,#0x1
        LCALL   ?XSTACK_DISP0_8
        MOVX    A,@DPTR
        MOV     0x96,A
//  438   ST0 = ((uint8 *) &ticks)[UINT32_NDX0];
        MOV     DPL,?XSP + 0
        MOV     DPH,?XSP + 1
        MOVX    A,@DPTR
        MOV     0x95,A
        CFI EndBlock cfiBlock2
//  439 }
        REQUIRE ?Subroutine0
        REQUIRE ST0
        REQUIRE ST1
        REQUIRE ST2
        ; // Fall through to label ?Subroutine0

        RSEG BANKED_CODE:CODE:NOROOT(0)
?Subroutine0:
        CFI Block cfiBlock3 Using cfiCommon0
        CFI NoFunction
        CFI CFA_SP SP+0
        CFI CFA_XSP16 add(XSP16, 20)
        CFI VB load(1, XDATA, add(CFA_XSP16, literal(-15)))
        CFI DPL0 load(1, XDATA, add(CFA_XSP16, literal(-2)))
        CFI DPH0 load(1, XDATA, add(CFA_XSP16, literal(-1)))
        CFI R6 load(1, XDATA, add(CFA_XSP16, literal(-16)))
        CFI R7 load(1, XDATA, add(CFA_XSP16, literal(-6)))
        CFI V0 load(1, XDATA, add(CFA_XSP16, literal(-14)))
        CFI V1 load(1, XDATA, add(CFA_XSP16, literal(-13)))
        CFI V2 load(1, XDATA, add(CFA_XSP16, literal(-12)))
        CFI V3 load(1, XDATA, add(CFA_XSP16, literal(-11)))
        CFI V4 load(1, XDATA, add(CFA_XSP16, literal(-10)))
        CFI V5 load(1, XDATA, add(CFA_XSP16, literal(-9)))
        CFI V6 load(1, XDATA, add(CFA_XSP16, literal(-8)))
        CFI V7 load(1, XDATA, add(CFA_XSP16, literal(-7)))
        CFI ?BRET_EXT load(1, XDATA, add(CFA_XSP16, literal(-3)))
        CFI ?RET_HIGH load(1, XDATA, add(CFA_XSP16, literal(-4)))
        CFI ?RET_LOW load(1, XDATA, add(CFA_XSP16, literal(-5)))
        MOV     A,#0x4
        LCALL   ?DEALLOC_XSTACK8
        CFI EndBlock cfiBlock3
        REQUIRE ??Subroutine1_0
        ; // Fall through to label ??Subroutine1_0

        RSEG BANKED_CODE:CODE:NOROOT(0)
??Subroutine1_0:
        CFI Block cfiBlock4 Using cfiCommon0
        CFI NoFunction
        CFI CFA_SP SP+0
        CFI CFA_XSP16 add(XSP16, 16)
        CFI VB load(1, XDATA, add(CFA_XSP16, literal(-15)))
        CFI DPL0 load(1, XDATA, add(CFA_XSP16, literal(-2)))
        CFI DPH0 load(1, XDATA, add(CFA_XSP16, literal(-1)))
        CFI R6 load(1, XDATA, add(CFA_XSP16, literal(-16)))
        CFI R7 load(1, XDATA, add(CFA_XSP16, literal(-6)))
        CFI V0 load(1, XDATA, add(CFA_XSP16, literal(-14)))
        CFI V1 load(1, XDATA, add(CFA_XSP16, literal(-13)))
        CFI V2 load(1, XDATA, add(CFA_XSP16, literal(-12)))
        CFI V3 load(1, XDATA, add(CFA_XSP16, literal(-11)))
        CFI V4 load(1, XDATA, add(CFA_XSP16, literal(-10)))
        CFI V5 load(1, XDATA, add(CFA_XSP16, literal(-9)))
        CFI V6 load(1, XDATA, add(CFA_XSP16, literal(-8)))
        CFI V7 load(1, XDATA, add(CFA_XSP16, literal(-7)))
        CFI ?BRET_EXT load(1, XDATA, add(CFA_XSP16, literal(-3)))
        CFI ?RET_HIGH load(1, XDATA, add(CFA_XSP16, literal(-4)))
        CFI ?RET_LOW load(1, XDATA, add(CFA_XSP16, literal(-5)))
        MOV     R7,#0x8
        LJMP    ?BANKED_LEAVE_XDATA
        CFI EndBlock cfiBlock4
//  440 
//  441 /**************************************************************************************************
//  442  * @fn          TimerElapsed
//  443  *
//  444  * @brief       Determine the number of OSAL timer ticks elapsed during sleep.
//  445  *
//  446  * input parameters
//  447  *
//  448  * @param       None.
//  449  *
//  450  * output parameters
//  451  *
//  452  * None.
//  453  *
//  454  * @return      Number of timer ticks elapsed during sleep.
//  455  **************************************************************************************************
//  456  */

        RSEG BANKED_CODE:CODE:NOROOT(0)
//  457 uint32 TimerElapsed( void )
TimerElapsed:
        CFI Block cfiBlock5 Using cfiCommon0
        CFI Function TimerElapsed
//  458 {
        MOV     A,#-0xc
        LCALL   ?BANKED_ENTER_XDATA
        CFI DPH0 load(1, XDATA, add(CFA_XSP16, literal(-1)))
        CFI DPL0 load(1, XDATA, add(CFA_XSP16, literal(-2)))
        CFI ?BRET_EXT load(1, XDATA, add(CFA_XSP16, literal(-3)))
        CFI ?RET_HIGH load(1, XDATA, add(CFA_XSP16, literal(-4)))
        CFI ?RET_LOW load(1, XDATA, add(CFA_XSP16, literal(-5)))
        CFI R7 load(1, XDATA, add(CFA_XSP16, literal(-6)))
        CFI V3 load(1, XDATA, add(CFA_XSP16, literal(-7)))
        CFI V2 load(1, XDATA, add(CFA_XSP16, literal(-8)))
        CFI V1 load(1, XDATA, add(CFA_XSP16, literal(-9)))
        CFI V0 load(1, XDATA, add(CFA_XSP16, literal(-10)))
        CFI VB load(1, XDATA, add(CFA_XSP16, literal(-11)))
        CFI R6 load(1, XDATA, add(CFA_XSP16, literal(-12)))
        CFI CFA_SP SP+0
        CFI CFA_XSP16 add(XSP16, 12)
        ; Saved register size: 12
        ; Auto size: 0
//  459   return ( halAccumulatedSleepTime );
        MOV     DPTR,#halAccumulatedSleepTime
        MOV     R0,#?V0 + 0
        LCALL   ?L_MOV_X
        MOV     R2,?V0 + 0
        MOV     R3,?V0 + 1
        MOV     R4,?V0 + 2
        MOV     R5,?V0 + 3
        MOV     R7,#0x4
        LJMP    ?BANKED_LEAVE_XDATA
        CFI EndBlock cfiBlock5
//  460 }
//  461 
//  462 /**************************************************************************************************
//  463  * @fn          HalTimerElapsed
//  464  *
//  465  * @brief       Determine the number of OSAL timer ticks elapsed during sleep.  This function
//  466  *              relies on OSAL macro TICK_COUNT to be set to 1; then ticks are calculated in
//  467  *              units of msec.
//  468  *
//  469  * input parameters
//  470  *
//  471  * @param       None.
//  472  *
//  473  * output parameters
//  474  *
//  475  * None.
//  476  *
//  477  * @return      Number of timer ticks elapsed during sleep.
//  478  **************************************************************************************************
//  479  */

        RSEG BANKED_CODE:CODE:NOROOT(0)
//  480 uint32 HalTimerElapsed( void )
HalTimerElapsed:
        CFI Block cfiBlock6 Using cfiCommon0
        CFI Function HalTimerElapsed
//  481 {
        MOV     A,#-0x10
        LCALL   ?BANKED_ENTER_XDATA
        CFI DPH0 load(1, XDATA, add(CFA_XSP16, literal(-1)))
        CFI DPL0 load(1, XDATA, add(CFA_XSP16, literal(-2)))
        CFI ?BRET_EXT load(1, XDATA, add(CFA_XSP16, literal(-3)))
        CFI ?RET_HIGH load(1, XDATA, add(CFA_XSP16, literal(-4)))
        CFI ?RET_LOW load(1, XDATA, add(CFA_XSP16, literal(-5)))
        CFI R7 load(1, XDATA, add(CFA_XSP16, literal(-6)))
        CFI V7 load(1, XDATA, add(CFA_XSP16, literal(-7)))
        CFI V6 load(1, XDATA, add(CFA_XSP16, literal(-8)))
        CFI V5 load(1, XDATA, add(CFA_XSP16, literal(-9)))
        CFI V4 load(1, XDATA, add(CFA_XSP16, literal(-10)))
        CFI V3 load(1, XDATA, add(CFA_XSP16, literal(-11)))
        CFI V2 load(1, XDATA, add(CFA_XSP16, literal(-12)))
        CFI V1 load(1, XDATA, add(CFA_XSP16, literal(-13)))
        CFI V0 load(1, XDATA, add(CFA_XSP16, literal(-14)))
        CFI VB load(1, XDATA, add(CFA_XSP16, literal(-15)))
        CFI R6 load(1, XDATA, add(CFA_XSP16, literal(-16)))
        CFI CFA_SP SP+0
        CFI CFA_XSP16 add(XSP16, 16)
        ; Saved register size: 16
        ; Auto size: 4
        MOV     A,#-0x4
        LCALL   ?ALLOC_XSTACK8
        CFI CFA_XSP16 add(XSP16, 20)
//  482   uint32 ticks;
//  483 
//  484   /* read the sleep timer; ST0 must be read first */
//  485   ((uint8 *) &ticks)[UINT32_NDX0] = ST0;
        MOV     A,0x95
        MOV     DPL,?XSP + 0
        MOV     DPH,?XSP + 1
        MOVX    @DPTR,A
//  486   ((uint8 *) &ticks)[UINT32_NDX1] = ST1;
        MOV     A,0x96
        PUSH    A
        CFI CFA_SP SP+-1
        MOV     A,#0x1
        LCALL   ?XSTACK_DISP0_8
        POP     A
        CFI CFA_SP SP+0
        MOVX    @DPTR,A
//  487   ((uint8 *) &ticks)[UINT32_NDX2] = ST2;
        MOV     A,0x97
        PUSH    A
        CFI CFA_SP SP+-1
        MOV     A,#0x2
        LCALL   ?XSTACK_DISP0_8
        POP     A
        CFI CFA_SP SP+0
        MOVX    @DPTR,A
//  488 
//  489   /* set bit 24 to handle wraparound */
//  490   ((uint8 *) &ticks)[UINT32_NDX3] = 0x01;
        MOV     A,#0x3
        LCALL   ?XSTACK_DISP0_8
        MOV     A,#0x1
        MOVX    @DPTR,A
//  491 
//  492   /* calculate elapsed time */
//  493   ticks -= halSleepTimerStart;
//  494 
//  495   /* add back the processing time spent in function halSleep() */
//  496   ticks += HAL_SLEEP_ADJ_TICKS;
//  497 
//  498   /* mask off excess if no wraparound */
//  499   ticks &= 0x00FFFFFF;
//  500 
//  501   /* Convert elapsed time in milliseconds with round.  1000/32768 = 125/4096 */
//  502   return ( ((ticks * 125) + 4095) / 4096 );
        MOV     DPL,?XSP + 0
        MOV     DPH,?XSP + 1
        MOV     R0,#?V0 + 0
        LCALL   ?L_MOV_X
        MOV     DPTR,#halSleepTimerStart
        MOV     R0,#?V0 + 0
        LCALL   ?L_SUB_X
        MOV     DPTR,#__Constant_11
        MOV     R0,#?V0 + 0
        LCALL   ?L_ADD_X
        MOV     DPTR,#__Constant_ffffff
        MOV     R0,#?V0 + 0
        LCALL   ?L_AND_X
        MOV     DPTR,#__Constant_7d
        MOV     R0,#?V0 + 4
        LCALL   ?L_MOV_X
        MOV     R0,#?V0 + 0
        MOV     R1,#?V0 + 4
        LCALL   ?L_MUL
        MOV     DPTR,#__Constant_fff
        MOV     R0,#?V0 + 0
        LCALL   ?L_ADD_X
        MOV     A,#0xc
        MOV     R0,#?V0 + 0
        LCALL   ?UL_SHR
        MOV     R2,?V0 + 0
        MOV     R3,?V0 + 1
        MOV     R4,?V0 + 2
        MOV     R5,A
        LJMP    ?Subroutine0 & 0xFFFF
        CFI EndBlock cfiBlock6
        REQUIRE ST0
        REQUIRE ST1
        REQUIRE ST2
//  503 }
//  504 
//  505 /**************************************************************************************************
//  506  * @fn          halSleepWait
//  507  *
//  508  * @brief       Perform a blocking wait.
//  509  *
//  510  * input parameters
//  511  *
//  512  * @param       duration - Duration of wait in microseconds.
//  513  *
//  514  * output parameters
//  515  *
//  516  * None.
//  517  *
//  518  * @return      None.
//  519  **************************************************************************************************
//  520  */

        RSEG BANKED_CODE:CODE:NOROOT(0)
//  521 void halSleepWait(uint16 duration)
halSleepWait:
        CFI Block cfiBlock7 Using cfiCommon0
        CFI Function halSleepWait
//  522 {
        ; Saved register size: 0
        ; Auto size: 0
        SJMP    ??halSleepWait_0
//  523   while (duration--)
//  524   {
//  525     asm("NOP");
??halSleepWait_1:
        NOP
//  526     asm("NOP");
        NOP
//  527     asm("NOP");
        NOP
//  528     asm("NOP");
        NOP
//  529     asm("NOP");
        NOP
//  530     asm("NOP");
        NOP
//  531     asm("NOP");
        NOP
//  532     asm("NOP");
        NOP
//  533   }
??halSleepWait_0:
        MOV     A,R2
        MOV     R0,A
        MOV     A,R3
        MOV     R1,A
        MOV     A,#-0x1
        ADD     A,R0
        DEC     R2
        MOV     A,#-0x1
        ADDC    A,R1
        MOV     R3,A
        MOV     A,R0
        JNZ     ??halSleepWait_2
        MOV     A,R1
??halSleepWait_2:
        JNZ     ??halSleepWait_1
//  534 }
        LJMP    ?BRET
        CFI EndBlock cfiBlock7
//  535 
//  536 /**************************************************************************************************
//  537  * @fn          halRestoreSleepLevel
//  538  *
//  539  * @brief       Restore the deepest timer sleep level.
//  540  *
//  541  * input parameters
//  542  *
//  543  * @param       None
//  544  *
//  545  * output parameters
//  546  *
//  547  *              None.
//  548  *
//  549  * @return      None.
//  550  **************************************************************************************************
//  551  */

        RSEG BANKED_CODE:CODE:NOROOT(0)
//  552 void halRestoreSleepLevel( void )
halRestoreSleepLevel:
        CFI Block cfiBlock8 Using cfiCommon0
        CFI Function halRestoreSleepLevel
//  553 {
        ; Saved register size: 0
        ; Auto size: 0
//  554   /* Stubs */
//  555 }
        LJMP    ?BRET
        CFI EndBlock cfiBlock8
//  556 
//  557 /**************************************************************************************************
//  558  * @fn          halSleepTimerIsr
//  559  *
//  560  * @brief       Sleep timer ISR.
//  561  *
//  562  * input parameters
//  563  *
//  564  * None.
//  565  *
//  566  * output parameters
//  567  *
//  568  * None.
//  569  *
//  570  * @return      None.
//  571  **************************************************************************************************
//  572  */

        RSEG NEAR_CODE:CODE:NOROOT(0)
//  573 HAL_ISR_FUNCTION(halSleepTimerIsr, ST_VECTOR)
halSleepTimerIsr:
        CFI Block cfiBlock9 Using cfiCommon1
        CFI Function halSleepTimerIsr
//  574 {
        ; Saved register size: 1
        ; Auto size: 0
//  575   HAL_SLEEP_TIMER_CLEAR_INT();
        CLR     0xc0.7
//  576   CLEAR_SLEEP_MODE();
//  577 
//  578 #ifdef HAL_SLEEP_DEBUG_POWER_MODE
//  579   halSleepInt = TRUE;
//  580 #endif
//  581 }
        RETI
        CFI EndBlock cfiBlock9
        REQUIRE _A_IRCON

        COMMON INTVEC:CODE:ROOT(0)
        ORG 43
`??halSleepTimerIsr??INTVEC 43`:
        LJMP       (halSleepTimerIsr)

        RSEG XDATA_ROM_C:CONST:REORDER:NOROOT(0)
        DATA
__Constant_0:
        DD 0

        RSEG XDATA_ROM_C:CONST:REORDER:NOROOT(0)
        DATA
__Constant_64:
        DD 100

        RSEG XDATA_ROM_C:CONST:REORDER:NOROOT(0)
        DATA
__Constant_1f:
        DD 31

        RSEG XDATA_ROM_C:CONST:REORDER:NOROOT(0)
        DATA
__Constant_2d:
        DD 45

        RSEG XDATA_ROM_C:CONST:REORDER:NOROOT(0)
        DATA
__Constant_185197:
        DD 1593751

        RSEG XDATA_ROM_C:CONST:REORDER:NOROOT(0)
        DATA
__Constant_185196:
        DD 1593750

        RSEG XDATA_ROM_C:CONST:REORDER:NOROOT(0)
        DATA
__Constant_29f:
        DD 671

        RSEG XDATA_ROM_C:CONST:REORDER:NOROOT(0)
        DATA
__Constant_ffffffef:
        DD 4294967279

        RSEG XDATA_ROM_C:CONST:REORDER:NOROOT(0)
        DATA
__Constant_11:
        DD 17

        RSEG XDATA_ROM_C:CONST:REORDER:NOROOT(0)
        DATA
__Constant_ffffff:
        DD 16777215

        RSEG XDATA_ROM_C:CONST:REORDER:NOROOT(0)
        DATA
__Constant_7d:
        DD 125

        RSEG XDATA_ROM_C:CONST:REORDER:NOROOT(0)
        DATA
__Constant_fff:
        DD 4095

        RSEG BANK_RELAYS:CODE:REORDER:NOROOT(0)
??halSetSleepMode?relay:
        LCALL   ?BDISPATCH
        DATA
        DC24    halSetSleepMode

        RSEG BANK_RELAYS:CODE:REORDER:NOROOT(0)
??halSleep?relay:
        LCALL   ?BDISPATCH
        DATA
        DC24    halSleep

        RSEG BANK_RELAYS:CODE:REORDER:NOROOT(0)
??halSleepSetTimer?relay:
        LCALL   ?BDISPATCH
        DATA
        DC24    halSleepSetTimer

        RSEG BANK_RELAYS:CODE:REORDER:NOROOT(0)
??TimerElapsed?relay:
        LCALL   ?BDISPATCH
        DATA
        DC24    TimerElapsed

        RSEG BANK_RELAYS:CODE:REORDER:NOROOT(0)
??HalTimerElapsed?relay:
        LCALL   ?BDISPATCH
        DATA
        DC24    HalTimerElapsed

        RSEG BANK_RELAYS:CODE:REORDER:NOROOT(0)
??halSleepWait?relay:
        LCALL   ?BDISPATCH
        DATA
        DC24    halSleepWait

        RSEG BANK_RELAYS:CODE:REORDER:NOROOT(0)
??halRestoreSleepLevel?relay:
        LCALL   ?BDISPATCH
        DATA
        DC24    halRestoreSleepLevel

        END
//  582 
// 
// 687 bytes in segment BANKED_CODE
//  42 bytes in segment BANK_RELAYS
//   3 bytes in segment INTVEC
//   3 bytes in segment NEAR_CODE
//  10 bytes in segment SFR_AN
//   8 bytes in segment SLEEP_CODE
//  48 bytes in segment XDATA_ROM_C
//   9 bytes in segment XDATA_Z
// 
// 740 bytes of CODE  memory (+  3 bytes shared)
//   0 bytes of CONST memory (+ 48 bytes shared)
//   0 bytes of DATA  memory (+ 10 bytes shared)
//   9 bytes of XDATA memory
//
//Errors: none
//Warnings: none
