///////////////////////////////////////////////////////////////////////////////
//                                                                            /
// IAR C/C++ Compiler V7.51A/W32 for 8051               30/May/2015  21:45:58 /
// Copyright 2004-2009 IAR Systems AB.                                        /
//                                                                            /
//    Core               =  plain                                             /
//    Code model         =  banked                                            /
//    Data model         =  large                                             /
//    Calling convention =  xdata reentrant                                   /
//    Constant location  =  data_rom                                          /
//    Dptr setup         =  1,16                                              /
//    Source file        =  C:\Texas Instruments\ZStack-CC2530-2.3.0-1.4.0\Co /
//                          mponents\hal\target\CC2530EB\hal_led.c            /
//    Command line       =  -f "C:\Texas Instruments\ZStack-CC2530-2.3.0-1.4. /
//                          0\Projects\zstack\Samples\ParkingS\CC2530DB\..\.. /
//                          \..\Tools\CC2530DB\f8wEndev.cfg" (-DCPU32MHZ      /
//                          -DROOT=__near_func -DBLINK_LEDS) -f "C:\Texas     /
//                          Instruments\ZStack-CC2530-2.3.0-1.4.0\Projects\zs /
//                          tack\Samples\ParkingS\CC2530DB\..\..\..\Tools\CC2 /
//                          530DB\f8wConfig.cfg" (-DSECURE=0                  /
//                          -DZG_SECURE_DYNAMIC=0 -DREFLECTOR                 /
//                          -DDEFAULT_CHANLIST=0x00000800                     /
//                          -DZDAPP_CONFIG_PAN_ID=0xFFFF                      /
//                          -DNWK_START_DELAY=100 -DEXTENDED_JOINING_RANDOM_M /
//                          ASK=0x007F -DBEACON_REQUEST_DELAY=100             /
//                          -DBEACON_REQ_DELAY_MASK=0x00FF                    /
//                          -DROUTE_EXPIRY_TIME=30 -DAPSC_ACK_WAIT_DURATION_P /
//                          OLLED=3000 -DNWK_INDIRECT_MSG_TIMEOUT=7           /
//                          -DMAX_RREQ_ENTRIES=8 -DAPSC_MAX_FRAME_RETRIES=3   /
//                          -DNWK_MAX_DATA_RETRIES=2                          /
//                          -DMAX_POLL_FAILURE_RETRIES=2 -DMAX_BCAST=9        /
//                          -DAPS_MAX_GROUPS=16 -DMAX_RTG_ENTRIES=40          /
//                          -DNWK_MAX_BINDING_ENTRIES=4                       /
//                          -DMAX_BINDING_CLUSTER_IDS=4                       /
//                          "-DDEFAULT_KEY={0x01, 0x03, 0x05, 0x07, 0x09,     /
//                          0x0B, 0x0D, 0x0F, 0x00, 0x02, 0x04, 0x06, 0x08,   /
//                          0x0A, 0x0C, 0x0D}" -DMAC_MAX_FRAME_SIZE=116       /
//                          "-DCONST=const __code" -DGENERIC=__generic        /
//                          -DRFD_RCVC_ALWAYS_ON=FALSE -DPOLL_RATE=1000       /
//                          -DQUEUED_POLL_RATE=100 -DRESPONSE_POLL_RATE=100)  /
//                          -DREJOIN_POLL_RATE=440 "C:\Texas                  /
//                          Instruments\ZStack-CC2530-2.3.0-1.4.0\Components\ /
//                          hal\target\CC2530EB\hal_led.c" -D NWK_AUTO_POLL   /
//                          -D ENDDEVICE -D ZTOOL_P1 -D MT_TASK -D            /
//                          MT_SYS_FUNC -D MT_ZDO_FUNC -D SerialApp_CallBack  /
//                          -D xLCD_SUPPORTED=DEBUG -lC "C:\Texas             /
//                          Instruments\ZStack-CC2530-2.3.0-1.4.0\Projects\zs /
//                          tack\Samples\ParkingS\CC2530DB\EndDeviceEB\List\" /
//                           -lA "C:\Texas Instruments\ZStack-CC2530-2.3.0-1. /
//                          4.0\Projects\zstack\Samples\ParkingS\CC2530DB\End /
//                          DeviceEB\List\" --diag_suppress Pe001,Pa010 -o    /
//                          "C:\Texas Instruments\ZStack-CC2530-2.3.0-1.4.0\P /
//                          rojects\zstack\Samples\ParkingS\CC2530DB\EndDevic /
//                          eEB\Obj\" -e --require_prototypes --debug         /
//                          --core=plain --dptr=16,1 --data_model=large       /
//                          --code_model=banked --calling_convention=xdata_re /
//                          entrant --place_constants=data_rom                /
//                          --nr_virtual_regs 16 -I "C:\Texas                 /
//                          Instruments\ZStack-CC2530-2.3.0-1.4.0\Projects\zs /
//                          tack\Samples\ParkingS\CC2530DB\" -I "C:\Texas     /
//                          Instruments\ZStack-CC2530-2.3.0-1.4.0\Projects\zs /
//                          tack\Samples\ParkingS\CC2530DB\..\SOURCE\" -I     /
//                          "C:\Texas Instruments\ZStack-CC2530-2.3.0-1.4.0\P /
//                          rojects\zstack\Samples\ParkingS\CC2530DB\..\..\.. /
//                          \ZMAIN\TI2530DB\" -I "C:\Texas                    /
//                          Instruments\ZStack-CC2530-2.3.0-1.4.0\Projects\zs /
//                          tack\Samples\ParkingS\CC2530DB\..\..\..\..\..\COM /
//                          PONENTS\MT\" -I "C:\Texas                         /
//                          Instruments\ZStack-CC2530-2.3.0-1.4.0\Projects\zs /
//                          tack\Samples\ParkingS\CC2530DB\..\..\..\..\..\COM /
//                          PONENTS\HAL\INCLUDE\" -I "C:\Texas                /
//                          Instruments\ZStack-CC2530-2.3.0-1.4.0\Projects\zs /
//                          tack\Samples\ParkingS\CC2530DB\..\..\..\..\..\COM /
//                          PONENTS\HAL\TARGET\CC2530EB\" -I "C:\Texas        /
//                          Instruments\ZStack-CC2530-2.3.0-1.4.0\Projects\zs /
//                          tack\Samples\ParkingS\CC2530DB\..\..\..\..\..\COM /
//                          PONENTS\OSAL\MCU\CCSOC\" -I "C:\Texas             /
//                          Instruments\ZStack-CC2530-2.3.0-1.4.0\Projects\zs /
//                          tack\Samples\ParkingS\CC2530DB\..\..\..\..\..\COM /
//                          PONENTS\OSAL\INCLUDE\" -I "C:\Texas               /
//                          Instruments\ZStack-CC2530-2.3.0-1.4.0\Projects\zs /
//                          tack\Samples\ParkingS\CC2530DB\..\..\..\..\..\COM /
//                          PONENTS\STACK\AF\" -I "C:\Texas                   /
//                          Instruments\ZStack-CC2530-2.3.0-1.4.0\Projects\zs /
//                          tack\Samples\ParkingS\CC2530DB\..\..\..\..\..\COM /
//                          PONENTS\STACK\NWK\" -I "C:\Texas                  /
//                          Instruments\ZStack-CC2530-2.3.0-1.4.0\Projects\zs /
//                          tack\Samples\ParkingS\CC2530DB\..\..\..\..\..\COM /
//                          PONENTS\STACK\SEC\" -I "C:\Texas                  /
//                          Instruments\ZStack-CC2530-2.3.0-1.4.0\Projects\zs /
//                          tack\Samples\ParkingS\CC2530DB\..\..\..\..\..\COM /
//                          PONENTS\STACK\SAPI\" -I "C:\Texas                 /
//                          Instruments\ZStack-CC2530-2.3.0-1.4.0\Projects\zs /
//                          tack\Samples\ParkingS\CC2530DB\..\..\..\..\..\COM /
//                          PONENTS\STACK\SYS\" -I "C:\Texas                  /
//                          Instruments\ZStack-CC2530-2.3.0-1.4.0\Projects\zs /
//                          tack\Samples\ParkingS\CC2530DB\..\..\..\..\..\COM /
//                          PONENTS\STACK\ZDO\" -I "C:\Texas                  /
//                          Instruments\ZStack-CC2530-2.3.0-1.4.0\Projects\zs /
//                          tack\Samples\ParkingS\CC2530DB\..\..\..\..\..\COM /
//                          PONENTS\ZMAC\F8W\" -I "C:\Texas                   /
//                          Instruments\ZStack-CC2530-2.3.0-1.4.0\Projects\zs /
//                          tack\Samples\ParkingS\CC2530DB\..\..\..\..\..\COM /
//                          PONENTS\ZMAC\" -I "C:\Texas                       /
//                          Instruments\ZStack-CC2530-2.3.0-1.4.0\Projects\zs /
//                          tack\Samples\ParkingS\CC2530DB\..\..\..\..\..\COM /
//                          PONENTS\SERVICES\SADDR\" -I "C:\Texas             /
//                          Instruments\ZStack-CC2530-2.3.0-1.4.0\Projects\zs /
//                          tack\Samples\ParkingS\CC2530DB\..\..\..\..\..\COM /
//                          PONENTS\SERVICES\SDATA\" -I "C:\Texas             /
//                          Instruments\ZStack-CC2530-2.3.0-1.4.0\Projects\zs /
//                          tack\Samples\ParkingS\CC2530DB\..\..\..\..\..\COM /
//                          PONENTS\MAC\INCLUDE\" -I "C:\Texas                /
//                          Instruments\ZStack-CC2530-2.3.0-1.4.0\Projects\zs /
//                          tack\Samples\ParkingS\CC2530DB\..\..\..\..\..\COM /
//                          PONENTS\MAC\HIGH_LEVEL\" -I "C:\Texas             /
//                          Instruments\ZStack-CC2530-2.3.0-1.4.0\Projects\zs /
//                          tack\Samples\ParkingS\CC2530DB\..\..\..\..\..\COM /
//                          PONENTS\MAC\LOW_LEVEL\srf04\" -I "C:\Texas        /
//                          Instruments\ZStack-CC2530-2.3.0-1.4.0\Projects\zs /
//                          tack\Samples\ParkingS\CC2530DB\..\..\..\..\..\COM /
//                          PONENTS\MAC\LOW_LEVEL\srf04\SINGLE_CHIP\" -I      /
//                          "C:\Program Files\IAR Systems\Embedded Workbench  /
//                          5.3\8051\INC\" -I "C:\Program Files\IAR           /
//                          Systems\Embedded Workbench 5.3\8051\INC\CLIB\"    /
//                          -Ohz                                              /
//    List file          =  C:\Texas Instruments\ZStack-CC2530-2.3.0-1.4.0\Pr /
//                          ojects\zstack\Samples\ParkingS\CC2530DB\EndDevice /
//                          EB\List\hal_led.s51                               /
//                                                                            /
//                                                                            /
///////////////////////////////////////////////////////////////////////////////

        NAME hal_led

        RTMODEL "__calling_convention", "xdata_reentrant"
        RTMODEL "__code_model", "banked"
        RTMODEL "__core", "plain"
        RTMODEL "__data_model", "large"
        RTMODEL "__dptr_size", "16"
        RTMODEL "__extended_stack", "disabled"
        RTMODEL "__location_for_constants", "data"
        RTMODEL "__number_of_dptrs", "1"
        RTMODEL "__rt_version", "1"

        RSEG DOVERLAY:DATA:NOROOT(0)
        RSEG IOVERLAY:IDATA:NOROOT(0)
        RSEG ISTACK:IDATA:NOROOT(0)
        RSEG PSTACK:XDATA:NOROOT(0)
        RSEG XSTACK:XDATA:NOROOT(0)

        EXTERN ??HalLedBlink?relay
        EXTERN ??HalLedOnOff?relay
        EXTERN ??HalLedSet?relay
        EXTERN ??HalLedUpdate?relay
        EXTERN ?ALLOC_XSTACK8
        EXTERN ?BANKED_ENTER_XDATA
        EXTERN ?BANKED_LEAVE_XDATA
        EXTERN ?BDISPATCH
        EXTERN ?BRET
        EXTERN ?DEALLOC_XSTACK8
        EXTERN ?L_ADD
        EXTERN ?L_MOV_TO_X
        EXTERN ?L_MOV_X
        EXTERN ?L_MUL
        EXTERN ?UC_SWITCH_SPARSE
        EXTERN ?UL_DIV_MOD
        EXTERN ?UL_GT
        EXTERN ?V0
        EXTERN ?XSP
        EXTERN ?XSTACK_DISP0_8
        EXTERN __INIT_XDATA_Z

        PUBLIC ??HalLedBlink?relay
        FUNCTION ??HalLedBlink?relay,0203H
        PUBLIC ??HalLedEnterSleep?relay
        FUNCTION ??HalLedEnterSleep?relay,0203H
        PUBLIC ??HalLedExitSleep?relay
        FUNCTION ??HalLedExitSleep?relay,0203H
        PUBLIC ??HalLedGetState?relay
        FUNCTION ??HalLedGetState?relay,0203H
        PUBLIC ??HalLedInit?relay
        FUNCTION ??HalLedInit?relay,0203H
        PUBLIC ??HalLedOnOff?relay
        FUNCTION ??HalLedOnOff?relay,0203H
        PUBLIC ??HalLedSet?relay
        FUNCTION ??HalLedSet?relay,0203H
        PUBLIC ??HalLedUpdate?relay
        FUNCTION ??HalLedUpdate?relay,0203H
        PUBLIC HalLedBlink
        FUNCTION HalLedBlink,021203H
        ARGFRAME XSTACK, 11, STACK
        ARGFRAME IOVERLAY, 0, STATIC
        ARGFRAME DOVERLAY, 0, STATIC
        LOCFRAME ISTACK, 1, STACK
        LOCFRAME XSTACK, 18, STACK
        PUBLIC HalLedEnterSleep
        FUNCTION HalLedEnterSleep,021203H
        ARGFRAME XSTACK, 0, STACK
        LOCFRAME ISTACK, 2, STACK
        PUBLIC HalLedExitSleep
        FUNCTION HalLedExitSleep,021203H
        ARGFRAME XSTACK, 0, STACK
        LOCFRAME ISTACK, 2, STACK
        PUBLIC HalLedGetState
        FUNCTION HalLedGetState,0203H
        ARGFRAME XSTACK, 0, STACK
        LOCFRAME ISTACK, 2, STACK
        PUBLIC HalLedInit
        FUNCTION HalLedInit,021203H
        ARGFRAME XSTACK, 0, STACK
        LOCFRAME ISTACK, 2, STACK
        PUBLIC HalLedOnOff
        FUNCTION HalLedOnOff,0203H
        ARGFRAME XSTACK, 30, STACK
        ARGFRAME IOVERLAY, 0, STATIC
        ARGFRAME DOVERLAY, 0, STATIC
        LOCFRAME ISTACK, 2, STACK
        PUBLIC HalLedSet
        FUNCTION HalLedSet,0a1203H
        ARGFRAME XSTACK, 30, STACK
        ARGFRAME IOVERLAY, 0, STATIC
        ARGFRAME DOVERLAY, 0, STATIC
        LOCFRAME ISTACK, 1, STACK
        LOCFRAME XSTACK, 11, STACK
        PUBLIC HalLedUpdate
        FUNCTION HalLedUpdate,021203H
        ARGFRAME XSTACK, 0, STACK
        ARGFRAME IOVERLAY, 0, STATIC
        ARGFRAME DOVERLAY, 0, STATIC
        LOCFRAME XSTACK, 30, STACK
        PUBWEAK _A_P1
        PUBWEAK __Constant_64
        
        CFI Names cfiNames0
        CFI StackFrame CFA_SP SP IDATA
        CFI StackFrame CFA_PSP16 PSP16 XDATA
        CFI StackFrame CFA_XSP16 XSP16 XDATA
        CFI StaticOverlayFrame CFA_IOVERLAY IOVERLAY
        CFI StaticOverlayFrame CFA_DOVERLAY DOVERLAY
        CFI Resource `PSW.CY`:1, `B.BR0`:1, `B.BR1`:1, `B.BR2`:1, `B.BR3`:1
        CFI Resource `B.BR4`:1, `B.BR5`:1, `B.BR6`:1, `B.BR7`:1, `VB.BR8`:1
        CFI Resource `VB.BR9`:1, `VB.BR10`:1, `VB.BR11`:1, `VB.BR12`:1
        CFI Resource `VB.BR13`:1, `VB.BR14`:1, `VB.BR15`:1, VB:8, B:8, A:8
        CFI Resource PSW:8, DPL0:8, DPH0:8, R0:8, R1:8, R2:8, R3:8, R4:8, R5:8
        CFI Resource R6:8, R7:8, V0:8, V1:8, V2:8, V3:8, V4:8, V5:8, V6:8, V7:8
        CFI Resource V8:8, V9:8, V10:8, V11:8, V12:8, V13:8, V14:8, V15:8, SP:8
        CFI Resource PSPH:8, PSPL:8, PSP16:16, XSPH:8, XSPL:8, XSP16:16
        CFI VirtualResource ?RET:24
        CFI Resource ?BRET_EXT:8
        CFI VirtualResource ?RET_HIGH:8, ?RET_LOW:8
        CFI ResourceParts PSP16 PSPH, PSPL
        CFI ResourceParts XSP16 XSPH, XSPL
        CFI ResourceParts ?RET ?BRET_EXT, ?RET_HIGH, ?RET_LOW
        CFI EndNames cfiNames0
        
        CFI Common cfiCommon0 Using cfiNames0
        CFI CodeAlign 1
        CFI DataAlign -1
        CFI ReturnAddress ?RET CODE
        CFI CFA_DOVERLAY Used
        CFI CFA_IOVERLAY Used
        CFI CFA_SP SP+-3
        CFI CFA_PSP16 PSP16+0
        CFI CFA_XSP16 XSP16+0
        CFI `PSW.CY` SameValue
        CFI `B.BR0` SameValue
        CFI `B.BR1` SameValue
        CFI `B.BR2` SameValue
        CFI `B.BR3` SameValue
        CFI `B.BR4` SameValue
        CFI `B.BR5` SameValue
        CFI `B.BR6` SameValue
        CFI `B.BR7` SameValue
        CFI `VB.BR8` SameValue
        CFI `VB.BR9` SameValue
        CFI `VB.BR10` SameValue
        CFI `VB.BR11` SameValue
        CFI `VB.BR12` SameValue
        CFI `VB.BR13` SameValue
        CFI `VB.BR14` SameValue
        CFI `VB.BR15` SameValue
        CFI VB SameValue
        CFI B Undefined
        CFI A Undefined
        CFI PSW SameValue
        CFI DPL0 SameValue
        CFI DPH0 SameValue
        CFI R0 Undefined
        CFI R1 Undefined
        CFI R2 Undefined
        CFI R3 Undefined
        CFI R4 Undefined
        CFI R5 Undefined
        CFI R6 SameValue
        CFI R7 SameValue
        CFI V0 SameValue
        CFI V1 SameValue
        CFI V2 SameValue
        CFI V3 SameValue
        CFI V4 SameValue
        CFI V5 SameValue
        CFI V6 SameValue
        CFI V7 SameValue
        CFI V8 SameValue
        CFI V9 SameValue
        CFI V10 SameValue
        CFI V11 SameValue
        CFI V12 SameValue
        CFI V13 SameValue
        CFI V14 SameValue
        CFI V15 SameValue
        CFI PSPH Undefined
        CFI PSPL Undefined
        CFI XSPH Undefined
        CFI XSPL Undefined
        CFI ?RET Concat
        CFI ?BRET_EXT Frame(CFA_SP, 3)
        CFI ?RET_HIGH Frame(CFA_SP, 2)
        CFI ?RET_LOW Frame(CFA_SP, 1)
        CFI EndCommon cfiCommon0
        
        
        CFI Common cfiCommon1 Using cfiNames0
        CFI CodeAlign 1
        CFI DataAlign -1
        CFI ReturnAddress ?RET CODE
        CFI CFA_DOVERLAY Used
        CFI CFA_IOVERLAY Used
        CFI CFA_SP SP+-2
        CFI CFA_PSP16 PSP16+0
        CFI CFA_XSP16 XSP16+0
        CFI `PSW.CY` SameValue
        CFI `B.BR0` SameValue
        CFI `B.BR1` SameValue
        CFI `B.BR2` SameValue
        CFI `B.BR3` SameValue
        CFI `B.BR4` SameValue
        CFI `B.BR5` SameValue
        CFI `B.BR6` SameValue
        CFI `B.BR7` SameValue
        CFI `VB.BR8` SameValue
        CFI `VB.BR9` SameValue
        CFI `VB.BR10` SameValue
        CFI `VB.BR11` SameValue
        CFI `VB.BR12` SameValue
        CFI `VB.BR13` SameValue
        CFI `VB.BR14` SameValue
        CFI `VB.BR15` SameValue
        CFI VB SameValue
        CFI B SameValue
        CFI A SameValue
        CFI PSW SameValue
        CFI DPL0 SameValue
        CFI DPH0 SameValue
        CFI R0 SameValue
        CFI R1 SameValue
        CFI R2 SameValue
        CFI R3 SameValue
        CFI R4 SameValue
        CFI R5 SameValue
        CFI R6 SameValue
        CFI R7 SameValue
        CFI V0 SameValue
        CFI V1 SameValue
        CFI V2 SameValue
        CFI V3 SameValue
        CFI V4 SameValue
        CFI V5 SameValue
        CFI V6 SameValue
        CFI V7 SameValue
        CFI V8 SameValue
        CFI V9 SameValue
        CFI V10 SameValue
        CFI V11 SameValue
        CFI V12 SameValue
        CFI V13 SameValue
        CFI V14 SameValue
        CFI V15 SameValue
        CFI PSPH Undefined
        CFI PSPL Undefined
        CFI XSPH Undefined
        CFI XSPL Undefined
        CFI ?RET Concat
        CFI ?BRET_EXT SameValue
        CFI ?RET_HIGH Frame(CFA_SP, 2)
        CFI ?RET_LOW Frame(CFA_SP, 1)
        CFI EndCommon cfiCommon1
        
osal_GetSystemClock SYMBOL "osal_GetSystemClock"
osal_set_event      SYMBOL "osal_set_event"
osal_start_timerEx  SYMBOL "osal_start_timerEx"
??osal_GetSystemClock?relay SYMBOL "?relay", osal_GetSystemClock
??osal_set_event?relay SYMBOL "?relay", osal_set_event
??osal_start_timerEx?relay SYMBOL "?relay", osal_start_timerEx
HalLedBlink         SYMBOL "HalLedBlink"
??HalLedBlink?relay SYMBOL "?relay", HalLedBlink
HalLedEnterSleep    SYMBOL "HalLedEnterSleep"
??HalLedEnterSleep?relay SYMBOL "?relay", HalLedEnterSleep
HalLedExitSleep     SYMBOL "HalLedExitSleep"
??HalLedExitSleep?relay SYMBOL "?relay", HalLedExitSleep
HalLedGetState      SYMBOL "HalLedGetState"
??HalLedGetState?relay SYMBOL "?relay", HalLedGetState
HalLedInit          SYMBOL "HalLedInit"
??HalLedInit?relay  SYMBOL "?relay", HalLedInit
HalLedOnOff         SYMBOL "HalLedOnOff"
??HalLedOnOff?relay SYMBOL "?relay", HalLedOnOff
HalLedSet           SYMBOL "HalLedSet"
??HalLedSet?relay   SYMBOL "?relay", HalLedSet
HalLedUpdate        SYMBOL "HalLedUpdate"
??HalLedUpdate?relay SYMBOL "?relay", HalLedUpdate

        EXTERN osal_GetSystemClock
        FUNCTION osal_GetSystemClock,0202H
        ARGFRAME ISTACK, 0, STACK
        ARGFRAME PSTACK, 0, STACK
        ARGFRAME XSTACK, 30, STACK
        ARGFRAME IOVERLAY, 0, STATIC
        ARGFRAME DOVERLAY, 0, STATIC
        EXTERN osal_set_event
        FUNCTION osal_set_event,0202H
        ARGFRAME ISTACK, 0, STACK
        ARGFRAME PSTACK, 0, STACK
        ARGFRAME XSTACK, 18, STACK
        ARGFRAME IOVERLAY, 0, STATIC
        ARGFRAME DOVERLAY, 0, STATIC
        EXTERN osal_start_timerEx
        FUNCTION osal_start_timerEx,0202H
        ARGFRAME ISTACK, 0, STACK
        ARGFRAME PSTACK, 0, STACK
        ARGFRAME XSTACK, 30, STACK
        ARGFRAME IOVERLAY, 0, STATIC
        ARGFRAME DOVERLAY, 0, STATIC
        EXTERN ??osal_GetSystemClock?relay
        FUNCTION ??osal_GetSystemClock?relay,00H
        EXTERN ??osal_set_event?relay
        FUNCTION ??osal_set_event?relay,00H
        EXTERN ??osal_start_timerEx?relay
        FUNCTION ??osal_start_timerEx?relay,00H
        EXTERN Hal_TaskID

// C:\Texas Instruments\ZStack-CC2530-2.3.0-1.4.0\Components\hal\target\CC2530EB\hal_led.c
//    1 /**************************************************************************************************
//    2   Filename:       hal_led.c
//    3   Revised:        $Date: 2009-03-13 05:45:44 -0700 (Fri, 13 Mar 2009) $
//    4   Revision:       $Revision: 19408 $
//    5 
//    6   Description:    This file contains the interface to the HAL LED Service.
//    7 
//    8 
//    9   Copyright 2006-2007 Texas Instruments Incorporated. All rights reserved.
//   10 
//   11   IMPORTANT: Your use of this Software is limited to those specific rights
//   12   granted under the terms of a software license agreement between the user
//   13   who downloaded the software, his/her employer (which must be your employer)
//   14   and Texas Instruments Incorporated (the "License").  You may not use this
//   15   Software unless you agree to abide by the terms of the License. The License
//   16   limits your use, and you acknowledge, that the Software may not be modified,
//   17   copied or distributed unless embedded on a Texas Instruments microcontroller
//   18   or used solely and exclusively in conjunction with a Texas Instruments radio
//   19   frequency transceiver, which is integrated into your product.  Other than for
//   20   the foregoing purpose, you may not use, reproduce, copy, prepare derivative
//   21   works of, modify, distribute, perform, display or sell this Software and/or
//   22   its documentation for any purpose.
//   23 
//   24   YOU FURTHER ACKNOWLEDGE AND AGREE THAT THE SOFTWARE AND DOCUMENTATION ARE
//   25   PROVIDED “AS IS” WITHOUT WARRANTY OF ANY KIND, EITHER EXPRESS OR IMPLIED,
//   26   INCLUDING WITHOUT LIMITATION, ANY WARRANTY OF MERCHANTABILITY, TITLE,
//   27   NON-INFRINGEMENT AND FITNESS FOR A PARTICULAR PURPOSE. IN NO EVENT SHALL
//   28   TEXAS INSTRUMENTS OR ITS LICENSORS BE LIABLE OR OBLIGATED UNDER CONTRACT,
//   29   NEGLIGENCE, STRICT LIABILITY, CONTRIBUTION, BREACH OF WARRANTY, OR OTHER
//   30   LEGAL EQUITABLE THEORY ANY DIRECT OR INDIRECT DAMAGES OR EXPENSES
//   31   INCLUDING BUT NOT LIMITED TO ANY INCIDENTAL, SPECIAL, INDIRECT, PUNITIVE
//   32   OR CONSEQUENTIAL DAMAGES, LOST PROFITS OR LOST DATA, COST OF PROCUREMENT
//   33   OF SUBSTITUTE GOODS, TECHNOLOGY, SERVICES, OR ANY CLAIMS BY THIRD PARTIES
//   34   (INCLUDING BUT NOT LIMITED TO ANY DEFENSE THEREOF), OR OTHER SIMILAR COSTS.
//   35 
//   36   Should you have any questions regarding your right to use this Software,
//   37   contact Texas Instruments Incorporated at www.TI.com.
//   38 **************************************************************************************************/
//   39 
//   40 /***************************************************************************************************
//   41  *                                             INCLUDES
//   42  ***************************************************************************************************/
//   43 #include "hal_mcu.h"

        ASEGN SFR_AN:DATA:NOROOT,090H
// union <unnamed> volatile __sfr _A_P1
_A_P1:
        DS 1
//   44 #include "hal_defs.h"
//   45 #include "hal_types.h"
//   46 #include "hal_drivers.h"
//   47 #include "hal_led.h"
//   48 #include "osal.h"
//   49 #include "hal_board.h"
//   50 
//   51 /***************************************************************************************************
//   52  *                                             CONSTANTS
//   53  ***************************************************************************************************/
//   54 
//   55 /***************************************************************************************************
//   56  *                                              MACROS
//   57  ***************************************************************************************************/
//   58 
//   59 /***************************************************************************************************
//   60  *                                              TYPEDEFS
//   61  ***************************************************************************************************/
//   62 /* LED control structure */
//   63 typedef struct {
//   64   uint8 mode;       /* Operation mode */
//   65   uint8 todo;       /* Blink cycles left */
//   66   uint8 onPct;      /* On cycle percentage */
//   67   uint16 time;      /* On/off cycle time (msec) */
//   68   uint32 next;      /* Time for next change */
//   69 } HalLedControl_t;
//   70 
//   71 typedef struct
//   72 {
//   73   HalLedControl_t HalLedControlTable[HAL_LED_DEFAULT_MAX_LEDS];
//   74   uint8           sleepActive;
//   75 } HalLedStatus_t;
//   76 
//   77 
//   78 /***************************************************************************************************
//   79  *                                           GLOBAL VARIABLES
//   80  ***************************************************************************************************/
//   81 
//   82 

        RSEG XDATA_Z:XDATA:NOROOT(0)
//   83 static uint8 HalLedState;              // LED state at last set/clr/blink update
HalLedState:
        DS 1
        REQUIRE __INIT_XDATA_Z
//   84 
//   85 #if HAL_LED == TRUE

        RSEG XDATA_Z:XDATA:NOROOT(0)
//   86 static uint8 HalSleepLedState;         // LED state at last set/clr/blink update
HalSleepLedState:
        DS 1
        REQUIRE __INIT_XDATA_Z

        RSEG XDATA_Z:XDATA:NOROOT(0)
//   87 static uint8 preBlinkState;            // Original State before going to blink mode
preBlinkState:
        DS 1
        REQUIRE __INIT_XDATA_Z
//   88                                        // bit 0, 1, 2, 3 represent led 0, 1, 2, 3
//   89 #endif
//   90 
//   91 #ifdef BLINK_LEDS

        RSEG XDATA_Z:XDATA:NOROOT(0)
//   92   static HalLedStatus_t HalLedStatusControl;
HalLedStatusControl:
        DS 37
        REQUIRE __INIT_XDATA_Z
//   93 #endif
//   94 
//   95 /***************************************************************************************************
//   96  *                                            LOCAL FUNCTION
//   97  ***************************************************************************************************/
//   98 #if (HAL_LED == TRUE)
//   99 void HalLedUpdate (void);
//  100 void HalLedOnOff (uint8 leds, uint8 mode);
//  101 #endif /* HAL_LED */
//  102 
//  103 /***************************************************************************************************
//  104  *                                            FUNCTIONS - API
//  105  ***************************************************************************************************/
//  106 
//  107 /***************************************************************************************************
//  108  * @fn      HalLedInit
//  109  *
//  110  * @brief   Initialize LED Service
//  111  *
//  112  * @param   init - pointer to void that contains the initialized value
//  113  *
//  114  * @return  None
//  115  ***************************************************************************************************/

        RSEG BANKED_CODE:CODE:NOROOT(0)
//  116 void HalLedInit (void)
HalLedInit:
        CFI Block cfiBlock0 Using cfiCommon0
        CFI Function HalLedInit
//  117 {
        FUNCALL HalLedInit, HalLedSet
        LOCFRAME ISTACK, 2, STACK
        LOCFRAME PSTACK, 0, STACK
        LOCFRAME XSTACK, 0, STACK
        LOCFRAME IOVERLAY, 0, STATIC
        LOCFRAME DOVERLAY, 0, STATIC
        ARGFRAME ISTACK, 2, STACK
        ARGFRAME PSTACK, 0, STACK
        ARGFRAME XSTACK, 0, STACK
        ARGFRAME IOVERLAY, 0, STATIC
        ARGFRAME DOVERLAY, 0, STATIC
        PUSH    DPL
        CFI DPL0 Frame(CFA_SP, 4)
        CFI CFA_SP SP+-4
        PUSH    DPH
        CFI DPH0 Frame(CFA_SP, 5)
        CFI CFA_SP SP+-5
        ; Saved register size: 2
        ; Auto size: 0
//  118 #if (HAL_LED == TRUE)
//  119   /* Initialize all LEDs to OFF */
//  120   HalLedSet (HAL_LED_ALL, HAL_LED_MODE_OFF);
        ; Setup parameters for call to function HalLedSet
        MOV     R2,#0x0
        MOV     R1,#0xf
        LCALL   ??HalLedSet?relay
//  121 #endif /* HAL_LED */
//  122 #ifdef BLINK_LEDS
//  123   /* Initialize sleepActive to FALSE */
//  124   HalLedStatusControl.sleepActive = FALSE;
        LJMP    ?Subroutine4 & 0xFFFF
        CFI EndBlock cfiBlock0
//  125 #endif
//  126 }
//  127 
//  128 /***************************************************************************************************
//  129  * @fn      HalLedSet
//  130  *
//  131  * @brief   Tun ON/OFF/TOGGLE given LEDs
//  132  *
//  133  * @param   led - bit mask value of leds to be turned ON/OFF/TOGGLE
//  134  *          mode - BLINK, FLASH, TOGGLE, ON, OFF
//  135  * @return  None
//  136  ***************************************************************************************************/

        RSEG BANKED_CODE:CODE:NOROOT(0)
//  137 uint8 HalLedSet (uint8 leds, uint8 mode)
HalLedSet:
        CFI Block cfiBlock1 Using cfiCommon0
        CFI Function HalLedSet
//  138 {
        FUNCALL HalLedSet, HalLedBlink
        LOCFRAME ISTACK, 0, STACK
        LOCFRAME PSTACK, 0, STACK
        LOCFRAME XSTACK, 11, STACK
        LOCFRAME IOVERLAY, 0, STATIC
        LOCFRAME DOVERLAY, 0, STATIC
        ARGFRAME ISTACK, 0, STACK
        ARGFRAME PSTACK, 0, STACK
        ARGFRAME XSTACK, 11, STACK
        ARGFRAME IOVERLAY, 0, STATIC
        ARGFRAME DOVERLAY, 0, STATIC
        FUNCALL HalLedSet, HalLedBlink
        LOCFRAME ISTACK, 0, STACK
        LOCFRAME PSTACK, 0, STACK
        LOCFRAME XSTACK, 11, STACK
        LOCFRAME IOVERLAY, 0, STATIC
        LOCFRAME DOVERLAY, 0, STATIC
        ARGFRAME ISTACK, 0, STACK
        ARGFRAME PSTACK, 0, STACK
        ARGFRAME XSTACK, 11, STACK
        ARGFRAME IOVERLAY, 0, STATIC
        ARGFRAME DOVERLAY, 0, STATIC
        FUNCALL HalLedSet, HalLedOnOff
        LOCFRAME ISTACK, 0, STACK
        LOCFRAME PSTACK, 0, STACK
        LOCFRAME XSTACK, 11, STACK
        LOCFRAME IOVERLAY, 0, STATIC
        LOCFRAME DOVERLAY, 0, STATIC
        ARGFRAME ISTACK, 0, STACK
        ARGFRAME PSTACK, 0, STACK
        ARGFRAME XSTACK, 11, STACK
        ARGFRAME IOVERLAY, 0, STATIC
        ARGFRAME DOVERLAY, 0, STATIC
        MOV     A,#-0xb
        LCALL   ?BANKED_ENTER_XDATA
        CFI DPH0 load(1, XDATA, add(CFA_XSP16, literal(-1)))
        CFI DPL0 load(1, XDATA, add(CFA_XSP16, literal(-2)))
        CFI ?BRET_EXT load(1, XDATA, add(CFA_XSP16, literal(-3)))
        CFI ?RET_HIGH load(1, XDATA, add(CFA_XSP16, literal(-4)))
        CFI ?RET_LOW load(1, XDATA, add(CFA_XSP16, literal(-5)))
        CFI R7 load(1, XDATA, add(CFA_XSP16, literal(-6)))
        CFI V2 load(1, XDATA, add(CFA_XSP16, literal(-7)))
        CFI V1 load(1, XDATA, add(CFA_XSP16, literal(-8)))
        CFI V0 load(1, XDATA, add(CFA_XSP16, literal(-9)))
        CFI VB load(1, XDATA, add(CFA_XSP16, literal(-10)))
        CFI R6 load(1, XDATA, add(CFA_XSP16, literal(-11)))
        CFI CFA_SP SP+0
        CFI CFA_XSP16 add(XSP16, 11)
        ; Saved register size: 11
        ; Auto size: 0
        MOV     ?V0 + 0,R1
        MOV     ?V0 + 1,R2
//  139 
//  140 #if (defined (BLINK_LEDS)) && (HAL_LED == TRUE)
//  141   uint8 led;
//  142   HalLedControl_t *sts;
//  143 
//  144   switch (mode)
        MOV     A,R2
        LCALL   ?UC_SWITCH_SPARSE
`?<Jumptable for HalLedSet>_0`:
        DATA
        DB        1
        DB        0
        DB        1
        DW        ??HalLedSet_0
        DB        3
        DB        2
        DW        ??HalLedSet_1
        DB        4
        DW        ??HalLedSet_2
        DB        8
        DW        ??HalLedSet_0
        DW        ??HalLedSet_3
        CODE
//  145   {
//  146     case HAL_LED_MODE_BLINK:
//  147       /* Default blink, 1 time, D% duty cycle */
//  148       HalLedBlink (leds, 1, HAL_LED_DEFAULT_DUTY_CYCLE, HAL_LED_DEFAULT_FLASH_TIME);
??HalLedSet_1:
        ; Setup parameters for call to function HalLedBlink
        MOV     R4,#-0x18
        MOV     R5,#0x3
        MOV     R3,#0x5
        MOV     R2,#0x1
??HalLedSet_4:
        LCALL   ??HalLedBlink?relay
//  149       break;
//  150 
//  151     case HAL_LED_MODE_FLASH:
//  152       /* Default flash, N times, D% duty cycle */
//  153       HalLedBlink (leds, HAL_LED_DEFAULT_FLASH_COUNT, HAL_LED_DEFAULT_DUTY_CYCLE, HAL_LED_DEFAULT_FLASH_TIME);
//  154       break;
//  155 
//  156     case HAL_LED_MODE_ON:
//  157     case HAL_LED_MODE_OFF:
//  158     case HAL_LED_MODE_TOGGLE:
//  159 
//  160       led = HAL_LED_1;
//  161       leds &= HAL_LED_ALL;
//  162       sts = HalLedStatusControl.HalLedControlTable;
//  163 
//  164       while (leds)
//  165       {
//  166         if (leds & led)
//  167         {
//  168           if (mode != HAL_LED_MODE_TOGGLE)
//  169           {
//  170             sts->mode = mode;  /* ON or OFF */
//  171           }
//  172           else
//  173           {
//  174             sts->mode ^= HAL_LED_MODE_ON;  /* Toggle */
//  175           }
//  176           HalLedOnOff (led, sts->mode);
//  177           leds ^= led;
//  178         }
//  179         led <<= 1;
//  180         sts++;
//  181       }
//  182       break;
//  183 
//  184     default:
//  185       break;
//  186   }
//  187 
//  188 #elif (HAL_LED == TRUE)
//  189   LedOnOff(leds, mode);
//  190 #else
//  191   // HAL LED is disabled, suppress unused argument warnings
//  192   (void) leds;
//  193   (void) mode;
//  194 #endif /* BLINK_LEDS && HAL_LED   */
//  195 
//  196   return ( HalLedState );
??HalLedSet_3:
        MOV     DPTR,#HalLedState
        MOVX    A,@DPTR
        MOV     R1,A
        MOV     R7,#0x3
        LJMP    ?BANKED_LEAVE_XDATA
??HalLedSet_2:
        ; Setup parameters for call to function HalLedBlink
        MOV     R4,#-0x18
        MOV     R5,#0x3
        MOV     R3,#0x5
        MOV     R2,#0x32
        SJMP    ??HalLedSet_4
??HalLedSet_0:
        MOV     ?V0 + 2,#0x1
        ANL     ?V0 + 0,#0xf
        MOV     R6,#(HalLedStatusControl & 0xff)
        MOV     R7,#((HalLedStatusControl >> 8) & 0xff)
        SJMP    ??HalLedSet_5
??HalLedSet_6:
        MOVX    A,@DPTR
        XRL     A,#0x1
??HalLedSet_7:
        MOVX    @DPTR,A
        ; Setup parameters for call to function HalLedOnOff
        MOVX    A,@DPTR
        MOV     R2,A
        MOV     R1,?V0 + 2
        LCALL   ??HalLedOnOff?relay
        MOV     A,?V0 + 2
        XRL     ?V0 + 0,A
??HalLedSet_8:
        MOV     A,?V0 + 2
        CLR     C
        RLC     A
        MOV     ?V0 + 2,A
        MOV     A,R6
        ADD     A,#0x9
        MOV     R6,A
        MOV     A,R7
        ADDC    A,#0x0
        MOV     R7,A
??HalLedSet_5:
        MOV     A,?V0 + 0
        JZ      ??HalLedSet_3
        MOV     A,?V0 + 2
        ANL     A,?V0 + 0
        JZ      ??HalLedSet_8
        MOV     A,#0x8
        XRL     A,?V0 + 1
        MOV     DPL,R6
        MOV     DPH,R7
        JZ      ??HalLedSet_6
        MOV     A,?V0 + 1
        SJMP    ??HalLedSet_7
        CFI EndBlock cfiBlock1
//  197 
//  198 }
//  199 
//  200 /***************************************************************************************************
//  201  * @fn      HalLedBlink
//  202  *
//  203  * @brief   Blink the leds
//  204  *
//  205  * @param   leds       - bit mask value of leds to be blinked
//  206  *          numBlinks  - number of blinks
//  207  *          percent    - the percentage in each period where the led
//  208  *                       will be on
//  209  *          period     - length of each cycle in milliseconds
//  210  *
//  211  * @return  None
//  212  ***************************************************************************************************/

        RSEG BANKED_CODE:CODE:NOROOT(0)
//  213 void HalLedBlink (uint8 leds, uint8 numBlinks, uint8 percent, uint16 period)
HalLedBlink:
        CFI Block cfiBlock2 Using cfiCommon0
        CFI Function HalLedBlink
//  214 {
        FUNCALL HalLedBlink, osal_GetSystemClock
        LOCFRAME ISTACK, 0, STACK
        LOCFRAME PSTACK, 0, STACK
        LOCFRAME XSTACK, 18, STACK
        LOCFRAME IOVERLAY, 0, STATIC
        LOCFRAME DOVERLAY, 0, STATIC
        ARGFRAME ISTACK, 0, STACK
        ARGFRAME PSTACK, 0, STACK
        ARGFRAME XSTACK, 18, STACK
        ARGFRAME IOVERLAY, 0, STATIC
        ARGFRAME DOVERLAY, 0, STATIC
        FUNCALL HalLedBlink, osal_set_event
        LOCFRAME ISTACK, 0, STACK
        LOCFRAME PSTACK, 0, STACK
        LOCFRAME XSTACK, 18, STACK
        LOCFRAME IOVERLAY, 0, STATIC
        LOCFRAME DOVERLAY, 0, STATIC
        ARGFRAME ISTACK, 0, STACK
        ARGFRAME PSTACK, 0, STACK
        ARGFRAME XSTACK, 18, STACK
        ARGFRAME IOVERLAY, 0, STATIC
        ARGFRAME DOVERLAY, 0, STATIC
        FUNCALL HalLedBlink, HalLedSet
        LOCFRAME ISTACK, 0, STACK
        LOCFRAME PSTACK, 0, STACK
        LOCFRAME XSTACK, 18, STACK
        LOCFRAME IOVERLAY, 0, STATIC
        LOCFRAME DOVERLAY, 0, STATIC
        ARGFRAME ISTACK, 0, STACK
        ARGFRAME PSTACK, 0, STACK
        ARGFRAME XSTACK, 18, STACK
        ARGFRAME IOVERLAY, 0, STATIC
        ARGFRAME DOVERLAY, 0, STATIC
        FUNCALL HalLedBlink, HalLedSet
        LOCFRAME ISTACK, 0, STACK
        LOCFRAME PSTACK, 0, STACK
        LOCFRAME XSTACK, 18, STACK
        LOCFRAME IOVERLAY, 0, STATIC
        LOCFRAME DOVERLAY, 0, STATIC
        ARGFRAME ISTACK, 0, STACK
        ARGFRAME PSTACK, 0, STACK
        ARGFRAME XSTACK, 18, STACK
        ARGFRAME IOVERLAY, 0, STATIC
        ARGFRAME DOVERLAY, 0, STATIC
        MOV     A,#-0x12
        LCALL   ?BANKED_ENTER_XDATA
        CFI DPH0 load(1, XDATA, add(CFA_XSP16, literal(-1)))
        CFI DPL0 load(1, XDATA, add(CFA_XSP16, literal(-2)))
        CFI ?BRET_EXT load(1, XDATA, add(CFA_XSP16, literal(-3)))
        CFI ?RET_HIGH load(1, XDATA, add(CFA_XSP16, literal(-4)))
        CFI ?RET_LOW load(1, XDATA, add(CFA_XSP16, literal(-5)))
        CFI R7 load(1, XDATA, add(CFA_XSP16, literal(-6)))
        CFI V9 load(1, XDATA, add(CFA_XSP16, literal(-7)))
        CFI V8 load(1, XDATA, add(CFA_XSP16, literal(-8)))
        CFI V7 load(1, XDATA, add(CFA_XSP16, literal(-9)))
        CFI V6 load(1, XDATA, add(CFA_XSP16, literal(-10)))
        CFI V5 load(1, XDATA, add(CFA_XSP16, literal(-11)))
        CFI V4 load(1, XDATA, add(CFA_XSP16, literal(-12)))
        CFI V3 load(1, XDATA, add(CFA_XSP16, literal(-13)))
        CFI V2 load(1, XDATA, add(CFA_XSP16, literal(-14)))
        CFI V1 load(1, XDATA, add(CFA_XSP16, literal(-15)))
        CFI V0 load(1, XDATA, add(CFA_XSP16, literal(-16)))
        CFI VB load(1, XDATA, add(CFA_XSP16, literal(-17)))
        CFI R6 load(1, XDATA, add(CFA_XSP16, literal(-18)))
        CFI CFA_SP SP+0
        CFI CFA_XSP16 add(XSP16, 18)
        ; Saved register size: 18
        ; Auto size: 0
        MOV     ?V0 + 4,R1
        MOV     ?V0 + 5,R2
        MOV     A,R3
        MOV     R7,A
        MOV     ?V0 + 8,R4
        MOV     ?V0 + 9,R5
//  215 #if (defined (BLINK_LEDS)) && (HAL_LED == TRUE)
//  216   uint8 led;
//  217   HalLedControl_t *sts;
//  218 
//  219   if (leds && percent && period)
        MOV     A,R1
        JNZ     $+5
        LJMP    ??HalLedBlink_0 & 0xFFFF
        MOV     A,R7
        JNZ     $+5
        LJMP    ??HalLedBlink_0 & 0xFFFF
        MOV     A,R4
        JNZ     ??HalLedBlink_1
        MOV     A,R5
??HalLedBlink_1:
        JNZ     $+5
        LJMP    ??HalLedBlink_0 & 0xFFFF
//  220   {
//  221     if (percent < 100)
        MOV     A,R7
        CLR     C
        SUBB    A,#0x64
        JC      $+5
        LJMP    ??HalLedBlink_2 & 0xFFFF
//  222     {
//  223       led = HAL_LED_1;
        MOV     R6,#0x1
//  224       leds &= HAL_LED_ALL;
        ANL     ?V0 + 4,#0xf
//  225       sts = HalLedStatusControl.HalLedControlTable;
        MOV     ?V0 + 6,#(HalLedStatusControl & 0xff)
        MOV     ?V0 + 7,#((HalLedStatusControl >> 8) & 0xff)
        SJMP    ??HalLedBlink_3
//  226 
//  227       while (leds)
//  228       {
//  229         if (leds & led)
??HalLedBlink_4:
        MOV     A,R6
        ANL     A,?V0 + 4
        JZ      ??HalLedBlink_5
//  230         {
//  231           /* Store the current state of the led before going to blinking */
//  232           preBlinkState |= (led & HalLedState);
        MOV     DPTR,#HalLedState
        MOVX    A,@DPTR
        ANL     A,R6
        MOV     R2,A
        MOV     DPTR,#preBlinkState
        MOVX    A,@DPTR
        ORL     A,R2
        MOVX    @DPTR,A
//  233 
//  234           sts->mode  = HAL_LED_MODE_OFF;                    /* Stop previous blink */
        CLR     A
        MOV     DPL,?V0 + 6
        MOV     DPH,?V0 + 7
        MOVX    @DPTR,A
//  235           sts->time  = period;                              /* Time for one on/off cycle */
        INC     DPTR
        INC     DPTR
        INC     DPTR
        MOV     A,?V0 + 8
        MOVX    @DPTR,A
        INC     DPTR
        MOV     A,?V0 + 9
        MOVX    @DPTR,A
//  236           sts->onPct = percent;                             /* % of cycle LED is on */
        MOV     A,R7
        MOV     DPL,?V0 + 6
        MOV     DPH,?V0 + 7
        INC     DPTR
        INC     DPTR
        MOVX    @DPTR,A
//  237           sts->todo  = numBlinks;                           /* Number of blink cycles */
        MOV     DPL,?V0 + 6
        MOV     DPH,?V0 + 7
        INC     DPTR
        MOV     A,?V0 + 5
        MOVX    @DPTR,A
//  238           if (!numBlinks) sts->mode |= HAL_LED_MODE_FLASH;  /* Continuous */
        JNZ     ??HalLedBlink_6
        MOV     A,#0x4
        MOV     DPL,?V0 + 6
        MOV     DPH,?V0 + 7
        MOVX    @DPTR,A
//  239           sts->next = osal_GetSystemClock();                /* Start now */
??HalLedBlink_6:
        ; Setup parameters for call to function osal_GetSystemClock
        LCALL   ??osal_GetSystemClock?relay
        MOV     ?V0 + 0,R2
        MOV     ?V0 + 1,R3
        MOV     ?V0 + 2,R4
        MOV     ?V0 + 3,R5
        MOV     DPL,?V0 + 6
        MOV     DPH,?V0 + 7
        INC     DPTR
        INC     DPTR
        INC     DPTR
        INC     DPTR
        INC     DPTR
        MOV     R0,#?V0 + 0
        LCALL   ?L_MOV_TO_X
//  240           sts->mode |= HAL_LED_MODE_BLINK;                  /* Enable blinking */
        MOV     DPL,?V0 + 6
        MOV     DPH,?V0 + 7
        MOVX    A,@DPTR
        SETB    0xE0 /* A   */.1
        MOVX    @DPTR,A
//  241           leds ^= led;
        MOV     A,R6
        XRL     ?V0 + 4,A
//  242         }
//  243         led <<= 1;
??HalLedBlink_5:
        MOV     A,R6
        CLR     C
        RLC     A
        MOV     R6,A
//  244         sts++;
        MOV     A,?V0 + 6
        ADD     A,#0x9
        MOV     ?V0 + 6,A
        MOV     A,?V0 + 7
        ADDC    A,#0x0
        MOV     ?V0 + 7,A
//  245       }
??HalLedBlink_3:
        MOV     A,?V0 + 4
        JNZ     ??HalLedBlink_4
//  246       osal_set_event (Hal_TaskID, HAL_LED_BLINK_EVENT);
        ; Setup parameters for call to function osal_set_event
        MOV     R2,#0x2
        MOV     R3,#0x0
        MOV     DPTR,#Hal_TaskID
        MOVX    A,@DPTR
        MOV     R1,A
        LCALL   ??osal_set_event?relay
        SJMP    ??HalLedBlink_7
//  247     }
//  248     else
//  249     {
//  250       HalLedSet (leds, HAL_LED_MODE_ON);                    /* >= 100%, turn on */
??HalLedBlink_2:
        ; Setup parameters for call to function HalLedSet
        MOV     R2,#0x1
        SJMP    ??HalLedBlink_8
//  251     }
//  252   }
//  253   else
//  254   {
//  255     HalLedSet (leds, HAL_LED_MODE_OFF);                     /* No on time, turn off */
??HalLedBlink_0:
        ; Setup parameters for call to function HalLedSet
        MOV     R2,#0x0
??HalLedBlink_8:
        LCALL   ??HalLedSet?relay
//  256   }
//  257 #elif (HAL_LED == TRUE)
//  258   percent = (leds & HalLedState) ? HAL_LED_MODE_OFF : HAL_LED_MODE_ON;
//  259   HalLedOnOff (leds, percent);                              /* Toggle */
//  260 #else
//  261   // HAL LED is disabled, suppress unused argument warnings
//  262   (void) leds;
//  263   (void) numBlinks;
//  264   (void) percent;
//  265   (void) period;
//  266 #endif /* BLINK_LEDS && HAL_LED */
//  267 }
??HalLedBlink_7:
        MOV     R7,#0xa
        LJMP    ?BANKED_LEAVE_XDATA
        CFI EndBlock cfiBlock2
//  268 
//  269 #if (HAL_LED == TRUE)
//  270 /***************************************************************************************************
//  271  * @fn      HalLedUpdate
//  272  *
//  273  * @brief   Update leds to work with blink
//  274  *
//  275  * @param   none
//  276  *
//  277  * @return  none
//  278  ***************************************************************************************************/

        RSEG BANKED_CODE:CODE:NOROOT(0)
//  279 void HalLedUpdate (void)
HalLedUpdate:
        CFI Block cfiBlock3 Using cfiCommon0
        CFI Function HalLedUpdate
//  280 {
        FUNCALL HalLedUpdate, osal_GetSystemClock
        LOCFRAME ISTACK, 0, STACK
        LOCFRAME PSTACK, 0, STACK
        LOCFRAME XSTACK, 30, STACK
        LOCFRAME IOVERLAY, 0, STATIC
        LOCFRAME DOVERLAY, 0, STATIC
        ARGFRAME ISTACK, 0, STACK
        ARGFRAME PSTACK, 0, STACK
        ARGFRAME XSTACK, 30, STACK
        ARGFRAME IOVERLAY, 0, STATIC
        ARGFRAME DOVERLAY, 0, STATIC
        FUNCALL HalLedUpdate, HalLedOnOff
        LOCFRAME ISTACK, 0, STACK
        LOCFRAME PSTACK, 0, STACK
        LOCFRAME XSTACK, 30, STACK
        LOCFRAME IOVERLAY, 0, STATIC
        LOCFRAME DOVERLAY, 0, STATIC
        ARGFRAME ISTACK, 0, STACK
        ARGFRAME PSTACK, 0, STACK
        ARGFRAME XSTACK, 30, STACK
        ARGFRAME IOVERLAY, 0, STATIC
        ARGFRAME DOVERLAY, 0, STATIC
        FUNCALL HalLedUpdate, HalLedOnOff
        LOCFRAME ISTACK, 0, STACK
        LOCFRAME PSTACK, 0, STACK
        LOCFRAME XSTACK, 30, STACK
        LOCFRAME IOVERLAY, 0, STATIC
        LOCFRAME DOVERLAY, 0, STATIC
        ARGFRAME ISTACK, 0, STACK
        ARGFRAME PSTACK, 0, STACK
        ARGFRAME XSTACK, 30, STACK
        ARGFRAME IOVERLAY, 0, STATIC
        ARGFRAME DOVERLAY, 0, STATIC
        FUNCALL HalLedUpdate, HalLedSet
        LOCFRAME ISTACK, 0, STACK
        LOCFRAME PSTACK, 0, STACK
        LOCFRAME XSTACK, 30, STACK
        LOCFRAME IOVERLAY, 0, STATIC
        LOCFRAME DOVERLAY, 0, STATIC
        ARGFRAME ISTACK, 0, STACK
        ARGFRAME PSTACK, 0, STACK
        ARGFRAME XSTACK, 30, STACK
        ARGFRAME IOVERLAY, 0, STATIC
        ARGFRAME DOVERLAY, 0, STATIC
        FUNCALL HalLedUpdate, osal_start_timerEx
        LOCFRAME ISTACK, 0, STACK
        LOCFRAME PSTACK, 0, STACK
        LOCFRAME XSTACK, 30, STACK
        LOCFRAME IOVERLAY, 0, STATIC
        LOCFRAME DOVERLAY, 0, STATIC
        ARGFRAME ISTACK, 0, STACK
        ARGFRAME PSTACK, 0, STACK
        ARGFRAME XSTACK, 30, STACK
        ARGFRAME IOVERLAY, 0, STATIC
        ARGFRAME DOVERLAY, 0, STATIC
        MOV     A,#-0x18
        LCALL   ?BANKED_ENTER_XDATA
        CFI DPH0 load(1, XDATA, add(CFA_XSP16, literal(-1)))
        CFI DPL0 load(1, XDATA, add(CFA_XSP16, literal(-2)))
        CFI ?BRET_EXT load(1, XDATA, add(CFA_XSP16, literal(-3)))
        CFI ?RET_HIGH load(1, XDATA, add(CFA_XSP16, literal(-4)))
        CFI ?RET_LOW load(1, XDATA, add(CFA_XSP16, literal(-5)))
        CFI R7 load(1, XDATA, add(CFA_XSP16, literal(-6)))
        CFI V15 load(1, XDATA, add(CFA_XSP16, literal(-7)))
        CFI V14 load(1, XDATA, add(CFA_XSP16, literal(-8)))
        CFI V13 load(1, XDATA, add(CFA_XSP16, literal(-9)))
        CFI V12 load(1, XDATA, add(CFA_XSP16, literal(-10)))
        CFI V11 load(1, XDATA, add(CFA_XSP16, literal(-11)))
        CFI V10 load(1, XDATA, add(CFA_XSP16, literal(-12)))
        CFI V9 load(1, XDATA, add(CFA_XSP16, literal(-13)))
        CFI V8 load(1, XDATA, add(CFA_XSP16, literal(-14)))
        CFI V7 load(1, XDATA, add(CFA_XSP16, literal(-15)))
        CFI V6 load(1, XDATA, add(CFA_XSP16, literal(-16)))
        CFI V5 load(1, XDATA, add(CFA_XSP16, literal(-17)))
        CFI V4 load(1, XDATA, add(CFA_XSP16, literal(-18)))
        CFI V3 load(1, XDATA, add(CFA_XSP16, literal(-19)))
        CFI V2 load(1, XDATA, add(CFA_XSP16, literal(-20)))
        CFI V1 load(1, XDATA, add(CFA_XSP16, literal(-21)))
        CFI V0 load(1, XDATA, add(CFA_XSP16, literal(-22)))
        CFI VB load(1, XDATA, add(CFA_XSP16, literal(-23)))
        CFI R6 load(1, XDATA, add(CFA_XSP16, literal(-24)))
        CFI CFA_SP SP+0
        CFI CFA_XSP16 add(XSP16, 24)
        ; Saved register size: 24
        ; Auto size: 6
        MOV     A,#-0x6
        LCALL   ?ALLOC_XSTACK8
        CFI CFA_XSP16 add(XSP16, 30)
//  281   uint8 led;
//  282   uint8 pct;
//  283   uint8 leds;
//  284   HalLedControl_t *sts;
//  285   uint32 time;
//  286   uint16 next;
//  287   uint16 wait;
//  288 
//  289   next = 0;
        MOV     A,#0x2
        LCALL   ?XSTACK_DISP0_8
        CLR     A
        MOVX    @DPTR,A
        INC     DPTR
        MOVX    @DPTR,A
//  290   led  = HAL_LED_1;
        MOV     ?V0 + 2,#0x1
//  291   leds = HAL_LED_ALL;
        MOV     ?V0 + 3,#0xf
//  292   sts = HalLedStatusControl.HalLedControlTable;
        MOV     DPL,?XSP + 0
        MOV     DPH,?XSP + 1
        MOV     A,#(HalLedStatusControl & 0xff)
        MOVX    @DPTR,A
        INC     DPTR
        MOV     A,#((HalLedStatusControl >> 8) & 0xff)
        MOVX    @DPTR,A
//  293 
//  294   /* Check if sleep is active or not */
//  295   if (!HalLedStatusControl.sleepActive)
        MOV     DPTR,#(HalLedStatusControl + 36)
        MOVX    A,@DPTR
        JZ      $+5
        LJMP    ??HalLedUpdate_0 & 0xFFFF
//  296   {
//  297     while (leds)
//  298     {
//  299       if (leds & led)
??HalLedUpdate_1:
        MOV     A,?V0 + 2
        ANL     A,?V0 + 3
        JNZ     $+5
        LJMP    ??HalLedUpdate_2 & 0xFFFF
//  300       {
//  301         if (sts->mode & HAL_LED_MODE_BLINK)
        LCALL   ?Subroutine0 & 0xFFFF
??CrossCallReturnLabel_0:
        JC      $+5
        LJMP    ??HalLedUpdate_3 & 0xFFFF
//  302         {
//  303           time = osal_GetSystemClock();
        ; Setup parameters for call to function osal_GetSystemClock
        LCALL   ??osal_GetSystemClock?relay
        MOV     ?V0 + 4,R2
        MOV     ?V0 + 5,R3
        MOV     ?V0 + 6,R4
        MOV     ?V0 + 7,R5
//  304           if (time >= sts->next)
        MOV     DPL,?XSP + 0
        MOV     DPH,?XSP + 1
        MOVX    A,@DPTR
        ADD     A,#0x5
        MOV     R0,A
        INC     DPTR
        MOVX    A,@DPTR
        ADDC    A,#0x0
        MOV     R1,A
        MOV     A,#0x4
        LCALL   ?XSTACK_DISP0_8
        MOV     A,R0
        MOVX    @DPTR,A
        INC     DPTR
        MOV     A,R1
        MOVX    @DPTR,A
        MOV     A,#0x4
        LCALL   ?XSTACK_DISP0_8
        LCALL   ?Subroutine2 & 0xFFFF
??CrossCallReturnLabel_2:
        MOV     R0,#?V0 + 8
        LCALL   ?L_MOV_X
        MOV     R0,#?V0 + 8
        MOV     R1,#?V0 + 4
        LCALL   ?UL_GT
        JNC     $+5
        LJMP    ??HalLedUpdate_4 & 0xFFFF
//  305           {
//  306             if (sts->mode & HAL_LED_MODE_ON)
        MOV     DPL,?XSP + 0
        MOV     DPH,?XSP + 1
        LCALL   ?Subroutine2 & 0xFFFF
??CrossCallReturnLabel_3:
        INC     DPTR
        INC     DPTR
        MOVX    A,@DPTR
        MOV     R2,A
        LCALL   ?Subroutine1 & 0xFFFF
??CrossCallReturnLabel_7:
        MOV     C,0xE0 /* A   */.0
        JNC     ??HalLedUpdate_5
//  307             {
//  308               pct = 100 - sts->onPct;               /* Percentage of cycle for off */
        MOV     A,#0x64
        CLR     C
        SUBB    A,R2
        MOV     ?V0 + 8,A
//  309               sts->mode &= ~HAL_LED_MODE_ON;        /* Say it's not on */
        LCALL   ?Subroutine1 & 0xFFFF
??CrossCallReturnLabel_8:
        CLR     0xE0 /* A   */.0
        MOVX    @DPTR,A
//  310               HalLedOnOff (led, HAL_LED_MODE_OFF);  /* Turn it off */
        ; Setup parameters for call to function HalLedOnOff
        MOV     R2,#0x0
        MOV     R1,?V0 + 2
        LCALL   ??HalLedOnOff?relay
//  311 
//  312               if (!(sts->mode & HAL_LED_MODE_FLASH))
        MOV     DPL,?XSP + 0
        MOV     DPH,?XSP + 1
        MOVX    A,@DPTR
        MOV     R0,A
        LCALL   ??Subroutine6_0 & 0xFFFF
??CrossCallReturnLabel_5:
        MOV     C,0xE0 /* A   */.2
        JC      ??HalLedUpdate_6
//  313               {
//  314                 sts->todo--;                        /* Not continuous, reduce count */
        MOV     DPL,?XSP + 0
        MOV     DPH,?XSP + 1
        MOVX    A,@DPTR
        ADD     A,#0x1
        INC     R0
        INC     DPTR
        MOVX    A,@DPTR
        ADDC    A,#0x0
        MOV     R1,A
        MOV     DPL,R0
        MOV     DPH,R1
        MOVX    A,@DPTR
        DEC     A
        MOVX    @DPTR,A
//  315                 if (!sts->todo)
        JNZ     ??HalLedUpdate_6
//  316                 {
//  317                   sts->mode ^= HAL_LED_MODE_BLINK;  /* No more blinks */
        MOV     DPL,?XSP + 0
        MOV     DPH,?XSP + 1
        MOVX    A,@DPTR
        MOV     R0,A
        LCALL   ??Subroutine6_0 & 0xFFFF
//  318                 }
//  319               }
//  320             }
??CrossCallReturnLabel_6:
        XRL     A,#0x2
        MOVX    @DPTR,A
        SJMP    ??HalLedUpdate_6
//  321             else
//  322             {
//  323               pct = sts->onPct;                     /* Percentage of cycle for on */
??HalLedUpdate_5:
        MOV     ?V0 + 8,R2
//  324               sts->mode |= HAL_LED_MODE_ON;         /* Say it's on */
        LCALL   ?Subroutine1 & 0xFFFF
??CrossCallReturnLabel_9:
        SETB    0xE0 /* A   */.0
        MOVX    @DPTR,A
//  325               HalLedOnOff (led, HAL_LED_MODE_ON);   /* Turn it on */
        ; Setup parameters for call to function HalLedOnOff
        MOV     R2,#0x1
        MOV     R1,?V0 + 2
        LCALL   ??HalLedOnOff?relay
//  326             }
//  327 
//  328             if (sts->mode & HAL_LED_MODE_BLINK)
??HalLedUpdate_6:
        LCALL   ?Subroutine0 & 0xFFFF
??CrossCallReturnLabel_1:
        JNC     ??HalLedUpdate_7
//  329             {
//  330               wait = (((uint32)pct * (uint32)sts->time) / 100);
        MOV     ?V0 + 9,#0x0
        MOV     ?V0 + 10,#0x0
        MOV     ?V0 + 11,#0x0
        MOV     DPL,?XSP + 0
        MOV     DPH,?XSP + 1
        LCALL   ??Subroutine5_0 & 0xFFFF
??CrossCallReturnLabel_10:
        INC     DPTR
        INC     DPTR
        INC     DPTR
        MOVX    A,@DPTR
        MOV     ?V0 + 12,A
        INC     DPTR
        MOVX    A,@DPTR
        MOV     ?V0 + 13,A
        MOV     ?V0 + 14,#0x0
        MOV     ?V0 + 15,#0x0
        MOV     R0,#?V0 + 8
        MOV     R1,#?V0 + 12
        LCALL   ?L_MUL
        MOV     DPTR,#__Constant_64
        MOV     R0,#?V0 + 12
        LCALL   ?L_MOV_X
        MOV     R0,#?V0 + 8
        MOV     R1,#?V0 + 12
        LCALL   ?UL_DIV_MOD
        MOV     ?V0 + 0,?V0 + 8
        MOV     ?V0 + 1,?V0 + 9
//  331               sts->next = time + wait;
        MOV     ?V0 + 10,#0x0
        MOV     ?V0 + 11,#0x0
        MOV     R0,#?V0 + 4
        MOV     R1,#?V0 + 8
        LCALL   ?L_ADD
        MOV     A,#0x4
        LCALL   ?XSTACK_DISP0_8
        LCALL   ?Subroutine2 & 0xFFFF
//  332             }
??CrossCallReturnLabel_4:
        MOV     A,?V0 + 4
        MOVX    @DPTR,A
        INC     DPTR
        MOV     A,?V0 + 5
        MOVX    @DPTR,A
        INC     DPTR
        MOV     A,?V0 + 6
        MOVX    @DPTR,A
        INC     DPTR
        MOV     A,?V0 + 7
??HalLedUpdate_8:
        MOVX    @DPTR,A
        SJMP    ??HalLedUpdate_9
//  333             else
//  334             {
//  335               /* no more blink, no more wait */
//  336               wait = 0;
??HalLedUpdate_7:
        MOV     ?V0 + 0,#0x0
        MOV     ?V0 + 1,#0x0
//  337               /* After blinking, set the LED back to the state before it blinks */
//  338               HalLedSet (led, ((preBlinkState & led)!=0)?HAL_LED_MODE_ON:HAL_LED_MODE_OFF);
        MOV     DPTR,#preBlinkState
        MOVX    A,@DPTR
        ANL     A,?V0 + 2
        JZ      ??HalLedUpdate_10
        MOV     R2,#0x1
        SJMP    ??HalLedUpdate_11
??HalLedUpdate_10:
        MOV     R2,#0x0
??HalLedUpdate_11:
        ; Setup parameters for call to function HalLedSet
        MOV     R1,?V0 + 2
        LCALL   ??HalLedSet?relay
//  339               /* Clear the saved bit */
//  340               preBlinkState &= (led ^ 0xFF);
        MOV     A,#-0x1
        XRL     A,?V0 + 2
        MOV     R2,A
        MOV     DPTR,#preBlinkState
        MOVX    A,@DPTR
        ANL     A,R2
        SJMP    ??HalLedUpdate_8
//  341             }
//  342           }
//  343           else
//  344           {
//  345             wait = sts->next - time;  /* Time left */
??HalLedUpdate_4:
        MOV     A,?V0 + 8
        CLR     C
        SUBB    A,?V0 + 4
        MOV     ?V0 + 0,A
        MOV     A,?V0 + 9
        SUBB    A,?V0 + 5
        MOV     ?V0 + 1,A
//  346           }
//  347 
//  348           if (!next || ( wait && (wait < next) ))
??HalLedUpdate_9:
        MOV     A,#0x2
        LCALL   ?XSTACK_DISP0_8
        MOVX    A,@DPTR
        JNZ     ??HalLedUpdate_12
        INC     DPTR
        MOVX    A,@DPTR
??HalLedUpdate_12:
        JZ      ??HalLedUpdate_13
        MOV     A,?V0 + 0
        JNZ     ??HalLedUpdate_14
        MOV     A,?V0 + 1
??HalLedUpdate_14:
        JZ      ??HalLedUpdate_3
        MOV     A,#0x2
        LCALL   ?XSTACK_DISP0_8
        MOVX    A,@DPTR
        MOV     R0,A
        INC     DPTR
        MOVX    A,@DPTR
        MOV     R1,A
        CLR     C
        MOV     A,?V0 + 0
        SUBB    A,R0
        MOV     A,?V0 + 1
        SUBB    A,R1
        JNC     ??HalLedUpdate_3
//  349           {
//  350             next = wait;
??HalLedUpdate_13:
        MOV     A,#0x2
        LCALL   ?XSTACK_DISP0_8
        MOV     A,?V0 + 0
        MOVX    @DPTR,A
        INC     DPTR
        MOV     A,?V0 + 1
        MOVX    @DPTR,A
//  351           }
//  352         }
//  353         leds ^= led;
??HalLedUpdate_3:
        MOV     A,?V0 + 2
        XRL     ?V0 + 3,A
//  354       }
//  355       led <<= 1;
??HalLedUpdate_2:
        MOV     A,?V0 + 2
        CLR     C
        RLC     A
        MOV     ?V0 + 2,A
//  356       sts++;
        MOV     DPL,?XSP + 0
        MOV     DPH,?XSP + 1
        MOVX    A,@DPTR
        ADD     A,#0x9
        MOV     R0,A
        INC     DPTR
        MOVX    A,@DPTR
        ADDC    A,#0x0
        MOV     R1,A
        MOV     DPL,?XSP + 0
        MOV     DPH,?XSP + 1
        MOV     A,R0
        MOVX    @DPTR,A
        INC     DPTR
        MOV     A,R1
        MOVX    @DPTR,A
//  357     }
        MOV     A,?V0 + 3
        JZ      $+5
        LJMP    ??HalLedUpdate_1 & 0xFFFF
//  358 
//  359     if (next)
        MOV     A,#0x2
        LCALL   ?XSTACK_DISP0_8
        MOVX    A,@DPTR
        JNZ     ??HalLedUpdate_15
        INC     DPTR
        MOVX    A,@DPTR
??HalLedUpdate_15:
        JZ      ??HalLedUpdate_0
//  360     {
//  361       osal_start_timerEx(Hal_TaskID, HAL_LED_BLINK_EVENT, next);   /* Schedule event */
        ; Setup parameters for call to function osal_start_timerEx
        MOV     A,#0x2
        LCALL   ?XSTACK_DISP0_8
        MOVX    A,@DPTR
        MOV     R4,A
        INC     DPTR
        MOVX    A,@DPTR
        MOV     R5,A
        MOV     R2,#0x2
        MOV     R3,#0x0
        MOV     DPTR,#Hal_TaskID
        MOVX    A,@DPTR
        MOV     R1,A
        LCALL   ??osal_start_timerEx?relay
//  362     }
//  363   }
//  364 }
??HalLedUpdate_0:
        MOV     A,#0x6
        LCALL   ?DEALLOC_XSTACK8
        CFI CFA_XSP16 add(XSP16, 24)
        MOV     R7,#0x10
        LJMP    ?BANKED_LEAVE_XDATA
        CFI EndBlock cfiBlock3

        RSEG BANKED_CODE:CODE:NOROOT(0)
?Subroutine2:
        CFI Block cfiCond4 Using cfiCommon0
        CFI NoFunction
        CFI Conditional ??CrossCallReturnLabel_2
        CFI R6 load(1, XDATA, add(CFA_XSP16, literal(-24)))
        CFI VB load(1, XDATA, add(CFA_XSP16, literal(-23)))
        CFI V0 load(1, XDATA, add(CFA_XSP16, literal(-22)))
        CFI V1 load(1, XDATA, add(CFA_XSP16, literal(-21)))
        CFI V2 load(1, XDATA, add(CFA_XSP16, literal(-20)))
        CFI V3 load(1, XDATA, add(CFA_XSP16, literal(-19)))
        CFI V4 load(1, XDATA, add(CFA_XSP16, literal(-18)))
        CFI V5 load(1, XDATA, add(CFA_XSP16, literal(-17)))
        CFI V6 load(1, XDATA, add(CFA_XSP16, literal(-16)))
        CFI V7 load(1, XDATA, add(CFA_XSP16, literal(-15)))
        CFI V8 load(1, XDATA, add(CFA_XSP16, literal(-14)))
        CFI V9 load(1, XDATA, add(CFA_XSP16, literal(-13)))
        CFI V10 load(1, XDATA, add(CFA_XSP16, literal(-12)))
        CFI V11 load(1, XDATA, add(CFA_XSP16, literal(-11)))
        CFI V12 load(1, XDATA, add(CFA_XSP16, literal(-10)))
        CFI V13 load(1, XDATA, add(CFA_XSP16, literal(-9)))
        CFI V14 load(1, XDATA, add(CFA_XSP16, literal(-8)))
        CFI V15 load(1, XDATA, add(CFA_XSP16, literal(-7)))
        CFI R7 load(1, XDATA, add(CFA_XSP16, literal(-6)))
        CFI ?RET_LOW load(1, XDATA, add(CFA_XSP16, literal(-5)))
        CFI ?RET_HIGH load(1, XDATA, add(CFA_XSP16, literal(-4)))
        CFI ?BRET_EXT load(1, XDATA, add(CFA_XSP16, literal(-3)))
        CFI DPL0 load(1, XDATA, add(CFA_XSP16, literal(-2)))
        CFI DPH0 load(1, XDATA, add(CFA_XSP16, literal(-1)))
        CFI CFA_SP SP+0
        CFI CFA_XSP16 add(XSP16, 30)
        CFI Block cfiCond5 Using cfiCommon0
        CFI (cfiCond5) NoFunction
        CFI (cfiCond5) Conditional ??CrossCallReturnLabel_3
        CFI (cfiCond5) R6 load(1, XDATA, add(CFA_XSP16, literal(-24)))
        CFI (cfiCond5) VB load(1, XDATA, add(CFA_XSP16, literal(-23)))
        CFI (cfiCond5) V0 load(1, XDATA, add(CFA_XSP16, literal(-22)))
        CFI (cfiCond5) V1 load(1, XDATA, add(CFA_XSP16, literal(-21)))
        CFI (cfiCond5) V2 load(1, XDATA, add(CFA_XSP16, literal(-20)))
        CFI (cfiCond5) V3 load(1, XDATA, add(CFA_XSP16, literal(-19)))
        CFI (cfiCond5) V4 load(1, XDATA, add(CFA_XSP16, literal(-18)))
        CFI (cfiCond5) V5 load(1, XDATA, add(CFA_XSP16, literal(-17)))
        CFI (cfiCond5) V6 load(1, XDATA, add(CFA_XSP16, literal(-16)))
        CFI (cfiCond5) V7 load(1, XDATA, add(CFA_XSP16, literal(-15)))
        CFI (cfiCond5) V8 load(1, XDATA, add(CFA_XSP16, literal(-14)))
        CFI (cfiCond5) V9 load(1, XDATA, add(CFA_XSP16, literal(-13)))
        CFI (cfiCond5) V10 load(1, XDATA, add(CFA_XSP16, literal(-12)))
        CFI (cfiCond5) V11 load(1, XDATA, add(CFA_XSP16, literal(-11)))
        CFI (cfiCond5) V12 load(1, XDATA, add(CFA_XSP16, literal(-10)))
        CFI (cfiCond5) V13 load(1, XDATA, add(CFA_XSP16, literal(-9)))
        CFI (cfiCond5) V14 load(1, XDATA, add(CFA_XSP16, literal(-8)))
        CFI (cfiCond5) V15 load(1, XDATA, add(CFA_XSP16, literal(-7)))
        CFI (cfiCond5) R7 load(1, XDATA, add(CFA_XSP16, literal(-6)))
        CFI (cfiCond5) ?RET_LOW load(1, XDATA, add(CFA_XSP16, literal(-5)))
        CFI (cfiCond5) ?RET_HIGH load(1, XDATA, add(CFA_XSP16, literal(-4)))
        CFI (cfiCond5) ?BRET_EXT load(1, XDATA, add(CFA_XSP16, literal(-3)))
        CFI (cfiCond5) DPL0 load(1, XDATA, add(CFA_XSP16, literal(-2)))
        CFI (cfiCond5) DPH0 load(1, XDATA, add(CFA_XSP16, literal(-1)))
        CFI (cfiCond5) CFA_SP SP+0
        CFI (cfiCond5) CFA_XSP16 add(XSP16, 30)
        CFI Block cfiCond6 Using cfiCommon0
        CFI (cfiCond6) NoFunction
        CFI (cfiCond6) Conditional ??CrossCallReturnLabel_4
        CFI (cfiCond6) R6 load(1, XDATA, add(CFA_XSP16, literal(-24)))
        CFI (cfiCond6) VB load(1, XDATA, add(CFA_XSP16, literal(-23)))
        CFI (cfiCond6) V0 load(1, XDATA, add(CFA_XSP16, literal(-22)))
        CFI (cfiCond6) V1 load(1, XDATA, add(CFA_XSP16, literal(-21)))
        CFI (cfiCond6) V2 load(1, XDATA, add(CFA_XSP16, literal(-20)))
        CFI (cfiCond6) V3 load(1, XDATA, add(CFA_XSP16, literal(-19)))
        CFI (cfiCond6) V4 load(1, XDATA, add(CFA_XSP16, literal(-18)))
        CFI (cfiCond6) V5 load(1, XDATA, add(CFA_XSP16, literal(-17)))
        CFI (cfiCond6) V6 load(1, XDATA, add(CFA_XSP16, literal(-16)))
        CFI (cfiCond6) V7 load(1, XDATA, add(CFA_XSP16, literal(-15)))
        CFI (cfiCond6) V8 load(1, XDATA, add(CFA_XSP16, literal(-14)))
        CFI (cfiCond6) V9 load(1, XDATA, add(CFA_XSP16, literal(-13)))
        CFI (cfiCond6) V10 load(1, XDATA, add(CFA_XSP16, literal(-12)))
        CFI (cfiCond6) V11 load(1, XDATA, add(CFA_XSP16, literal(-11)))
        CFI (cfiCond6) V12 load(1, XDATA, add(CFA_XSP16, literal(-10)))
        CFI (cfiCond6) V13 load(1, XDATA, add(CFA_XSP16, literal(-9)))
        CFI (cfiCond6) V14 load(1, XDATA, add(CFA_XSP16, literal(-8)))
        CFI (cfiCond6) V15 load(1, XDATA, add(CFA_XSP16, literal(-7)))
        CFI (cfiCond6) R7 load(1, XDATA, add(CFA_XSP16, literal(-6)))
        CFI (cfiCond6) ?RET_LOW load(1, XDATA, add(CFA_XSP16, literal(-5)))
        CFI (cfiCond6) ?RET_HIGH load(1, XDATA, add(CFA_XSP16, literal(-4)))
        CFI (cfiCond6) ?BRET_EXT load(1, XDATA, add(CFA_XSP16, literal(-3)))
        CFI (cfiCond6) DPL0 load(1, XDATA, add(CFA_XSP16, literal(-2)))
        CFI (cfiCond6) DPH0 load(1, XDATA, add(CFA_XSP16, literal(-1)))
        CFI (cfiCond6) CFA_SP SP+0
        CFI (cfiCond6) CFA_XSP16 add(XSP16, 30)
        CFI Block cfiPicker7 Using cfiCommon1
        CFI (cfiPicker7) NoFunction
        CFI (cfiPicker7) Picker
        LCALL   ?Subroutine3 & 0xFFFF
??CrossCallReturnLabel_12:
        RET
        CFI EndBlock cfiCond4
        CFI EndBlock cfiCond5
        CFI EndBlock cfiCond6
        CFI EndBlock cfiPicker7

        RSEG BANKED_CODE:CODE:NOROOT(0)
?Subroutine3:
        CFI Block cfiCond8 Using cfiCommon0
        CFI NoFunction
        CFI Conditional ??CrossCallReturnLabel_12, ??CrossCallReturnLabel_2
        CFI R6 load(1, XDATA, add(CFA_XSP16, literal(-24)))
        CFI VB load(1, XDATA, add(CFA_XSP16, literal(-23)))
        CFI V0 load(1, XDATA, add(CFA_XSP16, literal(-22)))
        CFI V1 load(1, XDATA, add(CFA_XSP16, literal(-21)))
        CFI V2 load(1, XDATA, add(CFA_XSP16, literal(-20)))
        CFI V3 load(1, XDATA, add(CFA_XSP16, literal(-19)))
        CFI V4 load(1, XDATA, add(CFA_XSP16, literal(-18)))
        CFI V5 load(1, XDATA, add(CFA_XSP16, literal(-17)))
        CFI V6 load(1, XDATA, add(CFA_XSP16, literal(-16)))
        CFI V7 load(1, XDATA, add(CFA_XSP16, literal(-15)))
        CFI V8 load(1, XDATA, add(CFA_XSP16, literal(-14)))
        CFI V9 load(1, XDATA, add(CFA_XSP16, literal(-13)))
        CFI V10 load(1, XDATA, add(CFA_XSP16, literal(-12)))
        CFI V11 load(1, XDATA, add(CFA_XSP16, literal(-11)))
        CFI V12 load(1, XDATA, add(CFA_XSP16, literal(-10)))
        CFI V13 load(1, XDATA, add(CFA_XSP16, literal(-9)))
        CFI V14 load(1, XDATA, add(CFA_XSP16, literal(-8)))
        CFI V15 load(1, XDATA, add(CFA_XSP16, literal(-7)))
        CFI R7 load(1, XDATA, add(CFA_XSP16, literal(-6)))
        CFI ?RET_LOW load(1, XDATA, add(CFA_XSP16, literal(-5)))
        CFI ?RET_HIGH load(1, XDATA, add(CFA_XSP16, literal(-4)))
        CFI ?BRET_EXT load(1, XDATA, add(CFA_XSP16, literal(-3)))
        CFI DPL0 load(1, XDATA, add(CFA_XSP16, literal(-2)))
        CFI DPH0 load(1, XDATA, add(CFA_XSP16, literal(-1)))
        CFI CFA_SP SP+0
        CFI CFA_XSP16 add(XSP16, 30)
        CFI Block cfiCond9 Using cfiCommon0
        CFI (cfiCond9) NoFunction
        CFI (cfiCond9) Conditional ??CrossCallReturnLabel_12, ??CrossCallReturnLabel_3
        CFI (cfiCond9) R6 load(1, XDATA, add(CFA_XSP16, literal(-24)))
        CFI (cfiCond9) VB load(1, XDATA, add(CFA_XSP16, literal(-23)))
        CFI (cfiCond9) V0 load(1, XDATA, add(CFA_XSP16, literal(-22)))
        CFI (cfiCond9) V1 load(1, XDATA, add(CFA_XSP16, literal(-21)))
        CFI (cfiCond9) V2 load(1, XDATA, add(CFA_XSP16, literal(-20)))
        CFI (cfiCond9) V3 load(1, XDATA, add(CFA_XSP16, literal(-19)))
        CFI (cfiCond9) V4 load(1, XDATA, add(CFA_XSP16, literal(-18)))
        CFI (cfiCond9) V5 load(1, XDATA, add(CFA_XSP16, literal(-17)))
        CFI (cfiCond9) V6 load(1, XDATA, add(CFA_XSP16, literal(-16)))
        CFI (cfiCond9) V7 load(1, XDATA, add(CFA_XSP16, literal(-15)))
        CFI (cfiCond9) V8 load(1, XDATA, add(CFA_XSP16, literal(-14)))
        CFI (cfiCond9) V9 load(1, XDATA, add(CFA_XSP16, literal(-13)))
        CFI (cfiCond9) V10 load(1, XDATA, add(CFA_XSP16, literal(-12)))
        CFI (cfiCond9) V11 load(1, XDATA, add(CFA_XSP16, literal(-11)))
        CFI (cfiCond9) V12 load(1, XDATA, add(CFA_XSP16, literal(-10)))
        CFI (cfiCond9) V13 load(1, XDATA, add(CFA_XSP16, literal(-9)))
        CFI (cfiCond9) V14 load(1, XDATA, add(CFA_XSP16, literal(-8)))
        CFI (cfiCond9) V15 load(1, XDATA, add(CFA_XSP16, literal(-7)))
        CFI (cfiCond9) R7 load(1, XDATA, add(CFA_XSP16, literal(-6)))
        CFI (cfiCond9) ?RET_LOW load(1, XDATA, add(CFA_XSP16, literal(-5)))
        CFI (cfiCond9) ?RET_HIGH load(1, XDATA, add(CFA_XSP16, literal(-4)))
        CFI (cfiCond9) ?BRET_EXT load(1, XDATA, add(CFA_XSP16, literal(-3)))
        CFI (cfiCond9) DPL0 load(1, XDATA, add(CFA_XSP16, literal(-2)))
        CFI (cfiCond9) DPH0 load(1, XDATA, add(CFA_XSP16, literal(-1)))
        CFI (cfiCond9) CFA_SP SP+0
        CFI (cfiCond9) CFA_XSP16 add(XSP16, 30)
        CFI Block cfiCond10 Using cfiCommon0
        CFI (cfiCond10) NoFunction
        CFI (cfiCond10) Conditional ??CrossCallReturnLabel_12, ??CrossCallReturnLabel_4
        CFI (cfiCond10) R6 load(1, XDATA, add(CFA_XSP16, literal(-24)))
        CFI (cfiCond10) VB load(1, XDATA, add(CFA_XSP16, literal(-23)))
        CFI (cfiCond10) V0 load(1, XDATA, add(CFA_XSP16, literal(-22)))
        CFI (cfiCond10) V1 load(1, XDATA, add(CFA_XSP16, literal(-21)))
        CFI (cfiCond10) V2 load(1, XDATA, add(CFA_XSP16, literal(-20)))
        CFI (cfiCond10) V3 load(1, XDATA, add(CFA_XSP16, literal(-19)))
        CFI (cfiCond10) V4 load(1, XDATA, add(CFA_XSP16, literal(-18)))
        CFI (cfiCond10) V5 load(1, XDATA, add(CFA_XSP16, literal(-17)))
        CFI (cfiCond10) V6 load(1, XDATA, add(CFA_XSP16, literal(-16)))
        CFI (cfiCond10) V7 load(1, XDATA, add(CFA_XSP16, literal(-15)))
        CFI (cfiCond10) V8 load(1, XDATA, add(CFA_XSP16, literal(-14)))
        CFI (cfiCond10) V9 load(1, XDATA, add(CFA_XSP16, literal(-13)))
        CFI (cfiCond10) V10 load(1, XDATA, add(CFA_XSP16, literal(-12)))
        CFI (cfiCond10) V11 load(1, XDATA, add(CFA_XSP16, literal(-11)))
        CFI (cfiCond10) V12 load(1, XDATA, add(CFA_XSP16, literal(-10)))
        CFI (cfiCond10) V13 load(1, XDATA, add(CFA_XSP16, literal(-9)))
        CFI (cfiCond10) V14 load(1, XDATA, add(CFA_XSP16, literal(-8)))
        CFI (cfiCond10) V15 load(1, XDATA, add(CFA_XSP16, literal(-7)))
        CFI (cfiCond10) R7 load(1, XDATA, add(CFA_XSP16, literal(-6)))
        CFI (cfiCond10) ?RET_LOW load(1, XDATA, add(CFA_XSP16, literal(-5)))
        CFI (cfiCond10) ?RET_HIGH load(1, XDATA, add(CFA_XSP16, literal(-4)))
        CFI (cfiCond10) ?BRET_EXT load(1, XDATA, add(CFA_XSP16, literal(-3)))
        CFI (cfiCond10) DPL0 load(1, XDATA, add(CFA_XSP16, literal(-2)))
        CFI (cfiCond10) DPH0 load(1, XDATA, add(CFA_XSP16, literal(-1)))
        CFI (cfiCond10) CFA_SP SP+0
        CFI (cfiCond10) CFA_XSP16 add(XSP16, 30)
        CFI Block cfiCond11 Using cfiCommon0
        CFI (cfiCond11) NoFunction
        CFI (cfiCond11) Conditional ??CrossCallReturnLabel_11, ??CrossCallReturnLabel_0
        CFI (cfiCond11) R6 load(1, XDATA, add(CFA_XSP16, literal(-24)))
        CFI (cfiCond11) VB load(1, XDATA, add(CFA_XSP16, literal(-23)))
        CFI (cfiCond11) V0 load(1, XDATA, add(CFA_XSP16, literal(-22)))
        CFI (cfiCond11) V1 load(1, XDATA, add(CFA_XSP16, literal(-21)))
        CFI (cfiCond11) V2 load(1, XDATA, add(CFA_XSP16, literal(-20)))
        CFI (cfiCond11) V3 load(1, XDATA, add(CFA_XSP16, literal(-19)))
        CFI (cfiCond11) V4 load(1, XDATA, add(CFA_XSP16, literal(-18)))
        CFI (cfiCond11) V5 load(1, XDATA, add(CFA_XSP16, literal(-17)))
        CFI (cfiCond11) V6 load(1, XDATA, add(CFA_XSP16, literal(-16)))
        CFI (cfiCond11) V7 load(1, XDATA, add(CFA_XSP16, literal(-15)))
        CFI (cfiCond11) V8 load(1, XDATA, add(CFA_XSP16, literal(-14)))
        CFI (cfiCond11) V9 load(1, XDATA, add(CFA_XSP16, literal(-13)))
        CFI (cfiCond11) V10 load(1, XDATA, add(CFA_XSP16, literal(-12)))
        CFI (cfiCond11) V11 load(1, XDATA, add(CFA_XSP16, literal(-11)))
        CFI (cfiCond11) V12 load(1, XDATA, add(CFA_XSP16, literal(-10)))
        CFI (cfiCond11) V13 load(1, XDATA, add(CFA_XSP16, literal(-9)))
        CFI (cfiCond11) V14 load(1, XDATA, add(CFA_XSP16, literal(-8)))
        CFI (cfiCond11) V15 load(1, XDATA, add(CFA_XSP16, literal(-7)))
        CFI (cfiCond11) R7 load(1, XDATA, add(CFA_XSP16, literal(-6)))
        CFI (cfiCond11) ?RET_LOW load(1, XDATA, add(CFA_XSP16, literal(-5)))
        CFI (cfiCond11) ?RET_HIGH load(1, XDATA, add(CFA_XSP16, literal(-4)))
        CFI (cfiCond11) ?BRET_EXT load(1, XDATA, add(CFA_XSP16, literal(-3)))
        CFI (cfiCond11) DPL0 load(1, XDATA, add(CFA_XSP16, literal(-2)))
        CFI (cfiCond11) DPH0 load(1, XDATA, add(CFA_XSP16, literal(-1)))
        CFI (cfiCond11) CFA_SP SP+0
        CFI (cfiCond11) CFA_XSP16 add(XSP16, 30)
        CFI Block cfiCond12 Using cfiCommon0
        CFI (cfiCond12) NoFunction
        CFI (cfiCond12) Conditional ??CrossCallReturnLabel_11, ??CrossCallReturnLabel_1
        CFI (cfiCond12) R6 load(1, XDATA, add(CFA_XSP16, literal(-24)))
        CFI (cfiCond12) VB load(1, XDATA, add(CFA_XSP16, literal(-23)))
        CFI (cfiCond12) V0 load(1, XDATA, add(CFA_XSP16, literal(-22)))
        CFI (cfiCond12) V1 load(1, XDATA, add(CFA_XSP16, literal(-21)))
        CFI (cfiCond12) V2 load(1, XDATA, add(CFA_XSP16, literal(-20)))
        CFI (cfiCond12) V3 load(1, XDATA, add(CFA_XSP16, literal(-19)))
        CFI (cfiCond12) V4 load(1, XDATA, add(CFA_XSP16, literal(-18)))
        CFI (cfiCond12) V5 load(1, XDATA, add(CFA_XSP16, literal(-17)))
        CFI (cfiCond12) V6 load(1, XDATA, add(CFA_XSP16, literal(-16)))
        CFI (cfiCond12) V7 load(1, XDATA, add(CFA_XSP16, literal(-15)))
        CFI (cfiCond12) V8 load(1, XDATA, add(CFA_XSP16, literal(-14)))
        CFI (cfiCond12) V9 load(1, XDATA, add(CFA_XSP16, literal(-13)))
        CFI (cfiCond12) V10 load(1, XDATA, add(CFA_XSP16, literal(-12)))
        CFI (cfiCond12) V11 load(1, XDATA, add(CFA_XSP16, literal(-11)))
        CFI (cfiCond12) V12 load(1, XDATA, add(CFA_XSP16, literal(-10)))
        CFI (cfiCond12) V13 load(1, XDATA, add(CFA_XSP16, literal(-9)))
        CFI (cfiCond12) V14 load(1, XDATA, add(CFA_XSP16, literal(-8)))
        CFI (cfiCond12) V15 load(1, XDATA, add(CFA_XSP16, literal(-7)))
        CFI (cfiCond12) R7 load(1, XDATA, add(CFA_XSP16, literal(-6)))
        CFI (cfiCond12) ?RET_LOW load(1, XDATA, add(CFA_XSP16, literal(-5)))
        CFI (cfiCond12) ?RET_HIGH load(1, XDATA, add(CFA_XSP16, literal(-4)))
        CFI (cfiCond12) ?BRET_EXT load(1, XDATA, add(CFA_XSP16, literal(-3)))
        CFI (cfiCond12) DPL0 load(1, XDATA, add(CFA_XSP16, literal(-2)))
        CFI (cfiCond12) DPH0 load(1, XDATA, add(CFA_XSP16, literal(-1)))
        CFI (cfiCond12) CFA_SP SP+0
        CFI (cfiCond12) CFA_XSP16 add(XSP16, 30)
        CFI Block cfiPicker13 Using cfiCommon1
        CFI (cfiPicker13) NoFunction
        CFI (cfiPicker13) Picker
        MOVX    A,@DPTR
        MOV     R0,A
        CFI EndBlock cfiCond8
        CFI EndBlock cfiCond9
        CFI EndBlock cfiCond10
        CFI EndBlock cfiCond11
        CFI EndBlock cfiCond12
        CFI EndBlock cfiPicker13
        REQUIRE ??Subroutine5_0
        ; // Fall through to label ??Subroutine5_0

        RSEG BANKED_CODE:CODE:NOROOT(0)
??Subroutine5_0:
        CFI Block cfiCond14 Using cfiCommon0
        CFI NoFunction
        CFI Conditional ??CrossCallReturnLabel_10
        CFI R6 load(1, XDATA, add(CFA_XSP16, literal(-24)))
        CFI VB load(1, XDATA, add(CFA_XSP16, literal(-23)))
        CFI V0 load(1, XDATA, add(CFA_XSP16, literal(-22)))
        CFI V1 load(1, XDATA, add(CFA_XSP16, literal(-21)))
        CFI V2 load(1, XDATA, add(CFA_XSP16, literal(-20)))
        CFI V3 load(1, XDATA, add(CFA_XSP16, literal(-19)))
        CFI V4 load(1, XDATA, add(CFA_XSP16, literal(-18)))
        CFI V5 load(1, XDATA, add(CFA_XSP16, literal(-17)))
        CFI V6 load(1, XDATA, add(CFA_XSP16, literal(-16)))
        CFI V7 load(1, XDATA, add(CFA_XSP16, literal(-15)))
        CFI V8 load(1, XDATA, add(CFA_XSP16, literal(-14)))
        CFI V9 load(1, XDATA, add(CFA_XSP16, literal(-13)))
        CFI V10 load(1, XDATA, add(CFA_XSP16, literal(-12)))
        CFI V11 load(1, XDATA, add(CFA_XSP16, literal(-11)))
        CFI V12 load(1, XDATA, add(CFA_XSP16, literal(-10)))
        CFI V13 load(1, XDATA, add(CFA_XSP16, literal(-9)))
        CFI V14 load(1, XDATA, add(CFA_XSP16, literal(-8)))
        CFI V15 load(1, XDATA, add(CFA_XSP16, literal(-7)))
        CFI R7 load(1, XDATA, add(CFA_XSP16, literal(-6)))
        CFI ?RET_LOW load(1, XDATA, add(CFA_XSP16, literal(-5)))
        CFI ?RET_HIGH load(1, XDATA, add(CFA_XSP16, literal(-4)))
        CFI ?BRET_EXT load(1, XDATA, add(CFA_XSP16, literal(-3)))
        CFI DPL0 load(1, XDATA, add(CFA_XSP16, literal(-2)))
        CFI DPH0 load(1, XDATA, add(CFA_XSP16, literal(-1)))
        CFI CFA_SP SP+0
        CFI CFA_XSP16 add(XSP16, 30)
        CFI Block cfiCond15 Using cfiCommon0
        CFI (cfiCond15) NoFunction
        CFI (cfiCond15) Conditional ??CrossCallReturnLabel_13, ??CrossCallReturnLabel_7
        CFI (cfiCond15) R6 load(1, XDATA, add(CFA_XSP16, literal(-24)))
        CFI (cfiCond15) VB load(1, XDATA, add(CFA_XSP16, literal(-23)))
        CFI (cfiCond15) V0 load(1, XDATA, add(CFA_XSP16, literal(-22)))
        CFI (cfiCond15) V1 load(1, XDATA, add(CFA_XSP16, literal(-21)))
        CFI (cfiCond15) V2 load(1, XDATA, add(CFA_XSP16, literal(-20)))
        CFI (cfiCond15) V3 load(1, XDATA, add(CFA_XSP16, literal(-19)))
        CFI (cfiCond15) V4 load(1, XDATA, add(CFA_XSP16, literal(-18)))
        CFI (cfiCond15) V5 load(1, XDATA, add(CFA_XSP16, literal(-17)))
        CFI (cfiCond15) V6 load(1, XDATA, add(CFA_XSP16, literal(-16)))
        CFI (cfiCond15) V7 load(1, XDATA, add(CFA_XSP16, literal(-15)))
        CFI (cfiCond15) V8 load(1, XDATA, add(CFA_XSP16, literal(-14)))
        CFI (cfiCond15) V9 load(1, XDATA, add(CFA_XSP16, literal(-13)))
        CFI (cfiCond15) V10 load(1, XDATA, add(CFA_XSP16, literal(-12)))
        CFI (cfiCond15) V11 load(1, XDATA, add(CFA_XSP16, literal(-11)))
        CFI (cfiCond15) V12 load(1, XDATA, add(CFA_XSP16, literal(-10)))
        CFI (cfiCond15) V13 load(1, XDATA, add(CFA_XSP16, literal(-9)))
        CFI (cfiCond15) V14 load(1, XDATA, add(CFA_XSP16, literal(-8)))
        CFI (cfiCond15) V15 load(1, XDATA, add(CFA_XSP16, literal(-7)))
        CFI (cfiCond15) R7 load(1, XDATA, add(CFA_XSP16, literal(-6)))
        CFI (cfiCond15) ?RET_LOW load(1, XDATA, add(CFA_XSP16, literal(-5)))
        CFI (cfiCond15) ?RET_HIGH load(1, XDATA, add(CFA_XSP16, literal(-4)))
        CFI (cfiCond15) ?BRET_EXT load(1, XDATA, add(CFA_XSP16, literal(-3)))
        CFI (cfiCond15) DPL0 load(1, XDATA, add(CFA_XSP16, literal(-2)))
        CFI (cfiCond15) DPH0 load(1, XDATA, add(CFA_XSP16, literal(-1)))
        CFI (cfiCond15) CFA_SP SP+0
        CFI (cfiCond15) CFA_XSP16 add(XSP16, 30)
        CFI Block cfiCond16 Using cfiCommon0
        CFI (cfiCond16) NoFunction
        CFI (cfiCond16) Conditional ??CrossCallReturnLabel_13, ??CrossCallReturnLabel_8
        CFI (cfiCond16) R6 load(1, XDATA, add(CFA_XSP16, literal(-24)))
        CFI (cfiCond16) VB load(1, XDATA, add(CFA_XSP16, literal(-23)))
        CFI (cfiCond16) V0 load(1, XDATA, add(CFA_XSP16, literal(-22)))
        CFI (cfiCond16) V1 load(1, XDATA, add(CFA_XSP16, literal(-21)))
        CFI (cfiCond16) V2 load(1, XDATA, add(CFA_XSP16, literal(-20)))
        CFI (cfiCond16) V3 load(1, XDATA, add(CFA_XSP16, literal(-19)))
        CFI (cfiCond16) V4 load(1, XDATA, add(CFA_XSP16, literal(-18)))
        CFI (cfiCond16) V5 load(1, XDATA, add(CFA_XSP16, literal(-17)))
        CFI (cfiCond16) V6 load(1, XDATA, add(CFA_XSP16, literal(-16)))
        CFI (cfiCond16) V7 load(1, XDATA, add(CFA_XSP16, literal(-15)))
        CFI (cfiCond16) V8 load(1, XDATA, add(CFA_XSP16, literal(-14)))
        CFI (cfiCond16) V9 load(1, XDATA, add(CFA_XSP16, literal(-13)))
        CFI (cfiCond16) V10 load(1, XDATA, add(CFA_XSP16, literal(-12)))
        CFI (cfiCond16) V11 load(1, XDATA, add(CFA_XSP16, literal(-11)))
        CFI (cfiCond16) V12 load(1, XDATA, add(CFA_XSP16, literal(-10)))
        CFI (cfiCond16) V13 load(1, XDATA, add(CFA_XSP16, literal(-9)))
        CFI (cfiCond16) V14 load(1, XDATA, add(CFA_XSP16, literal(-8)))
        CFI (cfiCond16) V15 load(1, XDATA, add(CFA_XSP16, literal(-7)))
        CFI (cfiCond16) R7 load(1, XDATA, add(CFA_XSP16, literal(-6)))
        CFI (cfiCond16) ?RET_LOW load(1, XDATA, add(CFA_XSP16, literal(-5)))
        CFI (cfiCond16) ?RET_HIGH load(1, XDATA, add(CFA_XSP16, literal(-4)))
        CFI (cfiCond16) ?BRET_EXT load(1, XDATA, add(CFA_XSP16, literal(-3)))
        CFI (cfiCond16) DPL0 load(1, XDATA, add(CFA_XSP16, literal(-2)))
        CFI (cfiCond16) DPH0 load(1, XDATA, add(CFA_XSP16, literal(-1)))
        CFI (cfiCond16) CFA_SP SP+0
        CFI (cfiCond16) CFA_XSP16 add(XSP16, 30)
        CFI Block cfiCond17 Using cfiCommon0
        CFI (cfiCond17) NoFunction
        CFI (cfiCond17) Conditional ??CrossCallReturnLabel_13, ??CrossCallReturnLabel_9
        CFI (cfiCond17) R6 load(1, XDATA, add(CFA_XSP16, literal(-24)))
        CFI (cfiCond17) VB load(1, XDATA, add(CFA_XSP16, literal(-23)))
        CFI (cfiCond17) V0 load(1, XDATA, add(CFA_XSP16, literal(-22)))
        CFI (cfiCond17) V1 load(1, XDATA, add(CFA_XSP16, literal(-21)))
        CFI (cfiCond17) V2 load(1, XDATA, add(CFA_XSP16, literal(-20)))
        CFI (cfiCond17) V3 load(1, XDATA, add(CFA_XSP16, literal(-19)))
        CFI (cfiCond17) V4 load(1, XDATA, add(CFA_XSP16, literal(-18)))
        CFI (cfiCond17) V5 load(1, XDATA, add(CFA_XSP16, literal(-17)))
        CFI (cfiCond17) V6 load(1, XDATA, add(CFA_XSP16, literal(-16)))
        CFI (cfiCond17) V7 load(1, XDATA, add(CFA_XSP16, literal(-15)))
        CFI (cfiCond17) V8 load(1, XDATA, add(CFA_XSP16, literal(-14)))
        CFI (cfiCond17) V9 load(1, XDATA, add(CFA_XSP16, literal(-13)))
        CFI (cfiCond17) V10 load(1, XDATA, add(CFA_XSP16, literal(-12)))
        CFI (cfiCond17) V11 load(1, XDATA, add(CFA_XSP16, literal(-11)))
        CFI (cfiCond17) V12 load(1, XDATA, add(CFA_XSP16, literal(-10)))
        CFI (cfiCond17) V13 load(1, XDATA, add(CFA_XSP16, literal(-9)))
        CFI (cfiCond17) V14 load(1, XDATA, add(CFA_XSP16, literal(-8)))
        CFI (cfiCond17) V15 load(1, XDATA, add(CFA_XSP16, literal(-7)))
        CFI (cfiCond17) R7 load(1, XDATA, add(CFA_XSP16, literal(-6)))
        CFI (cfiCond17) ?RET_LOW load(1, XDATA, add(CFA_XSP16, literal(-5)))
        CFI (cfiCond17) ?RET_HIGH load(1, XDATA, add(CFA_XSP16, literal(-4)))
        CFI (cfiCond17) ?BRET_EXT load(1, XDATA, add(CFA_XSP16, literal(-3)))
        CFI (cfiCond17) DPL0 load(1, XDATA, add(CFA_XSP16, literal(-2)))
        CFI (cfiCond17) DPH0 load(1, XDATA, add(CFA_XSP16, literal(-1)))
        CFI (cfiCond17) CFA_SP SP+0
        CFI (cfiCond17) CFA_XSP16 add(XSP16, 30)
        CFI Block cfiCond18 Using cfiCommon0
        CFI (cfiCond18) NoFunction
        CFI (cfiCond18) Conditional ??CrossCallReturnLabel_13, ??CrossCallReturnLabel_5
        CFI (cfiCond18) R6 load(1, XDATA, add(CFA_XSP16, literal(-24)))
        CFI (cfiCond18) VB load(1, XDATA, add(CFA_XSP16, literal(-23)))
        CFI (cfiCond18) V0 load(1, XDATA, add(CFA_XSP16, literal(-22)))
        CFI (cfiCond18) V1 load(1, XDATA, add(CFA_XSP16, literal(-21)))
        CFI (cfiCond18) V2 load(1, XDATA, add(CFA_XSP16, literal(-20)))
        CFI (cfiCond18) V3 load(1, XDATA, add(CFA_XSP16, literal(-19)))
        CFI (cfiCond18) V4 load(1, XDATA, add(CFA_XSP16, literal(-18)))
        CFI (cfiCond18) V5 load(1, XDATA, add(CFA_XSP16, literal(-17)))
        CFI (cfiCond18) V6 load(1, XDATA, add(CFA_XSP16, literal(-16)))
        CFI (cfiCond18) V7 load(1, XDATA, add(CFA_XSP16, literal(-15)))
        CFI (cfiCond18) V8 load(1, XDATA, add(CFA_XSP16, literal(-14)))
        CFI (cfiCond18) V9 load(1, XDATA, add(CFA_XSP16, literal(-13)))
        CFI (cfiCond18) V10 load(1, XDATA, add(CFA_XSP16, literal(-12)))
        CFI (cfiCond18) V11 load(1, XDATA, add(CFA_XSP16, literal(-11)))
        CFI (cfiCond18) V12 load(1, XDATA, add(CFA_XSP16, literal(-10)))
        CFI (cfiCond18) V13 load(1, XDATA, add(CFA_XSP16, literal(-9)))
        CFI (cfiCond18) V14 load(1, XDATA, add(CFA_XSP16, literal(-8)))
        CFI (cfiCond18) V15 load(1, XDATA, add(CFA_XSP16, literal(-7)))
        CFI (cfiCond18) R7 load(1, XDATA, add(CFA_XSP16, literal(-6)))
        CFI (cfiCond18) ?RET_LOW load(1, XDATA, add(CFA_XSP16, literal(-5)))
        CFI (cfiCond18) ?RET_HIGH load(1, XDATA, add(CFA_XSP16, literal(-4)))
        CFI (cfiCond18) ?BRET_EXT load(1, XDATA, add(CFA_XSP16, literal(-3)))
        CFI (cfiCond18) DPL0 load(1, XDATA, add(CFA_XSP16, literal(-2)))
        CFI (cfiCond18) DPH0 load(1, XDATA, add(CFA_XSP16, literal(-1)))
        CFI (cfiCond18) CFA_SP SP+0
        CFI (cfiCond18) CFA_XSP16 add(XSP16, 30)
        CFI Block cfiCond19 Using cfiCommon0
        CFI (cfiCond19) NoFunction
        CFI (cfiCond19) Conditional ??CrossCallReturnLabel_13, ??CrossCallReturnLabel_6
        CFI (cfiCond19) R6 load(1, XDATA, add(CFA_XSP16, literal(-24)))
        CFI (cfiCond19) VB load(1, XDATA, add(CFA_XSP16, literal(-23)))
        CFI (cfiCond19) V0 load(1, XDATA, add(CFA_XSP16, literal(-22)))
        CFI (cfiCond19) V1 load(1, XDATA, add(CFA_XSP16, literal(-21)))
        CFI (cfiCond19) V2 load(1, XDATA, add(CFA_XSP16, literal(-20)))
        CFI (cfiCond19) V3 load(1, XDATA, add(CFA_XSP16, literal(-19)))
        CFI (cfiCond19) V4 load(1, XDATA, add(CFA_XSP16, literal(-18)))
        CFI (cfiCond19) V5 load(1, XDATA, add(CFA_XSP16, literal(-17)))
        CFI (cfiCond19) V6 load(1, XDATA, add(CFA_XSP16, literal(-16)))
        CFI (cfiCond19) V7 load(1, XDATA, add(CFA_XSP16, literal(-15)))
        CFI (cfiCond19) V8 load(1, XDATA, add(CFA_XSP16, literal(-14)))
        CFI (cfiCond19) V9 load(1, XDATA, add(CFA_XSP16, literal(-13)))
        CFI (cfiCond19) V10 load(1, XDATA, add(CFA_XSP16, literal(-12)))
        CFI (cfiCond19) V11 load(1, XDATA, add(CFA_XSP16, literal(-11)))
        CFI (cfiCond19) V12 load(1, XDATA, add(CFA_XSP16, literal(-10)))
        CFI (cfiCond19) V13 load(1, XDATA, add(CFA_XSP16, literal(-9)))
        CFI (cfiCond19) V14 load(1, XDATA, add(CFA_XSP16, literal(-8)))
        CFI (cfiCond19) V15 load(1, XDATA, add(CFA_XSP16, literal(-7)))
        CFI (cfiCond19) R7 load(1, XDATA, add(CFA_XSP16, literal(-6)))
        CFI (cfiCond19) ?RET_LOW load(1, XDATA, add(CFA_XSP16, literal(-5)))
        CFI (cfiCond19) ?RET_HIGH load(1, XDATA, add(CFA_XSP16, literal(-4)))
        CFI (cfiCond19) ?BRET_EXT load(1, XDATA, add(CFA_XSP16, literal(-3)))
        CFI (cfiCond19) DPL0 load(1, XDATA, add(CFA_XSP16, literal(-2)))
        CFI (cfiCond19) DPH0 load(1, XDATA, add(CFA_XSP16, literal(-1)))
        CFI (cfiCond19) CFA_SP SP+0
        CFI (cfiCond19) CFA_XSP16 add(XSP16, 30)
        CFI Block cfiCond20 Using cfiCommon0
        CFI (cfiCond20) NoFunction
        CFI (cfiCond20) Conditional ??CrossCallReturnLabel_12, ??CrossCallReturnLabel_2
        CFI (cfiCond20) R6 load(1, XDATA, add(CFA_XSP16, literal(-24)))
        CFI (cfiCond20) VB load(1, XDATA, add(CFA_XSP16, literal(-23)))
        CFI (cfiCond20) V0 load(1, XDATA, add(CFA_XSP16, literal(-22)))
        CFI (cfiCond20) V1 load(1, XDATA, add(CFA_XSP16, literal(-21)))
        CFI (cfiCond20) V2 load(1, XDATA, add(CFA_XSP16, literal(-20)))
        CFI (cfiCond20) V3 load(1, XDATA, add(CFA_XSP16, literal(-19)))
        CFI (cfiCond20) V4 load(1, XDATA, add(CFA_XSP16, literal(-18)))
        CFI (cfiCond20) V5 load(1, XDATA, add(CFA_XSP16, literal(-17)))
        CFI (cfiCond20) V6 load(1, XDATA, add(CFA_XSP16, literal(-16)))
        CFI (cfiCond20) V7 load(1, XDATA, add(CFA_XSP16, literal(-15)))
        CFI (cfiCond20) V8 load(1, XDATA, add(CFA_XSP16, literal(-14)))
        CFI (cfiCond20) V9 load(1, XDATA, add(CFA_XSP16, literal(-13)))
        CFI (cfiCond20) V10 load(1, XDATA, add(CFA_XSP16, literal(-12)))
        CFI (cfiCond20) V11 load(1, XDATA, add(CFA_XSP16, literal(-11)))
        CFI (cfiCond20) V12 load(1, XDATA, add(CFA_XSP16, literal(-10)))
        CFI (cfiCond20) V13 load(1, XDATA, add(CFA_XSP16, literal(-9)))
        CFI (cfiCond20) V14 load(1, XDATA, add(CFA_XSP16, literal(-8)))
        CFI (cfiCond20) V15 load(1, XDATA, add(CFA_XSP16, literal(-7)))
        CFI (cfiCond20) R7 load(1, XDATA, add(CFA_XSP16, literal(-6)))
        CFI (cfiCond20) ?RET_LOW load(1, XDATA, add(CFA_XSP16, literal(-5)))
        CFI (cfiCond20) ?RET_HIGH load(1, XDATA, add(CFA_XSP16, literal(-4)))
        CFI (cfiCond20) ?BRET_EXT load(1, XDATA, add(CFA_XSP16, literal(-3)))
        CFI (cfiCond20) DPL0 load(1, XDATA, add(CFA_XSP16, literal(-2)))
        CFI (cfiCond20) DPH0 load(1, XDATA, add(CFA_XSP16, literal(-1)))
        CFI (cfiCond20) CFA_SP SP+0
        CFI (cfiCond20) CFA_XSP16 add(XSP16, 30)
        CFI Block cfiCond21 Using cfiCommon0
        CFI (cfiCond21) NoFunction
        CFI (cfiCond21) Conditional ??CrossCallReturnLabel_12, ??CrossCallReturnLabel_3
        CFI (cfiCond21) R6 load(1, XDATA, add(CFA_XSP16, literal(-24)))
        CFI (cfiCond21) VB load(1, XDATA, add(CFA_XSP16, literal(-23)))
        CFI (cfiCond21) V0 load(1, XDATA, add(CFA_XSP16, literal(-22)))
        CFI (cfiCond21) V1 load(1, XDATA, add(CFA_XSP16, literal(-21)))
        CFI (cfiCond21) V2 load(1, XDATA, add(CFA_XSP16, literal(-20)))
        CFI (cfiCond21) V3 load(1, XDATA, add(CFA_XSP16, literal(-19)))
        CFI (cfiCond21) V4 load(1, XDATA, add(CFA_XSP16, literal(-18)))
        CFI (cfiCond21) V5 load(1, XDATA, add(CFA_XSP16, literal(-17)))
        CFI (cfiCond21) V6 load(1, XDATA, add(CFA_XSP16, literal(-16)))
        CFI (cfiCond21) V7 load(1, XDATA, add(CFA_XSP16, literal(-15)))
        CFI (cfiCond21) V8 load(1, XDATA, add(CFA_XSP16, literal(-14)))
        CFI (cfiCond21) V9 load(1, XDATA, add(CFA_XSP16, literal(-13)))
        CFI (cfiCond21) V10 load(1, XDATA, add(CFA_XSP16, literal(-12)))
        CFI (cfiCond21) V11 load(1, XDATA, add(CFA_XSP16, literal(-11)))
        CFI (cfiCond21) V12 load(1, XDATA, add(CFA_XSP16, literal(-10)))
        CFI (cfiCond21) V13 load(1, XDATA, add(CFA_XSP16, literal(-9)))
        CFI (cfiCond21) V14 load(1, XDATA, add(CFA_XSP16, literal(-8)))
        CFI (cfiCond21) V15 load(1, XDATA, add(CFA_XSP16, literal(-7)))
        CFI (cfiCond21) R7 load(1, XDATA, add(CFA_XSP16, literal(-6)))
        CFI (cfiCond21) ?RET_LOW load(1, XDATA, add(CFA_XSP16, literal(-5)))
        CFI (cfiCond21) ?RET_HIGH load(1, XDATA, add(CFA_XSP16, literal(-4)))
        CFI (cfiCond21) ?BRET_EXT load(1, XDATA, add(CFA_XSP16, literal(-3)))
        CFI (cfiCond21) DPL0 load(1, XDATA, add(CFA_XSP16, literal(-2)))
        CFI (cfiCond21) DPH0 load(1, XDATA, add(CFA_XSP16, literal(-1)))
        CFI (cfiCond21) CFA_SP SP+0
        CFI (cfiCond21) CFA_XSP16 add(XSP16, 30)
        CFI Block cfiCond22 Using cfiCommon0
        CFI (cfiCond22) NoFunction
        CFI (cfiCond22) Conditional ??CrossCallReturnLabel_12, ??CrossCallReturnLabel_4
        CFI (cfiCond22) R6 load(1, XDATA, add(CFA_XSP16, literal(-24)))
        CFI (cfiCond22) VB load(1, XDATA, add(CFA_XSP16, literal(-23)))
        CFI (cfiCond22) V0 load(1, XDATA, add(CFA_XSP16, literal(-22)))
        CFI (cfiCond22) V1 load(1, XDATA, add(CFA_XSP16, literal(-21)))
        CFI (cfiCond22) V2 load(1, XDATA, add(CFA_XSP16, literal(-20)))
        CFI (cfiCond22) V3 load(1, XDATA, add(CFA_XSP16, literal(-19)))
        CFI (cfiCond22) V4 load(1, XDATA, add(CFA_XSP16, literal(-18)))
        CFI (cfiCond22) V5 load(1, XDATA, add(CFA_XSP16, literal(-17)))
        CFI (cfiCond22) V6 load(1, XDATA, add(CFA_XSP16, literal(-16)))
        CFI (cfiCond22) V7 load(1, XDATA, add(CFA_XSP16, literal(-15)))
        CFI (cfiCond22) V8 load(1, XDATA, add(CFA_XSP16, literal(-14)))
        CFI (cfiCond22) V9 load(1, XDATA, add(CFA_XSP16, literal(-13)))
        CFI (cfiCond22) V10 load(1, XDATA, add(CFA_XSP16, literal(-12)))
        CFI (cfiCond22) V11 load(1, XDATA, add(CFA_XSP16, literal(-11)))
        CFI (cfiCond22) V12 load(1, XDATA, add(CFA_XSP16, literal(-10)))
        CFI (cfiCond22) V13 load(1, XDATA, add(CFA_XSP16, literal(-9)))
        CFI (cfiCond22) V14 load(1, XDATA, add(CFA_XSP16, literal(-8)))
        CFI (cfiCond22) V15 load(1, XDATA, add(CFA_XSP16, literal(-7)))
        CFI (cfiCond22) R7 load(1, XDATA, add(CFA_XSP16, literal(-6)))
        CFI (cfiCond22) ?RET_LOW load(1, XDATA, add(CFA_XSP16, literal(-5)))
        CFI (cfiCond22) ?RET_HIGH load(1, XDATA, add(CFA_XSP16, literal(-4)))
        CFI (cfiCond22) ?BRET_EXT load(1, XDATA, add(CFA_XSP16, literal(-3)))
        CFI (cfiCond22) DPL0 load(1, XDATA, add(CFA_XSP16, literal(-2)))
        CFI (cfiCond22) DPH0 load(1, XDATA, add(CFA_XSP16, literal(-1)))
        CFI (cfiCond22) CFA_SP SP+0
        CFI (cfiCond22) CFA_XSP16 add(XSP16, 30)
        CFI Block cfiCond23 Using cfiCommon0
        CFI (cfiCond23) NoFunction
        CFI (cfiCond23) Conditional ??CrossCallReturnLabel_11, ??CrossCallReturnLabel_0
        CFI (cfiCond23) R6 load(1, XDATA, add(CFA_XSP16, literal(-24)))
        CFI (cfiCond23) VB load(1, XDATA, add(CFA_XSP16, literal(-23)))
        CFI (cfiCond23) V0 load(1, XDATA, add(CFA_XSP16, literal(-22)))
        CFI (cfiCond23) V1 load(1, XDATA, add(CFA_XSP16, literal(-21)))
        CFI (cfiCond23) V2 load(1, XDATA, add(CFA_XSP16, literal(-20)))
        CFI (cfiCond23) V3 load(1, XDATA, add(CFA_XSP16, literal(-19)))
        CFI (cfiCond23) V4 load(1, XDATA, add(CFA_XSP16, literal(-18)))
        CFI (cfiCond23) V5 load(1, XDATA, add(CFA_XSP16, literal(-17)))
        CFI (cfiCond23) V6 load(1, XDATA, add(CFA_XSP16, literal(-16)))
        CFI (cfiCond23) V7 load(1, XDATA, add(CFA_XSP16, literal(-15)))
        CFI (cfiCond23) V8 load(1, XDATA, add(CFA_XSP16, literal(-14)))
        CFI (cfiCond23) V9 load(1, XDATA, add(CFA_XSP16, literal(-13)))
        CFI (cfiCond23) V10 load(1, XDATA, add(CFA_XSP16, literal(-12)))
        CFI (cfiCond23) V11 load(1, XDATA, add(CFA_XSP16, literal(-11)))
        CFI (cfiCond23) V12 load(1, XDATA, add(CFA_XSP16, literal(-10)))
        CFI (cfiCond23) V13 load(1, XDATA, add(CFA_XSP16, literal(-9)))
        CFI (cfiCond23) V14 load(1, XDATA, add(CFA_XSP16, literal(-8)))
        CFI (cfiCond23) V15 load(1, XDATA, add(CFA_XSP16, literal(-7)))
        CFI (cfiCond23) R7 load(1, XDATA, add(CFA_XSP16, literal(-6)))
        CFI (cfiCond23) ?RET_LOW load(1, XDATA, add(CFA_XSP16, literal(-5)))
        CFI (cfiCond23) ?RET_HIGH load(1, XDATA, add(CFA_XSP16, literal(-4)))
        CFI (cfiCond23) ?BRET_EXT load(1, XDATA, add(CFA_XSP16, literal(-3)))
        CFI (cfiCond23) DPL0 load(1, XDATA, add(CFA_XSP16, literal(-2)))
        CFI (cfiCond23) DPH0 load(1, XDATA, add(CFA_XSP16, literal(-1)))
        CFI (cfiCond23) CFA_SP SP+0
        CFI (cfiCond23) CFA_XSP16 add(XSP16, 30)
        CFI Block cfiCond24 Using cfiCommon0
        CFI (cfiCond24) NoFunction
        CFI (cfiCond24) Conditional ??CrossCallReturnLabel_11, ??CrossCallReturnLabel_1
        CFI (cfiCond24) R6 load(1, XDATA, add(CFA_XSP16, literal(-24)))
        CFI (cfiCond24) VB load(1, XDATA, add(CFA_XSP16, literal(-23)))
        CFI (cfiCond24) V0 load(1, XDATA, add(CFA_XSP16, literal(-22)))
        CFI (cfiCond24) V1 load(1, XDATA, add(CFA_XSP16, literal(-21)))
        CFI (cfiCond24) V2 load(1, XDATA, add(CFA_XSP16, literal(-20)))
        CFI (cfiCond24) V3 load(1, XDATA, add(CFA_XSP16, literal(-19)))
        CFI (cfiCond24) V4 load(1, XDATA, add(CFA_XSP16, literal(-18)))
        CFI (cfiCond24) V5 load(1, XDATA, add(CFA_XSP16, literal(-17)))
        CFI (cfiCond24) V6 load(1, XDATA, add(CFA_XSP16, literal(-16)))
        CFI (cfiCond24) V7 load(1, XDATA, add(CFA_XSP16, literal(-15)))
        CFI (cfiCond24) V8 load(1, XDATA, add(CFA_XSP16, literal(-14)))
        CFI (cfiCond24) V9 load(1, XDATA, add(CFA_XSP16, literal(-13)))
        CFI (cfiCond24) V10 load(1, XDATA, add(CFA_XSP16, literal(-12)))
        CFI (cfiCond24) V11 load(1, XDATA, add(CFA_XSP16, literal(-11)))
        CFI (cfiCond24) V12 load(1, XDATA, add(CFA_XSP16, literal(-10)))
        CFI (cfiCond24) V13 load(1, XDATA, add(CFA_XSP16, literal(-9)))
        CFI (cfiCond24) V14 load(1, XDATA, add(CFA_XSP16, literal(-8)))
        CFI (cfiCond24) V15 load(1, XDATA, add(CFA_XSP16, literal(-7)))
        CFI (cfiCond24) R7 load(1, XDATA, add(CFA_XSP16, literal(-6)))
        CFI (cfiCond24) ?RET_LOW load(1, XDATA, add(CFA_XSP16, literal(-5)))
        CFI (cfiCond24) ?RET_HIGH load(1, XDATA, add(CFA_XSP16, literal(-4)))
        CFI (cfiCond24) ?BRET_EXT load(1, XDATA, add(CFA_XSP16, literal(-3)))
        CFI (cfiCond24) DPL0 load(1, XDATA, add(CFA_XSP16, literal(-2)))
        CFI (cfiCond24) DPH0 load(1, XDATA, add(CFA_XSP16, literal(-1)))
        CFI (cfiCond24) CFA_SP SP+0
        CFI (cfiCond24) CFA_XSP16 add(XSP16, 30)
        CFI Block cfiPicker25 Using cfiCommon1
        CFI (cfiPicker25) NoFunction
        CFI (cfiPicker25) Picker
        INC     DPTR
        MOVX    A,@DPTR
        MOV     DPH,A
        MOV     DPL,R0
        RET
        CFI EndBlock cfiCond14
        CFI EndBlock cfiCond15
        CFI EndBlock cfiCond16
        CFI EndBlock cfiCond17
        CFI EndBlock cfiCond18
        CFI EndBlock cfiCond19
        CFI EndBlock cfiCond20
        CFI EndBlock cfiCond21
        CFI EndBlock cfiCond22
        CFI EndBlock cfiCond23
        CFI EndBlock cfiCond24
        CFI EndBlock cfiPicker25

        RSEG BANKED_CODE:CODE:NOROOT(0)
?Subroutine1:
        CFI Block cfiCond26 Using cfiCommon0
        CFI NoFunction
        CFI Conditional ??CrossCallReturnLabel_7
        CFI R6 load(1, XDATA, add(CFA_XSP16, literal(-24)))
        CFI VB load(1, XDATA, add(CFA_XSP16, literal(-23)))
        CFI V0 load(1, XDATA, add(CFA_XSP16, literal(-22)))
        CFI V1 load(1, XDATA, add(CFA_XSP16, literal(-21)))
        CFI V2 load(1, XDATA, add(CFA_XSP16, literal(-20)))
        CFI V3 load(1, XDATA, add(CFA_XSP16, literal(-19)))
        CFI V4 load(1, XDATA, add(CFA_XSP16, literal(-18)))
        CFI V5 load(1, XDATA, add(CFA_XSP16, literal(-17)))
        CFI V6 load(1, XDATA, add(CFA_XSP16, literal(-16)))
        CFI V7 load(1, XDATA, add(CFA_XSP16, literal(-15)))
        CFI V8 load(1, XDATA, add(CFA_XSP16, literal(-14)))
        CFI V9 load(1, XDATA, add(CFA_XSP16, literal(-13)))
        CFI V10 load(1, XDATA, add(CFA_XSP16, literal(-12)))
        CFI V11 load(1, XDATA, add(CFA_XSP16, literal(-11)))
        CFI V12 load(1, XDATA, add(CFA_XSP16, literal(-10)))
        CFI V13 load(1, XDATA, add(CFA_XSP16, literal(-9)))
        CFI V14 load(1, XDATA, add(CFA_XSP16, literal(-8)))
        CFI V15 load(1, XDATA, add(CFA_XSP16, literal(-7)))
        CFI R7 load(1, XDATA, add(CFA_XSP16, literal(-6)))
        CFI ?RET_LOW load(1, XDATA, add(CFA_XSP16, literal(-5)))
        CFI ?RET_HIGH load(1, XDATA, add(CFA_XSP16, literal(-4)))
        CFI ?BRET_EXT load(1, XDATA, add(CFA_XSP16, literal(-3)))
        CFI DPL0 load(1, XDATA, add(CFA_XSP16, literal(-2)))
        CFI DPH0 load(1, XDATA, add(CFA_XSP16, literal(-1)))
        CFI CFA_SP SP+0
        CFI CFA_XSP16 add(XSP16, 30)
        CFI Block cfiCond27 Using cfiCommon0
        CFI (cfiCond27) NoFunction
        CFI (cfiCond27) Conditional ??CrossCallReturnLabel_8
        CFI (cfiCond27) R6 load(1, XDATA, add(CFA_XSP16, literal(-24)))
        CFI (cfiCond27) VB load(1, XDATA, add(CFA_XSP16, literal(-23)))
        CFI (cfiCond27) V0 load(1, XDATA, add(CFA_XSP16, literal(-22)))
        CFI (cfiCond27) V1 load(1, XDATA, add(CFA_XSP16, literal(-21)))
        CFI (cfiCond27) V2 load(1, XDATA, add(CFA_XSP16, literal(-20)))
        CFI (cfiCond27) V3 load(1, XDATA, add(CFA_XSP16, literal(-19)))
        CFI (cfiCond27) V4 load(1, XDATA, add(CFA_XSP16, literal(-18)))
        CFI (cfiCond27) V5 load(1, XDATA, add(CFA_XSP16, literal(-17)))
        CFI (cfiCond27) V6 load(1, XDATA, add(CFA_XSP16, literal(-16)))
        CFI (cfiCond27) V7 load(1, XDATA, add(CFA_XSP16, literal(-15)))
        CFI (cfiCond27) V8 load(1, XDATA, add(CFA_XSP16, literal(-14)))
        CFI (cfiCond27) V9 load(1, XDATA, add(CFA_XSP16, literal(-13)))
        CFI (cfiCond27) V10 load(1, XDATA, add(CFA_XSP16, literal(-12)))
        CFI (cfiCond27) V11 load(1, XDATA, add(CFA_XSP16, literal(-11)))
        CFI (cfiCond27) V12 load(1, XDATA, add(CFA_XSP16, literal(-10)))
        CFI (cfiCond27) V13 load(1, XDATA, add(CFA_XSP16, literal(-9)))
        CFI (cfiCond27) V14 load(1, XDATA, add(CFA_XSP16, literal(-8)))
        CFI (cfiCond27) V15 load(1, XDATA, add(CFA_XSP16, literal(-7)))
        CFI (cfiCond27) R7 load(1, XDATA, add(CFA_XSP16, literal(-6)))
        CFI (cfiCond27) ?RET_LOW load(1, XDATA, add(CFA_XSP16, literal(-5)))
        CFI (cfiCond27) ?RET_HIGH load(1, XDATA, add(CFA_XSP16, literal(-4)))
        CFI (cfiCond27) ?BRET_EXT load(1, XDATA, add(CFA_XSP16, literal(-3)))
        CFI (cfiCond27) DPL0 load(1, XDATA, add(CFA_XSP16, literal(-2)))
        CFI (cfiCond27) DPH0 load(1, XDATA, add(CFA_XSP16, literal(-1)))
        CFI (cfiCond27) CFA_SP SP+0
        CFI (cfiCond27) CFA_XSP16 add(XSP16, 30)
        CFI Block cfiCond28 Using cfiCommon0
        CFI (cfiCond28) NoFunction
        CFI (cfiCond28) Conditional ??CrossCallReturnLabel_9
        CFI (cfiCond28) R6 load(1, XDATA, add(CFA_XSP16, literal(-24)))
        CFI (cfiCond28) VB load(1, XDATA, add(CFA_XSP16, literal(-23)))
        CFI (cfiCond28) V0 load(1, XDATA, add(CFA_XSP16, literal(-22)))
        CFI (cfiCond28) V1 load(1, XDATA, add(CFA_XSP16, literal(-21)))
        CFI (cfiCond28) V2 load(1, XDATA, add(CFA_XSP16, literal(-20)))
        CFI (cfiCond28) V3 load(1, XDATA, add(CFA_XSP16, literal(-19)))
        CFI (cfiCond28) V4 load(1, XDATA, add(CFA_XSP16, literal(-18)))
        CFI (cfiCond28) V5 load(1, XDATA, add(CFA_XSP16, literal(-17)))
        CFI (cfiCond28) V6 load(1, XDATA, add(CFA_XSP16, literal(-16)))
        CFI (cfiCond28) V7 load(1, XDATA, add(CFA_XSP16, literal(-15)))
        CFI (cfiCond28) V8 load(1, XDATA, add(CFA_XSP16, literal(-14)))
        CFI (cfiCond28) V9 load(1, XDATA, add(CFA_XSP16, literal(-13)))
        CFI (cfiCond28) V10 load(1, XDATA, add(CFA_XSP16, literal(-12)))
        CFI (cfiCond28) V11 load(1, XDATA, add(CFA_XSP16, literal(-11)))
        CFI (cfiCond28) V12 load(1, XDATA, add(CFA_XSP16, literal(-10)))
        CFI (cfiCond28) V13 load(1, XDATA, add(CFA_XSP16, literal(-9)))
        CFI (cfiCond28) V14 load(1, XDATA, add(CFA_XSP16, literal(-8)))
        CFI (cfiCond28) V15 load(1, XDATA, add(CFA_XSP16, literal(-7)))
        CFI (cfiCond28) R7 load(1, XDATA, add(CFA_XSP16, literal(-6)))
        CFI (cfiCond28) ?RET_LOW load(1, XDATA, add(CFA_XSP16, literal(-5)))
        CFI (cfiCond28) ?RET_HIGH load(1, XDATA, add(CFA_XSP16, literal(-4)))
        CFI (cfiCond28) ?BRET_EXT load(1, XDATA, add(CFA_XSP16, literal(-3)))
        CFI (cfiCond28) DPL0 load(1, XDATA, add(CFA_XSP16, literal(-2)))
        CFI (cfiCond28) DPH0 load(1, XDATA, add(CFA_XSP16, literal(-1)))
        CFI (cfiCond28) CFA_SP SP+0
        CFI (cfiCond28) CFA_XSP16 add(XSP16, 30)
        CFI Block cfiPicker29 Using cfiCommon1
        CFI (cfiPicker29) NoFunction
        CFI (cfiPicker29) Picker
        MOV     DPL,?XSP + 0
        MOV     DPH,?XSP + 1
        CFI EndBlock cfiCond26
        CFI EndBlock cfiCond27
        CFI EndBlock cfiCond28
        CFI EndBlock cfiPicker29
        REQUIRE ??Subroutine6_0
        ; // Fall through to label ??Subroutine6_0

        RSEG BANKED_CODE:CODE:NOROOT(0)
??Subroutine6_0:
        CFI Block cfiCond30 Using cfiCommon0
        CFI NoFunction
        CFI Conditional ??CrossCallReturnLabel_5
        CFI R6 load(1, XDATA, add(CFA_XSP16, literal(-24)))
        CFI VB load(1, XDATA, add(CFA_XSP16, literal(-23)))
        CFI V0 load(1, XDATA, add(CFA_XSP16, literal(-22)))
        CFI V1 load(1, XDATA, add(CFA_XSP16, literal(-21)))
        CFI V2 load(1, XDATA, add(CFA_XSP16, literal(-20)))
        CFI V3 load(1, XDATA, add(CFA_XSP16, literal(-19)))
        CFI V4 load(1, XDATA, add(CFA_XSP16, literal(-18)))
        CFI V5 load(1, XDATA, add(CFA_XSP16, literal(-17)))
        CFI V6 load(1, XDATA, add(CFA_XSP16, literal(-16)))
        CFI V7 load(1, XDATA, add(CFA_XSP16, literal(-15)))
        CFI V8 load(1, XDATA, add(CFA_XSP16, literal(-14)))
        CFI V9 load(1, XDATA, add(CFA_XSP16, literal(-13)))
        CFI V10 load(1, XDATA, add(CFA_XSP16, literal(-12)))
        CFI V11 load(1, XDATA, add(CFA_XSP16, literal(-11)))
        CFI V12 load(1, XDATA, add(CFA_XSP16, literal(-10)))
        CFI V13 load(1, XDATA, add(CFA_XSP16, literal(-9)))
        CFI V14 load(1, XDATA, add(CFA_XSP16, literal(-8)))
        CFI V15 load(1, XDATA, add(CFA_XSP16, literal(-7)))
        CFI R7 load(1, XDATA, add(CFA_XSP16, literal(-6)))
        CFI ?RET_LOW load(1, XDATA, add(CFA_XSP16, literal(-5)))
        CFI ?RET_HIGH load(1, XDATA, add(CFA_XSP16, literal(-4)))
        CFI ?BRET_EXT load(1, XDATA, add(CFA_XSP16, literal(-3)))
        CFI DPL0 load(1, XDATA, add(CFA_XSP16, literal(-2)))
        CFI DPH0 load(1, XDATA, add(CFA_XSP16, literal(-1)))
        CFI CFA_SP SP+0
        CFI CFA_XSP16 add(XSP16, 30)
        CFI Block cfiCond31 Using cfiCommon0
        CFI (cfiCond31) NoFunction
        CFI (cfiCond31) Conditional ??CrossCallReturnLabel_6
        CFI (cfiCond31) R6 load(1, XDATA, add(CFA_XSP16, literal(-24)))
        CFI (cfiCond31) VB load(1, XDATA, add(CFA_XSP16, literal(-23)))
        CFI (cfiCond31) V0 load(1, XDATA, add(CFA_XSP16, literal(-22)))
        CFI (cfiCond31) V1 load(1, XDATA, add(CFA_XSP16, literal(-21)))
        CFI (cfiCond31) V2 load(1, XDATA, add(CFA_XSP16, literal(-20)))
        CFI (cfiCond31) V3 load(1, XDATA, add(CFA_XSP16, literal(-19)))
        CFI (cfiCond31) V4 load(1, XDATA, add(CFA_XSP16, literal(-18)))
        CFI (cfiCond31) V5 load(1, XDATA, add(CFA_XSP16, literal(-17)))
        CFI (cfiCond31) V6 load(1, XDATA, add(CFA_XSP16, literal(-16)))
        CFI (cfiCond31) V7 load(1, XDATA, add(CFA_XSP16, literal(-15)))
        CFI (cfiCond31) V8 load(1, XDATA, add(CFA_XSP16, literal(-14)))
        CFI (cfiCond31) V9 load(1, XDATA, add(CFA_XSP16, literal(-13)))
        CFI (cfiCond31) V10 load(1, XDATA, add(CFA_XSP16, literal(-12)))
        CFI (cfiCond31) V11 load(1, XDATA, add(CFA_XSP16, literal(-11)))
        CFI (cfiCond31) V12 load(1, XDATA, add(CFA_XSP16, literal(-10)))
        CFI (cfiCond31) V13 load(1, XDATA, add(CFA_XSP16, literal(-9)))
        CFI (cfiCond31) V14 load(1, XDATA, add(CFA_XSP16, literal(-8)))
        CFI (cfiCond31) V15 load(1, XDATA, add(CFA_XSP16, literal(-7)))
        CFI (cfiCond31) R7 load(1, XDATA, add(CFA_XSP16, literal(-6)))
        CFI (cfiCond31) ?RET_LOW load(1, XDATA, add(CFA_XSP16, literal(-5)))
        CFI (cfiCond31) ?RET_HIGH load(1, XDATA, add(CFA_XSP16, literal(-4)))
        CFI (cfiCond31) ?BRET_EXT load(1, XDATA, add(CFA_XSP16, literal(-3)))
        CFI (cfiCond31) DPL0 load(1, XDATA, add(CFA_XSP16, literal(-2)))
        CFI (cfiCond31) DPH0 load(1, XDATA, add(CFA_XSP16, literal(-1)))
        CFI (cfiCond31) CFA_SP SP+0
        CFI (cfiCond31) CFA_XSP16 add(XSP16, 30)
        CFI Block cfiCond32 Using cfiCommon0
        CFI (cfiCond32) NoFunction
        CFI (cfiCond32) Conditional ??CrossCallReturnLabel_7
        CFI (cfiCond32) R6 load(1, XDATA, add(CFA_XSP16, literal(-24)))
        CFI (cfiCond32) VB load(1, XDATA, add(CFA_XSP16, literal(-23)))
        CFI (cfiCond32) V0 load(1, XDATA, add(CFA_XSP16, literal(-22)))
        CFI (cfiCond32) V1 load(1, XDATA, add(CFA_XSP16, literal(-21)))
        CFI (cfiCond32) V2 load(1, XDATA, add(CFA_XSP16, literal(-20)))
        CFI (cfiCond32) V3 load(1, XDATA, add(CFA_XSP16, literal(-19)))
        CFI (cfiCond32) V4 load(1, XDATA, add(CFA_XSP16, literal(-18)))
        CFI (cfiCond32) V5 load(1, XDATA, add(CFA_XSP16, literal(-17)))
        CFI (cfiCond32) V6 load(1, XDATA, add(CFA_XSP16, literal(-16)))
        CFI (cfiCond32) V7 load(1, XDATA, add(CFA_XSP16, literal(-15)))
        CFI (cfiCond32) V8 load(1, XDATA, add(CFA_XSP16, literal(-14)))
        CFI (cfiCond32) V9 load(1, XDATA, add(CFA_XSP16, literal(-13)))
        CFI (cfiCond32) V10 load(1, XDATA, add(CFA_XSP16, literal(-12)))
        CFI (cfiCond32) V11 load(1, XDATA, add(CFA_XSP16, literal(-11)))
        CFI (cfiCond32) V12 load(1, XDATA, add(CFA_XSP16, literal(-10)))
        CFI (cfiCond32) V13 load(1, XDATA, add(CFA_XSP16, literal(-9)))
        CFI (cfiCond32) V14 load(1, XDATA, add(CFA_XSP16, literal(-8)))
        CFI (cfiCond32) V15 load(1, XDATA, add(CFA_XSP16, literal(-7)))
        CFI (cfiCond32) R7 load(1, XDATA, add(CFA_XSP16, literal(-6)))
        CFI (cfiCond32) ?RET_LOW load(1, XDATA, add(CFA_XSP16, literal(-5)))
        CFI (cfiCond32) ?RET_HIGH load(1, XDATA, add(CFA_XSP16, literal(-4)))
        CFI (cfiCond32) ?BRET_EXT load(1, XDATA, add(CFA_XSP16, literal(-3)))
        CFI (cfiCond32) DPL0 load(1, XDATA, add(CFA_XSP16, literal(-2)))
        CFI (cfiCond32) DPH0 load(1, XDATA, add(CFA_XSP16, literal(-1)))
        CFI (cfiCond32) CFA_SP SP+0
        CFI (cfiCond32) CFA_XSP16 add(XSP16, 30)
        CFI Block cfiCond33 Using cfiCommon0
        CFI (cfiCond33) NoFunction
        CFI (cfiCond33) Conditional ??CrossCallReturnLabel_8
        CFI (cfiCond33) R6 load(1, XDATA, add(CFA_XSP16, literal(-24)))
        CFI (cfiCond33) VB load(1, XDATA, add(CFA_XSP16, literal(-23)))
        CFI (cfiCond33) V0 load(1, XDATA, add(CFA_XSP16, literal(-22)))
        CFI (cfiCond33) V1 load(1, XDATA, add(CFA_XSP16, literal(-21)))
        CFI (cfiCond33) V2 load(1, XDATA, add(CFA_XSP16, literal(-20)))
        CFI (cfiCond33) V3 load(1, XDATA, add(CFA_XSP16, literal(-19)))
        CFI (cfiCond33) V4 load(1, XDATA, add(CFA_XSP16, literal(-18)))
        CFI (cfiCond33) V5 load(1, XDATA, add(CFA_XSP16, literal(-17)))
        CFI (cfiCond33) V6 load(1, XDATA, add(CFA_XSP16, literal(-16)))
        CFI (cfiCond33) V7 load(1, XDATA, add(CFA_XSP16, literal(-15)))
        CFI (cfiCond33) V8 load(1, XDATA, add(CFA_XSP16, literal(-14)))
        CFI (cfiCond33) V9 load(1, XDATA, add(CFA_XSP16, literal(-13)))
        CFI (cfiCond33) V10 load(1, XDATA, add(CFA_XSP16, literal(-12)))
        CFI (cfiCond33) V11 load(1, XDATA, add(CFA_XSP16, literal(-11)))
        CFI (cfiCond33) V12 load(1, XDATA, add(CFA_XSP16, literal(-10)))
        CFI (cfiCond33) V13 load(1, XDATA, add(CFA_XSP16, literal(-9)))
        CFI (cfiCond33) V14 load(1, XDATA, add(CFA_XSP16, literal(-8)))
        CFI (cfiCond33) V15 load(1, XDATA, add(CFA_XSP16, literal(-7)))
        CFI (cfiCond33) R7 load(1, XDATA, add(CFA_XSP16, literal(-6)))
        CFI (cfiCond33) ?RET_LOW load(1, XDATA, add(CFA_XSP16, literal(-5)))
        CFI (cfiCond33) ?RET_HIGH load(1, XDATA, add(CFA_XSP16, literal(-4)))
        CFI (cfiCond33) ?BRET_EXT load(1, XDATA, add(CFA_XSP16, literal(-3)))
        CFI (cfiCond33) DPL0 load(1, XDATA, add(CFA_XSP16, literal(-2)))
        CFI (cfiCond33) DPH0 load(1, XDATA, add(CFA_XSP16, literal(-1)))
        CFI (cfiCond33) CFA_SP SP+0
        CFI (cfiCond33) CFA_XSP16 add(XSP16, 30)
        CFI Block cfiCond34 Using cfiCommon0
        CFI (cfiCond34) NoFunction
        CFI (cfiCond34) Conditional ??CrossCallReturnLabel_9
        CFI (cfiCond34) R6 load(1, XDATA, add(CFA_XSP16, literal(-24)))
        CFI (cfiCond34) VB load(1, XDATA, add(CFA_XSP16, literal(-23)))
        CFI (cfiCond34) V0 load(1, XDATA, add(CFA_XSP16, literal(-22)))
        CFI (cfiCond34) V1 load(1, XDATA, add(CFA_XSP16, literal(-21)))
        CFI (cfiCond34) V2 load(1, XDATA, add(CFA_XSP16, literal(-20)))
        CFI (cfiCond34) V3 load(1, XDATA, add(CFA_XSP16, literal(-19)))
        CFI (cfiCond34) V4 load(1, XDATA, add(CFA_XSP16, literal(-18)))
        CFI (cfiCond34) V5 load(1, XDATA, add(CFA_XSP16, literal(-17)))
        CFI (cfiCond34) V6 load(1, XDATA, add(CFA_XSP16, literal(-16)))
        CFI (cfiCond34) V7 load(1, XDATA, add(CFA_XSP16, literal(-15)))
        CFI (cfiCond34) V8 load(1, XDATA, add(CFA_XSP16, literal(-14)))
        CFI (cfiCond34) V9 load(1, XDATA, add(CFA_XSP16, literal(-13)))
        CFI (cfiCond34) V10 load(1, XDATA, add(CFA_XSP16, literal(-12)))
        CFI (cfiCond34) V11 load(1, XDATA, add(CFA_XSP16, literal(-11)))
        CFI (cfiCond34) V12 load(1, XDATA, add(CFA_XSP16, literal(-10)))
        CFI (cfiCond34) V13 load(1, XDATA, add(CFA_XSP16, literal(-9)))
        CFI (cfiCond34) V14 load(1, XDATA, add(CFA_XSP16, literal(-8)))
        CFI (cfiCond34) V15 load(1, XDATA, add(CFA_XSP16, literal(-7)))
        CFI (cfiCond34) R7 load(1, XDATA, add(CFA_XSP16, literal(-6)))
        CFI (cfiCond34) ?RET_LOW load(1, XDATA, add(CFA_XSP16, literal(-5)))
        CFI (cfiCond34) ?RET_HIGH load(1, XDATA, add(CFA_XSP16, literal(-4)))
        CFI (cfiCond34) ?BRET_EXT load(1, XDATA, add(CFA_XSP16, literal(-3)))
        CFI (cfiCond34) DPL0 load(1, XDATA, add(CFA_XSP16, literal(-2)))
        CFI (cfiCond34) DPH0 load(1, XDATA, add(CFA_XSP16, literal(-1)))
        CFI (cfiCond34) CFA_SP SP+0
        CFI (cfiCond34) CFA_XSP16 add(XSP16, 30)
        CFI Block cfiPicker35 Using cfiCommon1
        CFI (cfiPicker35) NoFunction
        CFI (cfiPicker35) Picker
        LCALL   ??Subroutine5_0 & 0xFFFF
??CrossCallReturnLabel_13:
        MOVX    A,@DPTR
        RET
        CFI EndBlock cfiCond30
        CFI EndBlock cfiCond31
        CFI EndBlock cfiCond32
        CFI EndBlock cfiCond33
        CFI EndBlock cfiCond34
        CFI EndBlock cfiPicker35

        RSEG BANKED_CODE:CODE:NOROOT(0)
?Subroutine0:
        CFI Block cfiCond36 Using cfiCommon0
        CFI NoFunction
        CFI Conditional ??CrossCallReturnLabel_0
        CFI R6 load(1, XDATA, add(CFA_XSP16, literal(-24)))
        CFI VB load(1, XDATA, add(CFA_XSP16, literal(-23)))
        CFI V0 load(1, XDATA, add(CFA_XSP16, literal(-22)))
        CFI V1 load(1, XDATA, add(CFA_XSP16, literal(-21)))
        CFI V2 load(1, XDATA, add(CFA_XSP16, literal(-20)))
        CFI V3 load(1, XDATA, add(CFA_XSP16, literal(-19)))
        CFI V4 load(1, XDATA, add(CFA_XSP16, literal(-18)))
        CFI V5 load(1, XDATA, add(CFA_XSP16, literal(-17)))
        CFI V6 load(1, XDATA, add(CFA_XSP16, literal(-16)))
        CFI V7 load(1, XDATA, add(CFA_XSP16, literal(-15)))
        CFI V8 load(1, XDATA, add(CFA_XSP16, literal(-14)))
        CFI V9 load(1, XDATA, add(CFA_XSP16, literal(-13)))
        CFI V10 load(1, XDATA, add(CFA_XSP16, literal(-12)))
        CFI V11 load(1, XDATA, add(CFA_XSP16, literal(-11)))
        CFI V12 load(1, XDATA, add(CFA_XSP16, literal(-10)))
        CFI V13 load(1, XDATA, add(CFA_XSP16, literal(-9)))
        CFI V14 load(1, XDATA, add(CFA_XSP16, literal(-8)))
        CFI V15 load(1, XDATA, add(CFA_XSP16, literal(-7)))
        CFI R7 load(1, XDATA, add(CFA_XSP16, literal(-6)))
        CFI ?RET_LOW load(1, XDATA, add(CFA_XSP16, literal(-5)))
        CFI ?RET_HIGH load(1, XDATA, add(CFA_XSP16, literal(-4)))
        CFI ?BRET_EXT load(1, XDATA, add(CFA_XSP16, literal(-3)))
        CFI DPL0 load(1, XDATA, add(CFA_XSP16, literal(-2)))
        CFI DPH0 load(1, XDATA, add(CFA_XSP16, literal(-1)))
        CFI CFA_SP SP+0
        CFI CFA_XSP16 add(XSP16, 30)
        CFI Block cfiCond37 Using cfiCommon0
        CFI (cfiCond37) NoFunction
        CFI (cfiCond37) Conditional ??CrossCallReturnLabel_1
        CFI (cfiCond37) R6 load(1, XDATA, add(CFA_XSP16, literal(-24)))
        CFI (cfiCond37) VB load(1, XDATA, add(CFA_XSP16, literal(-23)))
        CFI (cfiCond37) V0 load(1, XDATA, add(CFA_XSP16, literal(-22)))
        CFI (cfiCond37) V1 load(1, XDATA, add(CFA_XSP16, literal(-21)))
        CFI (cfiCond37) V2 load(1, XDATA, add(CFA_XSP16, literal(-20)))
        CFI (cfiCond37) V3 load(1, XDATA, add(CFA_XSP16, literal(-19)))
        CFI (cfiCond37) V4 load(1, XDATA, add(CFA_XSP16, literal(-18)))
        CFI (cfiCond37) V5 load(1, XDATA, add(CFA_XSP16, literal(-17)))
        CFI (cfiCond37) V6 load(1, XDATA, add(CFA_XSP16, literal(-16)))
        CFI (cfiCond37) V7 load(1, XDATA, add(CFA_XSP16, literal(-15)))
        CFI (cfiCond37) V8 load(1, XDATA, add(CFA_XSP16, literal(-14)))
        CFI (cfiCond37) V9 load(1, XDATA, add(CFA_XSP16, literal(-13)))
        CFI (cfiCond37) V10 load(1, XDATA, add(CFA_XSP16, literal(-12)))
        CFI (cfiCond37) V11 load(1, XDATA, add(CFA_XSP16, literal(-11)))
        CFI (cfiCond37) V12 load(1, XDATA, add(CFA_XSP16, literal(-10)))
        CFI (cfiCond37) V13 load(1, XDATA, add(CFA_XSP16, literal(-9)))
        CFI (cfiCond37) V14 load(1, XDATA, add(CFA_XSP16, literal(-8)))
        CFI (cfiCond37) V15 load(1, XDATA, add(CFA_XSP16, literal(-7)))
        CFI (cfiCond37) R7 load(1, XDATA, add(CFA_XSP16, literal(-6)))
        CFI (cfiCond37) ?RET_LOW load(1, XDATA, add(CFA_XSP16, literal(-5)))
        CFI (cfiCond37) ?RET_HIGH load(1, XDATA, add(CFA_XSP16, literal(-4)))
        CFI (cfiCond37) ?BRET_EXT load(1, XDATA, add(CFA_XSP16, literal(-3)))
        CFI (cfiCond37) DPL0 load(1, XDATA, add(CFA_XSP16, literal(-2)))
        CFI (cfiCond37) DPH0 load(1, XDATA, add(CFA_XSP16, literal(-1)))
        CFI (cfiCond37) CFA_SP SP+0
        CFI (cfiCond37) CFA_XSP16 add(XSP16, 30)
        CFI Block cfiPicker38 Using cfiCommon1
        CFI (cfiPicker38) NoFunction
        CFI (cfiPicker38) Picker
        MOV     DPL,?XSP + 0
        MOV     DPH,?XSP + 1
        LCALL   ?Subroutine3 & 0xFFFF
??CrossCallReturnLabel_11:
        MOVX    A,@DPTR
        MOV     C,0xE0 /* A   */.1
        RET
        CFI EndBlock cfiCond36
        CFI EndBlock cfiCond37
        CFI EndBlock cfiPicker38
//  365 
//  366 /***************************************************************************************************
//  367  * @fn      HalLedOnOff
//  368  *
//  369  * @brief   Turns specified LED ON or OFF
//  370  *
//  371  * @param   leds - LED bit mask
//  372  *          mode - LED_ON,LED_OFF,
//  373  *
//  374  * @return  none
//  375  ***************************************************************************************************/

        RSEG BANKED_CODE:CODE:NOROOT(0)
//  376 void HalLedOnOff (uint8 leds, uint8 mode)
HalLedOnOff:
        CFI Block cfiBlock39 Using cfiCommon0
        CFI Function HalLedOnOff
//  377 {
        PUSH    DPL
        CFI DPL0 Frame(CFA_SP, 4)
        CFI CFA_SP SP+-4
        PUSH    DPH
        CFI DPH0 Frame(CFA_SP, 5)
        CFI CFA_SP SP+-5
        ; Saved register size: 2
        ; Auto size: 0
//  378   if (leds & HAL_LED_1)
        MOV     A,R1
        MOV     C,0xE0 /* A   */.0
        JNC     ??HalLedOnOff_0
//  379   {
//  380     if (mode == HAL_LED_MODE_ON)
        MOV     A,#0x1
        XRL     A,R2
        JNZ     ??HalLedOnOff_1
//  381     {
//  382       HAL_TURN_ON_LED1();
        SETB    0x90.0
        SJMP    ??HalLedOnOff_0
//  383     }
//  384     else
//  385     {
//  386       HAL_TURN_OFF_LED1();
??HalLedOnOff_1:
        CLR     0x90.0
//  387     }
//  388   }
//  389 
//  390   if (leds & HAL_LED_2)
??HalLedOnOff_0:
        MOV     A,R1
        MOV     C,0xE0 /* A   */.1
        JNC     ??HalLedOnOff_2
//  391   {
//  392     if (mode == HAL_LED_MODE_ON)
        MOV     A,#0x1
        XRL     A,R2
        JNZ     ??HalLedOnOff_3
//  393     {
//  394       HAL_TURN_ON_LED2();
        SETB    0x90.1
        SJMP    ??HalLedOnOff_2
//  395     }
//  396     else
//  397     {
//  398       HAL_TURN_OFF_LED2();
??HalLedOnOff_3:
        CLR     0x90.1
//  399     }
//  400   }
//  401 
//  402   if (leds & HAL_LED_3)
??HalLedOnOff_2:
        MOV     A,R1
        MOV     C,0xE0 /* A   */.2
        JNC     ??HalLedOnOff_4
//  403   {
//  404     if (mode == HAL_LED_MODE_ON)
        MOV     A,#0x1
        XRL     A,R2
        JNZ     ??HalLedOnOff_5
//  405     {
//  406       HAL_TURN_ON_LED3();
        SETB    0x90.4
        SJMP    ??HalLedOnOff_4
//  407     }
//  408     else
//  409     {
//  410       HAL_TURN_OFF_LED3();
??HalLedOnOff_5:
        CLR     0x90.4
//  411     }
//  412   }
//  413 
//  414   if (leds & HAL_LED_4)
??HalLedOnOff_4:
        MOV     A,R1
        MOV     C,0xE0 /* A   */.3
        JNC     ??HalLedOnOff_6
//  415   {
//  416     if (mode == HAL_LED_MODE_ON)
        MOV     A,#0x1
        XRL     A,R2
        JNZ     ??HalLedOnOff_7
//  417     {
//  418       HAL_TURN_ON_LED4();
        SETB    0x90.0
        SJMP    ??HalLedOnOff_8
//  419     }
//  420     else
//  421     {
//  422       HAL_TURN_OFF_LED4();
??HalLedOnOff_7:
        CLR     0x90.0
//  423     }
//  424   }
//  425 
//  426   /* Remember current state */
//  427   if (mode)
??HalLedOnOff_6:
        MOV     A,R2
        JZ      ??HalLedOnOff_9
//  428   {
//  429     HalLedState |= leds;
??HalLedOnOff_8:
        MOV     DPTR,#HalLedState
        MOVX    A,@DPTR
        ORL     A,R1
        SJMP    ??HalLedOnOff_10
//  430   }
//  431   else
//  432   {
//  433     HalLedState &= (leds ^ 0xFF);
??HalLedOnOff_9:
        MOV     A,#-0x1
        XRL     A,R1
        MOV     R2,A
        MOV     DPTR,#HalLedState
        MOVX    A,@DPTR
        ANL     A,R2
//  434   }
??HalLedOnOff_10:
        SJMP    ??Subroutine7_0
        CFI EndBlock cfiBlock39
        REQUIRE _A_P1
//  435 }

        RSEG BANKED_CODE:CODE:NOROOT(0)
?Subroutine4:
        CFI Block cfiBlock40 Using cfiCommon0
        CFI NoFunction
        CFI CFA_SP SP+-5
        CFI DPL0 Frame(CFA_SP, 4)
        CFI DPH0 Frame(CFA_SP, 5)
        CLR     A
        MOV     DPTR,#(HalLedStatusControl + 36)
        CFI EndBlock cfiBlock40
        REQUIRE ??Subroutine7_0
        ; // Fall through to label ??Subroutine7_0

        RSEG BANKED_CODE:CODE:NOROOT(0)
??Subroutine7_0:
        CFI Block cfiBlock41 Using cfiCommon0
        CFI NoFunction
        CFI CFA_SP SP+-5
        CFI DPL0 Frame(CFA_SP, 4)
        CFI DPH0 Frame(CFA_SP, 5)
        MOVX    @DPTR,A
        CFI EndBlock cfiBlock41
        REQUIRE ??Subroutine8_0
        ; // Fall through to label ??Subroutine8_0

        RSEG BANKED_CODE:CODE:NOROOT(0)
??Subroutine8_0:
        CFI Block cfiBlock42 Using cfiCommon0
        CFI NoFunction
        CFI CFA_SP SP+-5
        CFI DPL0 Frame(CFA_SP, 4)
        CFI DPH0 Frame(CFA_SP, 5)
        POP     DPH
        CFI CFA_SP SP+-4
        CFI DPH0 SameValue
        POP     DPL
        CFI CFA_SP SP+-3
        CFI DPL0 SameValue
        LJMP    ?BRET
        CFI EndBlock cfiBlock42
//  436 #endif /* HAL_LED */
//  437 
//  438 /***************************************************************************************************
//  439  * @fn      HalGetLedState
//  440  *
//  441  * @brief   Dim LED2 - Dim (set level) of LED2
//  442  *
//  443  * @param   none
//  444  *
//  445  * @return  led state
//  446  ***************************************************************************************************/

        RSEG BANKED_CODE:CODE:NOROOT(0)
//  447 uint8 HalLedGetState ()
HalLedGetState:
        CFI Block cfiBlock43 Using cfiCommon0
        CFI Function HalLedGetState
//  448 {
        PUSH    DPL
        CFI DPL0 Frame(CFA_SP, 4)
        CFI CFA_SP SP+-4
        PUSH    DPH
        CFI DPH0 Frame(CFA_SP, 5)
        CFI CFA_SP SP+-5
        ; Saved register size: 2
        ; Auto size: 0
//  449 #if (HAL_LED == TRUE)
//  450   return HalLedState;
        MOV     DPTR,#HalLedState
        MOVX    A,@DPTR
        MOV     R1,A
        SJMP    ??Subroutine8_0
        CFI EndBlock cfiBlock43
//  451 #else
//  452   return 0;
//  453 #endif
//  454 }
//  455 
//  456 /***************************************************************************************************
//  457  * @fn      HalLedEnterSleep
//  458  *
//  459  * @brief   Store current LEDs state before sleep
//  460  *
//  461  * @param   none
//  462  *
//  463  * @return  none
//  464  ***************************************************************************************************/

        RSEG BANKED_CODE:CODE:NOROOT(0)
//  465 void HalLedEnterSleep( void )
HalLedEnterSleep:
        CFI Block cfiBlock44 Using cfiCommon0
        CFI Function HalLedEnterSleep
//  466 {
        FUNCALL HalLedEnterSleep, HalLedOnOff
        LOCFRAME ISTACK, 2, STACK
        LOCFRAME PSTACK, 0, STACK
        LOCFRAME XSTACK, 0, STACK
        LOCFRAME IOVERLAY, 0, STATIC
        LOCFRAME DOVERLAY, 0, STATIC
        ARGFRAME ISTACK, 2, STACK
        ARGFRAME PSTACK, 0, STACK
        ARGFRAME XSTACK, 0, STACK
        ARGFRAME IOVERLAY, 0, STATIC
        ARGFRAME DOVERLAY, 0, STATIC
        PUSH    DPL
        CFI DPL0 Frame(CFA_SP, 4)
        CFI CFA_SP SP+-4
        PUSH    DPH
        CFI DPH0 Frame(CFA_SP, 5)
        CFI CFA_SP SP+-5
        ; Saved register size: 2
        ; Auto size: 0
//  467 #ifdef BLINK_LEDS
//  468   /* Sleep ON */
//  469   HalLedStatusControl.sleepActive = TRUE;
        MOV     A,#0x1
        MOV     DPTR,#(HalLedStatusControl + 36)
        MOVX    @DPTR,A
//  470 #endif /* BLINK_LEDS */
//  471 
//  472 #if (HAL_LED == TRUE)
//  473   /* Save the state of each led */
//  474   HalSleepLedState = 0;
//  475   HalSleepLedState |= HAL_STATE_LED1();
        MOV     C,0x90.0
        CLR     A
        MOV     0xE0 /* A   */.0,C
        MOV     DPTR,#HalSleepLedState
        MOVX    @DPTR,A
//  476   HalSleepLedState |= HAL_STATE_LED2() << 1;
        MOV     C,0x90.1
        JNC     ??HalLedEnterSleep_0
        SETB    B.0
        SJMP    ??HalLedEnterSleep_1
??HalLedEnterSleep_0:
        CLR     B.0
??HalLedEnterSleep_1:
        MOV     C,B.0
        CLR     A
        MOV     0xE0 /* A   */.0,C
        CLR     C
        RLC     A
        MOV     R2,A
        MOVX    A,@DPTR
        ORL     A,R2
        MOVX    @DPTR,A
//  477   HalSleepLedState |= HAL_STATE_LED3() << 2;
        MOV     C,0x90.4
        JNC     ??HalLedEnterSleep_2
        SETB    B.0
        SJMP    ??HalLedEnterSleep_3
??HalLedEnterSleep_2:
        CLR     B.0
??HalLedEnterSleep_3:
        MOV     C,B.0
        CLR     A
        MOV     0xE0 /* A   */.0,C
        RLC     A
        RLC     A
        ANL     A,#0xfc
        MOV     R2,A
        MOVX    A,@DPTR
        ORL     A,R2
        MOVX    @DPTR,A
//  478   HalSleepLedState |= HAL_STATE_LED4() << 3;
        MOV     C,0x90.0
        CLR     A
        MOV     0xE0 /* A   */.0,C
        RLC     A
        RLC     A
        RLC     A
        ANL     A,#0xf8
        MOV     R2,A
        MOVX    A,@DPTR
        ORL     A,R2
        MOVX    @DPTR,A
//  479 
//  480   /* TURN OFF all LEDs to save power */
//  481   HalLedOnOff (HAL_LED_ALL, HAL_LED_MODE_OFF);
        ; Setup parameters for call to function HalLedOnOff
        MOV     R2,#0x0
        MOV     R1,#0xf
        LCALL   ??HalLedOnOff?relay
//  482 #endif /* HAL_LED */
//  483 
//  484 }
        SJMP    ??Subroutine8_0
        CFI EndBlock cfiBlock44
        REQUIRE _A_P1
//  485 
//  486 /***************************************************************************************************
//  487  * @fn      HalLedExitSleep
//  488  *
//  489  * @brief   Restore current LEDs state after sleep
//  490  *
//  491  * @param   none
//  492  *
//  493  * @return  none
//  494  ***************************************************************************************************/

        RSEG BANKED_CODE:CODE:NOROOT(0)
//  495 void HalLedExitSleep( void )
HalLedExitSleep:
        CFI Block cfiBlock45 Using cfiCommon0
        CFI Function HalLedExitSleep
//  496 {
        FUNCALL HalLedExitSleep, HalLedOnOff
        LOCFRAME ISTACK, 2, STACK
        LOCFRAME PSTACK, 0, STACK
        LOCFRAME XSTACK, 0, STACK
        LOCFRAME IOVERLAY, 0, STATIC
        LOCFRAME DOVERLAY, 0, STATIC
        ARGFRAME ISTACK, 2, STACK
        ARGFRAME PSTACK, 0, STACK
        ARGFRAME XSTACK, 0, STACK
        ARGFRAME IOVERLAY, 0, STATIC
        ARGFRAME DOVERLAY, 0, STATIC
        FUNCALL HalLedExitSleep, HalLedUpdate
        LOCFRAME ISTACK, 2, STACK
        LOCFRAME PSTACK, 0, STACK
        LOCFRAME XSTACK, 0, STACK
        LOCFRAME IOVERLAY, 0, STATIC
        LOCFRAME DOVERLAY, 0, STATIC
        ARGFRAME ISTACK, 2, STACK
        ARGFRAME PSTACK, 0, STACK
        ARGFRAME XSTACK, 0, STACK
        ARGFRAME IOVERLAY, 0, STATIC
        ARGFRAME DOVERLAY, 0, STATIC
        PUSH    DPL
        CFI DPL0 Frame(CFA_SP, 4)
        CFI CFA_SP SP+-4
        PUSH    DPH
        CFI DPH0 Frame(CFA_SP, 5)
        CFI CFA_SP SP+-5
        ; Saved register size: 2
        ; Auto size: 0
//  497 #if (HAL_LED == TRUE)
//  498   /* Load back the saved state */
//  499   HalLedOnOff(HalSleepLedState, HAL_LED_MODE_ON);
        ; Setup parameters for call to function HalLedOnOff
        MOV     R2,#0x1
        MOV     DPTR,#HalSleepLedState
        MOVX    A,@DPTR
        MOV     R1,A
        LCALL   ??HalLedOnOff?relay
//  500 
//  501   /* Restart - This takes care BLINKING LEDS */
//  502   HalLedUpdate();
        ; Setup parameters for call to function HalLedUpdate
        LCALL   ??HalLedUpdate?relay
//  503 #endif /* HAL_LED */
//  504 
//  505 #ifdef BLINK_LEDS
//  506   /* Sleep OFF */
//  507   HalLedStatusControl.sleepActive = FALSE;
        LJMP    ?Subroutine4 & 0xFFFF
        CFI EndBlock cfiBlock45
//  508 #endif /* BLINK_LEDS */
//  509 }

        RSEG XDATA_ROM_C:CONST:REORDER:NOROOT(0)
        DATA
__Constant_64:
        DD 100

        RSEG BANK_RELAYS:CODE:REORDER:NOROOT(0)
??HalLedInit?relay:
        LCALL   ?BDISPATCH
        DATA
        DC24    HalLedInit

        RSEG BANK_RELAYS:CODE:REORDER:NOROOT(0)
??HalLedSet?relay:
        LCALL   ?BDISPATCH
        DATA
        DC24    HalLedSet

        RSEG BANK_RELAYS:CODE:REORDER:NOROOT(0)
??HalLedBlink?relay:
        LCALL   ?BDISPATCH
        DATA
        DC24    HalLedBlink

        RSEG BANK_RELAYS:CODE:REORDER:NOROOT(0)
??HalLedUpdate?relay:
        LCALL   ?BDISPATCH
        DATA
        DC24    HalLedUpdate

        RSEG BANK_RELAYS:CODE:REORDER:NOROOT(0)
??HalLedOnOff?relay:
        LCALL   ?BDISPATCH
        DATA
        DC24    HalLedOnOff

        RSEG BANK_RELAYS:CODE:REORDER:NOROOT(0)
??HalLedGetState?relay:
        LCALL   ?BDISPATCH
        DATA
        DC24    HalLedGetState

        RSEG BANK_RELAYS:CODE:REORDER:NOROOT(0)
??HalLedEnterSleep?relay:
        LCALL   ?BDISPATCH
        DATA
        DC24    HalLedEnterSleep

        RSEG BANK_RELAYS:CODE:REORDER:NOROOT(0)
??HalLedExitSleep?relay:
        LCALL   ?BDISPATCH
        DATA
        DC24    HalLedExitSleep

        END
//  510 
//  511 /***************************************************************************************************
//  512 ***************************************************************************************************/
//  513 
//  514 
//  515 
//  516 
// 
// 1 134 bytes in segment BANKED_CODE
//    48 bytes in segment BANK_RELAYS
//     1 byte  in segment SFR_AN
//     4 bytes in segment XDATA_ROM_C
//    40 bytes in segment XDATA_Z
// 
// 1 182 bytes of CODE  memory
//     0 bytes of CONST memory (+ 4 bytes shared)
//     0 bytes of DATA  memory (+ 1 byte  shared)
//    40 bytes of XDATA memory
//
//Errors: none
//Warnings: none
