///////////////////////////////////////////////////////////////////////////////
//                                                                            /
// IAR C/C++ Compiler V7.51A/W32 for 8051               30/May/2015  21:46:01 /
// Copyright 2004-2009 IAR Systems AB.                                        /
//                                                                            /
//    Core               =  plain                                             /
//    Code model         =  banked                                            /
//    Data model         =  large                                             /
//    Calling convention =  xdata reentrant                                   /
//    Constant location  =  data_rom                                          /
//    Dptr setup         =  1,16                                              /
//    Source file        =  C:\Texas Instruments\ZStack-CC2530-2.3.0-1.4.0\Co /
//                          mponents\mac\low_level\srf04\mac_sleep.c          /
//    Command line       =  -f "C:\Texas Instruments\ZStack-CC2530-2.3.0-1.4. /
//                          0\Projects\zstack\Samples\ParkingS\CC2530DB\..\.. /
//                          \..\Tools\CC2530DB\f8wEndev.cfg" (-DCPU32MHZ      /
//                          -DROOT=__near_func -DBLINK_LEDS) -f "C:\Texas     /
//                          Instruments\ZStack-CC2530-2.3.0-1.4.0\Projects\zs /
//                          tack\Samples\ParkingS\CC2530DB\..\..\..\Tools\CC2 /
//                          530DB\f8wConfig.cfg" (-DSECURE=0                  /
//                          -DZG_SECURE_DYNAMIC=0 -DREFLECTOR                 /
//                          -DDEFAULT_CHANLIST=0x00000800                     /
//                          -DZDAPP_CONFIG_PAN_ID=0xFFFF                      /
//                          -DNWK_START_DELAY=100 -DEXTENDED_JOINING_RANDOM_M /
//                          ASK=0x007F -DBEACON_REQUEST_DELAY=100             /
//                          -DBEACON_REQ_DELAY_MASK=0x00FF                    /
//                          -DROUTE_EXPIRY_TIME=30 -DAPSC_ACK_WAIT_DURATION_P /
//                          OLLED=3000 -DNWK_INDIRECT_MSG_TIMEOUT=7           /
//                          -DMAX_RREQ_ENTRIES=8 -DAPSC_MAX_FRAME_RETRIES=3   /
//                          -DNWK_MAX_DATA_RETRIES=2                          /
//                          -DMAX_POLL_FAILURE_RETRIES=2 -DMAX_BCAST=9        /
//                          -DAPS_MAX_GROUPS=16 -DMAX_RTG_ENTRIES=40          /
//                          -DNWK_MAX_BINDING_ENTRIES=4                       /
//                          -DMAX_BINDING_CLUSTER_IDS=4                       /
//                          "-DDEFAULT_KEY={0x01, 0x03, 0x05, 0x07, 0x09,     /
//                          0x0B, 0x0D, 0x0F, 0x00, 0x02, 0x04, 0x06, 0x08,   /
//                          0x0A, 0x0C, 0x0D}" -DMAC_MAX_FRAME_SIZE=116       /
//                          "-DCONST=const __code" -DGENERIC=__generic        /
//                          -DRFD_RCVC_ALWAYS_ON=FALSE -DPOLL_RATE=1000       /
//                          -DQUEUED_POLL_RATE=100 -DRESPONSE_POLL_RATE=100)  /
//                          -DREJOIN_POLL_RATE=440 "C:\Texas                  /
//                          Instruments\ZStack-CC2530-2.3.0-1.4.0\Components\ /
//                          mac\low_level\srf04\mac_sleep.c" -D               /
//                          NWK_AUTO_POLL -D ENDDEVICE -D ZTOOL_P1 -D         /
//                          MT_TASK -D MT_SYS_FUNC -D MT_ZDO_FUNC -D          /
//                          SerialApp_CallBack -D xLCD_SUPPORTED=DEBUG -lC    /
//                          "C:\Texas Instruments\ZStack-CC2530-2.3.0-1.4.0\P /
//                          rojects\zstack\Samples\ParkingS\CC2530DB\EndDevic /
//                          eEB\List\" -lA "C:\Texas                          /
//                          Instruments\ZStack-CC2530-2.3.0-1.4.0\Projects\zs /
//                          tack\Samples\ParkingS\CC2530DB\EndDeviceEB\List\" /
//                           --diag_suppress Pe001,Pa010 -o "C:\Texas         /
//                          Instruments\ZStack-CC2530-2.3.0-1.4.0\Projects\zs /
//                          tack\Samples\ParkingS\CC2530DB\EndDeviceEB\Obj\"  /
//                          -e --require_prototypes --debug --core=plain      /
//                          --dptr=16,1 --data_model=large                    /
//                          --code_model=banked --calling_convention=xdata_re /
//                          entrant --place_constants=data_rom                /
//                          --nr_virtual_regs 16 -I "C:\Texas                 /
//                          Instruments\ZStack-CC2530-2.3.0-1.4.0\Projects\zs /
//                          tack\Samples\ParkingS\CC2530DB\" -I "C:\Texas     /
//                          Instruments\ZStack-CC2530-2.3.0-1.4.0\Projects\zs /
//                          tack\Samples\ParkingS\CC2530DB\..\SOURCE\" -I     /
//                          "C:\Texas Instruments\ZStack-CC2530-2.3.0-1.4.0\P /
//                          rojects\zstack\Samples\ParkingS\CC2530DB\..\..\.. /
//                          \ZMAIN\TI2530DB\" -I "C:\Texas                    /
//                          Instruments\ZStack-CC2530-2.3.0-1.4.0\Projects\zs /
//                          tack\Samples\ParkingS\CC2530DB\..\..\..\..\..\COM /
//                          PONENTS\MT\" -I "C:\Texas                         /
//                          Instruments\ZStack-CC2530-2.3.0-1.4.0\Projects\zs /
//                          tack\Samples\ParkingS\CC2530DB\..\..\..\..\..\COM /
//                          PONENTS\HAL\INCLUDE\" -I "C:\Texas                /
//                          Instruments\ZStack-CC2530-2.3.0-1.4.0\Projects\zs /
//                          tack\Samples\ParkingS\CC2530DB\..\..\..\..\..\COM /
//                          PONENTS\HAL\TARGET\CC2530EB\" -I "C:\Texas        /
//                          Instruments\ZStack-CC2530-2.3.0-1.4.0\Projects\zs /
//                          tack\Samples\ParkingS\CC2530DB\..\..\..\..\..\COM /
//                          PONENTS\OSAL\MCU\CCSOC\" -I "C:\Texas             /
//                          Instruments\ZStack-CC2530-2.3.0-1.4.0\Projects\zs /
//                          tack\Samples\ParkingS\CC2530DB\..\..\..\..\..\COM /
//                          PONENTS\OSAL\INCLUDE\" -I "C:\Texas               /
//                          Instruments\ZStack-CC2530-2.3.0-1.4.0\Projects\zs /
//                          tack\Samples\ParkingS\CC2530DB\..\..\..\..\..\COM /
//                          PONENTS\STACK\AF\" -I "C:\Texas                   /
//                          Instruments\ZStack-CC2530-2.3.0-1.4.0\Projects\zs /
//                          tack\Samples\ParkingS\CC2530DB\..\..\..\..\..\COM /
//                          PONENTS\STACK\NWK\" -I "C:\Texas                  /
//                          Instruments\ZStack-CC2530-2.3.0-1.4.0\Projects\zs /
//                          tack\Samples\ParkingS\CC2530DB\..\..\..\..\..\COM /
//                          PONENTS\STACK\SEC\" -I "C:\Texas                  /
//                          Instruments\ZStack-CC2530-2.3.0-1.4.0\Projects\zs /
//                          tack\Samples\ParkingS\CC2530DB\..\..\..\..\..\COM /
//                          PONENTS\STACK\SAPI\" -I "C:\Texas                 /
//                          Instruments\ZStack-CC2530-2.3.0-1.4.0\Projects\zs /
//                          tack\Samples\ParkingS\CC2530DB\..\..\..\..\..\COM /
//                          PONENTS\STACK\SYS\" -I "C:\Texas                  /
//                          Instruments\ZStack-CC2530-2.3.0-1.4.0\Projects\zs /
//                          tack\Samples\ParkingS\CC2530DB\..\..\..\..\..\COM /
//                          PONENTS\STACK\ZDO\" -I "C:\Texas                  /
//                          Instruments\ZStack-CC2530-2.3.0-1.4.0\Projects\zs /
//                          tack\Samples\ParkingS\CC2530DB\..\..\..\..\..\COM /
//                          PONENTS\ZMAC\F8W\" -I "C:\Texas                   /
//                          Instruments\ZStack-CC2530-2.3.0-1.4.0\Projects\zs /
//                          tack\Samples\ParkingS\CC2530DB\..\..\..\..\..\COM /
//                          PONENTS\ZMAC\" -I "C:\Texas                       /
//                          Instruments\ZStack-CC2530-2.3.0-1.4.0\Projects\zs /
//                          tack\Samples\ParkingS\CC2530DB\..\..\..\..\..\COM /
//                          PONENTS\SERVICES\SADDR\" -I "C:\Texas             /
//                          Instruments\ZStack-CC2530-2.3.0-1.4.0\Projects\zs /
//                          tack\Samples\ParkingS\CC2530DB\..\..\..\..\..\COM /
//                          PONENTS\SERVICES\SDATA\" -I "C:\Texas             /
//                          Instruments\ZStack-CC2530-2.3.0-1.4.0\Projects\zs /
//                          tack\Samples\ParkingS\CC2530DB\..\..\..\..\..\COM /
//                          PONENTS\MAC\INCLUDE\" -I "C:\Texas                /
//                          Instruments\ZStack-CC2530-2.3.0-1.4.0\Projects\zs /
//                          tack\Samples\ParkingS\CC2530DB\..\..\..\..\..\COM /
//                          PONENTS\MAC\HIGH_LEVEL\" -I "C:\Texas             /
//                          Instruments\ZStack-CC2530-2.3.0-1.4.0\Projects\zs /
//                          tack\Samples\ParkingS\CC2530DB\..\..\..\..\..\COM /
//                          PONENTS\MAC\LOW_LEVEL\srf04\" -I "C:\Texas        /
//                          Instruments\ZStack-CC2530-2.3.0-1.4.0\Projects\zs /
//                          tack\Samples\ParkingS\CC2530DB\..\..\..\..\..\COM /
//                          PONENTS\MAC\LOW_LEVEL\srf04\SINGLE_CHIP\" -I      /
//                          "C:\Program Files\IAR Systems\Embedded Workbench  /
//                          5.3\8051\INC\" -I "C:\Program Files\IAR           /
//                          Systems\Embedded Workbench 5.3\8051\INC\CLIB\"    /
//                          -Ohz                                              /
//    List file          =  C:\Texas Instruments\ZStack-CC2530-2.3.0-1.4.0\Pr /
//                          ojects\zstack\Samples\ParkingS\CC2530DB\EndDevice /
//                          EB\List\mac_sleep.s51                             /
//                                                                            /
//                                                                            /
///////////////////////////////////////////////////////////////////////////////

        NAME mac_sleep

        RTMODEL "__calling_convention", "xdata_reentrant"
        RTMODEL "__code_model", "banked"
        RTMODEL "__core", "plain"
        RTMODEL "__data_model", "large"
        RTMODEL "__dptr_size", "16"
        RTMODEL "__extended_stack", "disabled"
        RTMODEL "__location_for_constants", "data"
        RTMODEL "__number_of_dptrs", "1"
        RTMODEL "__rt_version", "1"

        RSEG DOVERLAY:DATA:NOROOT(0)
        RSEG IOVERLAY:IDATA:NOROOT(0)
        RSEG ISTACK:IDATA:NOROOT(0)
        RSEG PSTACK:XDATA:NOROOT(0)
        RSEG XSTACK:XDATA:NOROOT(0)

        EXTERN ?BANKED_ENTER_XDATA
        EXTERN ?BANKED_LEAVE_XDATA
        EXTERN ?BDISPATCH
        EXTERN ?BRET
        EXTERN __INIT_XDATA_I

        PUBLIC ??macSleep?relay
        FUNCTION ??macSleep?relay,0203H
        PUBLIC ??macSleepWakeUp?relay
        FUNCTION ??macSleepWakeUp?relay,0203H
        PUBWEAK SLEEPSTA
        PUBWEAK T2CTRL
        PUBWEAK _A_IEN0
        PUBLIC macSleep
        FUNCTION macSleep,021203H
        ARGFRAME XSTACK, 0, STACK
        LOCFRAME XSTACK, 9, STACK
        PUBLIC macSleepState
        PUBLIC macSleepWakeUp
        FUNCTION macSleepWakeUp,021203H
        ARGFRAME XSTACK, 0, STACK
        LOCFRAME ISTACK, 2, STACK
        
        CFI Names cfiNames0
        CFI StackFrame CFA_SP SP IDATA
        CFI StackFrame CFA_PSP16 PSP16 XDATA
        CFI StackFrame CFA_XSP16 XSP16 XDATA
        CFI StaticOverlayFrame CFA_IOVERLAY IOVERLAY
        CFI StaticOverlayFrame CFA_DOVERLAY DOVERLAY
        CFI Resource `PSW.CY`:1, `B.BR0`:1, `B.BR1`:1, `B.BR2`:1, `B.BR3`:1
        CFI Resource `B.BR4`:1, `B.BR5`:1, `B.BR6`:1, `B.BR7`:1, `VB.BR8`:1
        CFI Resource `VB.BR9`:1, `VB.BR10`:1, `VB.BR11`:1, `VB.BR12`:1
        CFI Resource `VB.BR13`:1, `VB.BR14`:1, `VB.BR15`:1, VB:8, B:8, A:8
        CFI Resource PSW:8, DPL0:8, DPH0:8, R0:8, R1:8, R2:8, R3:8, R4:8, R5:8
        CFI Resource R6:8, R7:8, V0:8, V1:8, V2:8, V3:8, V4:8, V5:8, V6:8, V7:8
        CFI Resource V8:8, V9:8, V10:8, V11:8, V12:8, V13:8, V14:8, V15:8, SP:8
        CFI Resource PSPH:8, PSPL:8, PSP16:16, XSPH:8, XSPL:8, XSP16:16
        CFI VirtualResource ?RET:24
        CFI Resource ?BRET_EXT:8
        CFI VirtualResource ?RET_HIGH:8, ?RET_LOW:8
        CFI ResourceParts PSP16 PSPH, PSPL
        CFI ResourceParts XSP16 XSPH, XSPL
        CFI ResourceParts ?RET ?BRET_EXT, ?RET_HIGH, ?RET_LOW
        CFI EndNames cfiNames0
        
        CFI Common cfiCommon0 Using cfiNames0
        CFI CodeAlign 1
        CFI DataAlign -1
        CFI ReturnAddress ?RET CODE
        CFI CFA_DOVERLAY Used
        CFI CFA_IOVERLAY Used
        CFI CFA_SP SP+-3
        CFI CFA_PSP16 PSP16+0
        CFI CFA_XSP16 XSP16+0
        CFI `PSW.CY` SameValue
        CFI `B.BR0` SameValue
        CFI `B.BR1` SameValue
        CFI `B.BR2` SameValue
        CFI `B.BR3` SameValue
        CFI `B.BR4` SameValue
        CFI `B.BR5` SameValue
        CFI `B.BR6` SameValue
        CFI `B.BR7` SameValue
        CFI `VB.BR8` SameValue
        CFI `VB.BR9` SameValue
        CFI `VB.BR10` SameValue
        CFI `VB.BR11` SameValue
        CFI `VB.BR12` SameValue
        CFI `VB.BR13` SameValue
        CFI `VB.BR14` SameValue
        CFI `VB.BR15` SameValue
        CFI VB SameValue
        CFI B Undefined
        CFI A Undefined
        CFI PSW SameValue
        CFI DPL0 SameValue
        CFI DPH0 SameValue
        CFI R0 Undefined
        CFI R1 Undefined
        CFI R2 Undefined
        CFI R3 Undefined
        CFI R4 Undefined
        CFI R5 Undefined
        CFI R6 SameValue
        CFI R7 SameValue
        CFI V0 SameValue
        CFI V1 SameValue
        CFI V2 SameValue
        CFI V3 SameValue
        CFI V4 SameValue
        CFI V5 SameValue
        CFI V6 SameValue
        CFI V7 SameValue
        CFI V8 SameValue
        CFI V9 SameValue
        CFI V10 SameValue
        CFI V11 SameValue
        CFI V12 SameValue
        CFI V13 SameValue
        CFI V14 SameValue
        CFI V15 SameValue
        CFI PSPH Undefined
        CFI PSPL Undefined
        CFI XSPH Undefined
        CFI XSPL Undefined
        CFI ?RET Concat
        CFI ?BRET_EXT Frame(CFA_SP, 3)
        CFI ?RET_HIGH Frame(CFA_SP, 2)
        CFI ?RET_LOW Frame(CFA_SP, 1)
        CFI EndCommon cfiCommon0
        
macRadioTurnOnPower SYMBOL "macRadioTurnOnPower"
macRxRadioPowerUpInit SYMBOL "macRxRadioPowerUpInit"
halAssertHandler    SYMBOL "halAssertHandler"
macRxOnRequest      SYMBOL "macRxOnRequest"
macRxOff            SYMBOL "macRxOff"
macRadioTurnOffPower SYMBOL "macRadioTurnOffPower"
??halAssertHandler?relay SYMBOL "?relay", halAssertHandler
??macRadioTurnOffPower?relay SYMBOL "?relay", macRadioTurnOffPower
??macRadioTurnOnPower?relay SYMBOL "?relay", macRadioTurnOnPower
??macRxOff?relay    SYMBOL "?relay", macRxOff
??macRxOnRequest?relay SYMBOL "?relay", macRxOnRequest
??macRxRadioPowerUpInit?relay SYMBOL "?relay", macRxRadioPowerUpInit
macSleep            SYMBOL "macSleep"
??macSleep?relay    SYMBOL "?relay", macSleep
macSleepWakeUp      SYMBOL "macSleepWakeUp"
??macSleepWakeUp?relay SYMBOL "?relay", macSleepWakeUp

        EXTERN macRadioTurnOnPower
        FUNCTION macRadioTurnOnPower,0202H
        ARGFRAME ISTACK, 2, STACK
        ARGFRAME PSTACK, 0, STACK
        ARGFRAME XSTACK, 0, STACK
        ARGFRAME IOVERLAY, 0, STATIC
        ARGFRAME DOVERLAY, 0, STATIC
        EXTERN macRxRadioPowerUpInit
        FUNCTION macRxRadioPowerUpInit,0202H
        ARGFRAME ISTACK, 2, STACK
        ARGFRAME PSTACK, 0, STACK
        ARGFRAME XSTACK, 0, STACK
        ARGFRAME IOVERLAY, 0, STATIC
        ARGFRAME DOVERLAY, 0, STATIC
        EXTERN halAssertHandler
        FUNCTION halAssertHandler,0202H
        ARGFRAME ISTACK, 2, STACK
        ARGFRAME PSTACK, 0, STACK
        ARGFRAME XSTACK, 9, STACK
        ARGFRAME IOVERLAY, 0, STATIC
        ARGFRAME DOVERLAY, 0, STATIC
        EXTERN macRxOnRequest
        FUNCTION macRxOnRequest,0202H
        ARGFRAME ISTACK, 2, STACK
        ARGFRAME PSTACK, 0, STACK
        ARGFRAME XSTACK, 0, STACK
        ARGFRAME IOVERLAY, 0, STATIC
        ARGFRAME DOVERLAY, 0, STATIC
        EXTERN macRxOff
        FUNCTION macRxOff,0202H
        ARGFRAME ISTACK, 0, STACK
        ARGFRAME PSTACK, 0, STACK
        ARGFRAME XSTACK, 9, STACK
        ARGFRAME IOVERLAY, 0, STATIC
        ARGFRAME DOVERLAY, 0, STATIC
        EXTERN macRadioTurnOffPower
        FUNCTION macRadioTurnOffPower,0202H
        ARGFRAME ISTACK, 0, STACK
        ARGFRAME PSTACK, 0, STACK
        ARGFRAME XSTACK, 9, STACK
        ARGFRAME IOVERLAY, 0, STATIC
        ARGFRAME DOVERLAY, 0, STATIC
        EXTERN ??halAssertHandler?relay
        FUNCTION ??halAssertHandler?relay,00H
        EXTERN ??macRadioTurnOffPower?relay
        FUNCTION ??macRadioTurnOffPower?relay,00H
        EXTERN ??macRadioTurnOnPower?relay
        FUNCTION ??macRadioTurnOnPower?relay,00H
        EXTERN ??macRxOff?relay
        FUNCTION ??macRxOff?relay,00H
        EXTERN ??macRxOnRequest?relay
        FUNCTION ??macRxOnRequest?relay,00H
        EXTERN ??macRxRadioPowerUpInit?relay
        FUNCTION ??macRxRadioPowerUpInit?relay,00H
        EXTERN macRxActive
        EXTERN macRxEnableFlags
        EXTERN macRxFilter
        EXTERN macRxOutgoingAckFlag
        EXTERN macTxActive

// C:\Texas Instruments\ZStack-CC2530-2.3.0-1.4.0\Components\mac\low_level\srf04\mac_sleep.c
//    1 /**************************************************************************************************
//    2   Filename:       mac_sleep.c
//    3   Revised:        $Date: 2007-10-29 19:11:44 -0700 (Mon, 29 Oct 2007) $
//    4   Revision:       $Revision: 15810 $
//    5 
//    6   Description:    Describe the purpose and contents of the file.
//    7 
//    8 
//    9   Copyright 2006-2009 Texas Instruments Incorporated. All rights reserved.
//   10 
//   11   IMPORTANT: Your use of this Software is limited to those specific rights
//   12   granted under the terms of a software license agreement between the user
//   13   who downloaded the software, his/her employer (which must be your employer)
//   14   and Texas Instruments Incorporated (the "License").  You may not use this
//   15   Software unless you agree to abide by the terms of the License. The License
//   16   limits your use, and you acknowledge, that the Software may not be modified,
//   17   copied or distributed unless embedded on a Texas Instruments microcontroller
//   18   or used solely and exclusively in conjunction with a Texas Instruments radio
//   19   frequency transceiver, which is integrated into your product.  Other than for
//   20   the foregoing purpose, you may not use, reproduce, copy, prepare derivative
//   21   works of, modify, distribute, perform, display or sell this Software and/or
//   22   its documentation for any purpose.
//   23 
//   24   YOU FURTHER ACKNOWLEDGE AND AGREE THAT THE SOFTWARE AND DOCUMENTATION ARE
//   25   PROVIDED “AS IS” WITHOUT WARRANTY OF ANY KIND, EITHER EXPRESS OR IMPLIED, 
//   26   INCLUDING WITHOUT LIMITATION, ANY WARRANTY OF MERCHANTABILITY, TITLE, 
//   27   NON-INFRINGEMENT AND FITNESS FOR A PARTICULAR PURPOSE. IN NO EVENT SHALL
//   28   TEXAS INSTRUMENTS OR ITS LICENSORS BE LIABLE OR OBLIGATED UNDER CONTRACT,
//   29   NEGLIGENCE, STRICT LIABILITY, CONTRIBUTION, BREACH OF WARRANTY, OR OTHER
//   30   LEGAL EQUITABLE THEORY ANY DIRECT OR INDIRECT DAMAGES OR EXPENSES
//   31   INCLUDING BUT NOT LIMITED TO ANY INCIDENTAL, SPECIAL, INDIRECT, PUNITIVE
//   32   OR CONSEQUENTIAL DAMAGES, LOST PROFITS OR LOST DATA, COST OF PROCUREMENT
//   33   OF SUBSTITUTE GOODS, TECHNOLOGY, SERVICES, OR ANY CLAIMS BY THIRD PARTIES
//   34   (INCLUDING BUT NOT LIMITED TO ANY DEFENSE THEREOF), OR OTHER SIMILAR COSTS.
//   35 
//   36   Should you have any questions regarding your right to use this Software,
//   37   contact Texas Instruments Incorporated at www.TI.com. 
//   38 **************************************************************************************************/
//   39 
//   40 /* ------------------------------------------------------------------------------------------------
//   41  *                                          Includes
//   42  * ------------------------------------------------------------------------------------------------
//   43  */
//   44 
//   45 /* hal */
//   46 #include "hal_types.h"
//   47 
//   48 /* high-level */
//   49 #include "mac_pib.h"
//   50 
//   51 /* exported low-level */
//   52 #include "mac_low_level.h"
//   53 
//   54 /* low-level specific */
//   55 #include "mac_sleep.h"
//   56 #include "mac_radio.h"
//   57 #include "mac_tx.h"
//   58 #include "mac_rx.h"
//   59 #include "mac_rx_onoff.h"
//   60 
//   61 /* target specific */
//   62 #include "mac_radio_defs.h"

        ASEGN SFR_AN:DATA:NOROOT,094H
// unsigned char volatile __sfr T2CTRL
T2CTRL:
        DS 1

        ASEGN SFR_AN:DATA:NOROOT,09dH
// unsigned char volatile __sfr SLEEPSTA
SLEEPSTA:
        DS 1

        ASEGN SFR_AN:DATA:NOROOT,0a8H
// union <unnamed> volatile __sfr _A_IEN0
_A_IEN0:
        DS 1
//   63 
//   64 /* debug */
//   65 #include "mac_assert.h"
//   66 
//   67 
//   68 /* ------------------------------------------------------------------------------------------------
//   69  *                                         Global Variables
//   70  * ------------------------------------------------------------------------------------------------
//   71  */

        RSEG XDATA_I:XDATA:NOROOT(0)
        DATA
//   72 uint8 macSleepState = MAC_SLEEP_STATE_RADIO_OFF;
macSleepState:
        DS 1
        REQUIRE `?<Initializer for macSleepState>`
        REQUIRE __INIT_XDATA_I
//   73 
//   74 
//   75 /**************************************************************************************************
//   76  * @fn          macSleepWakeUp
//   77  *
//   78  * @brief       Wake up the radio from sleep mode.
//   79  *
//   80  * @param       none
//   81  *
//   82  * @return      none
//   83  **************************************************************************************************
//   84  */

        RSEG BANKED_CODE:CODE:NOROOT(0)
//   85 MAC_INTERNAL_API void macSleepWakeUp(void)
macSleepWakeUp:
        CFI Block cfiBlock0 Using cfiCommon0
        CFI Function macSleepWakeUp
//   86 {
        FUNCALL macSleepWakeUp, macRadioTurnOnPower
        LOCFRAME ISTACK, 2, STACK
        LOCFRAME PSTACK, 0, STACK
        LOCFRAME XSTACK, 0, STACK
        LOCFRAME IOVERLAY, 0, STATIC
        LOCFRAME DOVERLAY, 0, STATIC
        ARGFRAME ISTACK, 2, STACK
        ARGFRAME PSTACK, 0, STACK
        ARGFRAME XSTACK, 0, STACK
        ARGFRAME IOVERLAY, 0, STATIC
        ARGFRAME DOVERLAY, 0, STATIC
        FUNCALL macSleepWakeUp, macRxRadioPowerUpInit
        LOCFRAME ISTACK, 2, STACK
        LOCFRAME PSTACK, 0, STACK
        LOCFRAME XSTACK, 0, STACK
        LOCFRAME IOVERLAY, 0, STATIC
        LOCFRAME DOVERLAY, 0, STATIC
        ARGFRAME ISTACK, 2, STACK
        ARGFRAME PSTACK, 0, STACK
        ARGFRAME XSTACK, 0, STACK
        ARGFRAME IOVERLAY, 0, STATIC
        ARGFRAME DOVERLAY, 0, STATIC
        FUNCALL macSleepWakeUp, halAssertHandler
        LOCFRAME ISTACK, 2, STACK
        LOCFRAME PSTACK, 0, STACK
        LOCFRAME XSTACK, 0, STACK
        LOCFRAME IOVERLAY, 0, STATIC
        LOCFRAME DOVERLAY, 0, STATIC
        ARGFRAME ISTACK, 2, STACK
        ARGFRAME PSTACK, 0, STACK
        ARGFRAME XSTACK, 0, STACK
        ARGFRAME IOVERLAY, 0, STATIC
        ARGFRAME DOVERLAY, 0, STATIC
        FUNCALL macSleepWakeUp, halAssertHandler
        LOCFRAME ISTACK, 2, STACK
        LOCFRAME PSTACK, 0, STACK
        LOCFRAME XSTACK, 0, STACK
        LOCFRAME IOVERLAY, 0, STATIC
        LOCFRAME DOVERLAY, 0, STATIC
        ARGFRAME ISTACK, 2, STACK
        ARGFRAME PSTACK, 0, STACK
        ARGFRAME XSTACK, 0, STACK
        ARGFRAME IOVERLAY, 0, STATIC
        ARGFRAME DOVERLAY, 0, STATIC
        FUNCALL macSleepWakeUp, macRxOnRequest
        LOCFRAME ISTACK, 2, STACK
        LOCFRAME PSTACK, 0, STACK
        LOCFRAME XSTACK, 0, STACK
        LOCFRAME IOVERLAY, 0, STATIC
        LOCFRAME DOVERLAY, 0, STATIC
        ARGFRAME ISTACK, 2, STACK
        ARGFRAME PSTACK, 0, STACK
        ARGFRAME XSTACK, 0, STACK
        ARGFRAME IOVERLAY, 0, STATIC
        ARGFRAME DOVERLAY, 0, STATIC
        PUSH    DPL
        CFI DPL0 Frame(CFA_SP, 4)
        CFI CFA_SP SP+-4
        PUSH    DPH
        CFI DPH0 Frame(CFA_SP, 5)
        CFI CFA_SP SP+-5
        ; Saved register size: 2
        ; Auto size: 0
//   87   /* don't wake up radio if it's already awake */
//   88   if (macSleepState == MAC_SLEEP_STATE_AWAKE)
        MOV     DPTR,#macSleepState
        MOVX    A,@DPTR
        JZ      ??macSleepWakeUp_0
//   89   {
//   90     return;
//   91   }
//   92 
//   93   /* wake up MAC timer */
//   94   MAC_RADIO_TIMER_WAKE_UP();
        ORL     0x94,#0x1
??macSleepWakeUp_1:
        MOV     A,0x94
        MOV     C,0xE0 /* A   */.2
        JNC     ??macSleepWakeUp_1
//   95 
//   96   /* if radio was completely off, restore from that state first */
//   97   if (macSleepState == MAC_SLEEP_STATE_RADIO_OFF)
        MOVX    A,@DPTR
        XRL     A,#0x2
        JNZ     ??macSleepWakeUp_2
//   98   {
//   99     /* turn on radio power (turns on oscillator too) */
//  100     MAC_RADIO_TURN_ON_POWER();
        ; Setup parameters for call to function macRadioTurnOnPower
        LCALL   ??macRadioTurnOnPower?relay
//  101 
//  102     /* power-up initialization of receive logic */
//  103     macRxRadioPowerUpInit();
        ; Setup parameters for call to function macRxRadioPowerUpInit
        LCALL   ??macRxRadioPowerUpInit?relay
        SJMP    ??macSleepWakeUp_3
//  104   }
//  105   else
//  106   {
//  107     MAC_ASSERT(macSleepState == MAC_SLEEP_STATE_OSC_OFF);
??macSleepWakeUp_2:
        MOVX    A,@DPTR
        XRL     A,#0x1
        JZ      ??macSleepWakeUp_4
        ; Setup parameters for call to function halAssertHandler
        LCALL   ??halAssertHandler?relay
//  108 
//  109     /* turn on the oscillator */
//  110     MAC_RADIO_TURN_ON_OSC();
??macSleepWakeUp_4:
        MOV     A,0x9d
        MOV     C,0xE0 /* A   */.6
        JC      ??macSleepWakeUp_3
        ; Setup parameters for call to function halAssertHandler
        LCALL   ??halAssertHandler?relay
//  111   }
//  112 
//  113   /* update sleep state here before requesting to turn on receiver */
//  114   macSleepState = MAC_SLEEP_STATE_AWAKE;
??macSleepWakeUp_3:
        CLR     A
        MOV     DPTR,#macSleepState
        MOVX    @DPTR,A
//  115 
//  116   /* turn on the receiver if enabled */
//  117   macRxOnRequest();
        ; Setup parameters for call to function macRxOnRequest
        LCALL   ??macRxOnRequest?relay
//  118 }
??macSleepWakeUp_0:
        POP     DPH
        CFI DPH0 SameValue
        CFI CFA_SP SP+-4
        POP     DPL
        CFI DPL0 SameValue
        CFI CFA_SP SP+-3
        LJMP    ?BRET
        CFI EndBlock cfiBlock0
        REQUIRE T2CTRL
        REQUIRE SLEEPSTA
//  119 
//  120 
//  121 /**************************************************************************************************
//  122  * @fn          macSleep
//  123  *
//  124  * @brief       Puts radio into the selected sleep mode.
//  125  *
//  126  * @param       sleepState - selected sleep level, see #defines in .h file
//  127  *
//  128  * @return      TRUE if radio was successfully put into selected sleep mode.
//  129  *              FALSE if it was not safe for radio to go to sleep.
//  130  **************************************************************************************************
//  131  */

        RSEG BANKED_CODE:CODE:NOROOT(0)
//  132 MAC_INTERNAL_API uint8 macSleep(uint8 sleepState)
macSleep:
        CFI Block cfiBlock1 Using cfiCommon0
        CFI Function macSleep
//  133 {
        FUNCALL macSleep, halAssertHandler
        LOCFRAME ISTACK, 0, STACK
        LOCFRAME PSTACK, 0, STACK
        LOCFRAME XSTACK, 9, STACK
        LOCFRAME IOVERLAY, 0, STATIC
        LOCFRAME DOVERLAY, 0, STATIC
        ARGFRAME ISTACK, 0, STACK
        ARGFRAME PSTACK, 0, STACK
        ARGFRAME XSTACK, 9, STACK
        ARGFRAME IOVERLAY, 0, STATIC
        ARGFRAME DOVERLAY, 0, STATIC
        FUNCALL macSleep, halAssertHandler
        LOCFRAME ISTACK, 0, STACK
        LOCFRAME PSTACK, 0, STACK
        LOCFRAME XSTACK, 9, STACK
        LOCFRAME IOVERLAY, 0, STATIC
        LOCFRAME DOVERLAY, 0, STATIC
        ARGFRAME ISTACK, 0, STACK
        ARGFRAME PSTACK, 0, STACK
        ARGFRAME XSTACK, 9, STACK
        ARGFRAME IOVERLAY, 0, STATIC
        ARGFRAME DOVERLAY, 0, STATIC
        FUNCALL macSleep, macRxOff
        LOCFRAME ISTACK, 0, STACK
        LOCFRAME PSTACK, 0, STACK
        LOCFRAME XSTACK, 9, STACK
        LOCFRAME IOVERLAY, 0, STATIC
        LOCFRAME DOVERLAY, 0, STATIC
        ARGFRAME ISTACK, 0, STACK
        ARGFRAME PSTACK, 0, STACK
        ARGFRAME XSTACK, 9, STACK
        ARGFRAME IOVERLAY, 0, STATIC
        ARGFRAME DOVERLAY, 0, STATIC
        FUNCALL macSleep, halAssertHandler
        LOCFRAME ISTACK, 0, STACK
        LOCFRAME PSTACK, 0, STACK
        LOCFRAME XSTACK, 9, STACK
        LOCFRAME IOVERLAY, 0, STATIC
        LOCFRAME DOVERLAY, 0, STATIC
        ARGFRAME ISTACK, 0, STACK
        ARGFRAME PSTACK, 0, STACK
        ARGFRAME XSTACK, 9, STACK
        ARGFRAME IOVERLAY, 0, STATIC
        ARGFRAME DOVERLAY, 0, STATIC
        FUNCALL macSleep, macRadioTurnOffPower
        LOCFRAME ISTACK, 0, STACK
        LOCFRAME PSTACK, 0, STACK
        LOCFRAME XSTACK, 9, STACK
        LOCFRAME IOVERLAY, 0, STATIC
        LOCFRAME DOVERLAY, 0, STATIC
        ARGFRAME ISTACK, 0, STACK
        ARGFRAME PSTACK, 0, STACK
        ARGFRAME XSTACK, 9, STACK
        ARGFRAME IOVERLAY, 0, STATIC
        ARGFRAME DOVERLAY, 0, STATIC
        MOV     A,#-0x9
        LCALL   ?BANKED_ENTER_XDATA
        CFI DPH0 load(1, XDATA, add(CFA_XSP16, literal(-1)))
        CFI DPL0 load(1, XDATA, add(CFA_XSP16, literal(-2)))
        CFI ?BRET_EXT load(1, XDATA, add(CFA_XSP16, literal(-3)))
        CFI ?RET_HIGH load(1, XDATA, add(CFA_XSP16, literal(-4)))
        CFI ?RET_LOW load(1, XDATA, add(CFA_XSP16, literal(-5)))
        CFI R7 load(1, XDATA, add(CFA_XSP16, literal(-6)))
        CFI V0 load(1, XDATA, add(CFA_XSP16, literal(-7)))
        CFI VB load(1, XDATA, add(CFA_XSP16, literal(-8)))
        CFI R6 load(1, XDATA, add(CFA_XSP16, literal(-9)))
        CFI CFA_SP SP+0
        CFI CFA_XSP16 add(XSP16, 9)
        ; Saved register size: 9
        ; Auto size: 0
        MOV     A,R1
        MOV     R6,A
//  134   halIntState_t  s;
//  135 
//  136   /* disable interrupts until macSleepState can be set */
//  137   HAL_ENTER_CRITICAL_SECTION(s);
        MOV     C,0xa8.7
        CLR     A
        MOV     0xE0 /* A   */.0,C
        MOV     R7,A
        CLR     0xa8.7
//  138 
//  139   /* assert checks */
//  140   MAC_ASSERT(macSleepState == MAC_SLEEP_STATE_AWAKE); /* radio must be awake to put it to sleep */
        MOV     DPTR,#macSleepState
        MOVX    A,@DPTR
        JZ      ??macSleep_0
        ; Setup parameters for call to function halAssertHandler
        LCALL   ??halAssertHandler?relay
//  141   MAC_ASSERT(macRxFilter == RX_FILTER_OFF); /* do not sleep when scanning or in promiscuous mode */
??macSleep_0:
        MOV     DPTR,#macRxFilter
        MOVX    A,@DPTR
        JZ      ??macSleep_1
        ; Setup parameters for call to function halAssertHandler
        LCALL   ??halAssertHandler?relay
//  142 
//  143   /* if either RX or TX is active or any RX enable flags are set, it's not OK to sleep */
//  144   if (macRxActive || macRxOutgoingAckFlag || macTxActive || macRxEnableFlags)
??macSleep_1:
        MOV     DPTR,#macRxActive
        MOVX    A,@DPTR
        JNZ     ??macSleep_2
        MOV     DPTR,#macRxOutgoingAckFlag
        MOVX    A,@DPTR
        JNZ     ??macSleep_2
        MOV     DPTR,#macTxActive
        MOVX    A,@DPTR
        JNZ     ??macSleep_2
        MOV     DPTR,#macRxEnableFlags
        MOVX    A,@DPTR
        JZ      ??macSleep_3
//  145   {
//  146     HAL_EXIT_CRITICAL_SECTION(s);
??macSleep_2:
        MOV     A,R7
        MOV     C,0xE0 /* A   */.0
        MOV     0xa8.7,C
//  147     return(FALSE);
        MOV     R1,#0x0
        SJMP    ??macSleep_4
//  148   }
//  149 
//  150   /* turn off the receiver */
//  151   macRxOff();
??macSleep_3:
        ; Setup parameters for call to function macRxOff
        LCALL   ??macRxOff?relay
//  152 
//  153   /* update sleep state variable */
//  154   macSleepState = sleepState;
        MOV     A,R6
        MOV     DPTR,#macSleepState
        MOVX    @DPTR,A
//  155 
//  156   /* macSleepState is now set, re-enable interrupts */
//  157   HAL_EXIT_CRITICAL_SECTION(s);
        MOV     A,R7
        MOV     C,0xE0 /* A   */.0
        MOV     0xa8.7,C
//  158 
//  159   /* put MAC timer to sleep */
//  160   MAC_RADIO_TIMER_SLEEP();
        ANL     0x94,#0xfe
??macSleep_5:
        MOV     A,0x94
        MOV     C,0xE0 /* A   */.2
        JC      ??macSleep_5
//  161 
//  162   /* put radio in selected sleep mode */
//  163   if (sleepState == MAC_SLEEP_STATE_OSC_OFF)
        MOV     A,#0x1
        XRL     A,R6
        JZ      ??macSleep_6
//  164   {
//  165     MAC_RADIO_TURN_OFF_OSC();
//  166   }
//  167   else
//  168   {
//  169     MAC_ASSERT(sleepState == MAC_SLEEP_STATE_RADIO_OFF); /* unknown sleep state */
        MOV     A,#0x2
        XRL     A,R6
        JZ      ??macSleep_7
        ; Setup parameters for call to function halAssertHandler
        LCALL   ??halAssertHandler?relay
//  170     MAC_RADIO_TURN_OFF_POWER();
??macSleep_7:
        ; Setup parameters for call to function macRadioTurnOffPower
        LCALL   ??macRadioTurnOffPower?relay
//  171   }
//  172 
//  173   /* radio successfully entered sleep mode */
//  174   return(TRUE);
??macSleep_6:
        MOV     R1,#0x1
??macSleep_4:
        MOV     R7,#0x1
        LJMP    ?BANKED_LEAVE_XDATA
        CFI EndBlock cfiBlock1
        REQUIRE T2CTRL
        REQUIRE _A_IEN0
//  175 }

        RSEG XDATA_ID:CODE:NOROOT(0)
        DATA
`?<Initializer for macSleepState>`:
        DB 2

        RSEG BANK_RELAYS:CODE:REORDER:NOROOT(0)
??macSleepWakeUp?relay:
        LCALL   ?BDISPATCH
        DATA
        DC24    macSleepWakeUp

        RSEG BANK_RELAYS:CODE:REORDER:NOROOT(0)
??macSleep?relay:
        LCALL   ?BDISPATCH
        DATA
        DC24    macSleep

        END
//  176 
//  177 
//  178 
//  179 /**************************************************************************************************
//  180  *                                  Compile Time Integrity Checks
//  181  **************************************************************************************************
//  182  */
//  183 #if ((MAC_SLEEP_STATE_AWAKE == MAC_SLEEP_STATE_OSC_OFF) ||  \ 
//  184      (MAC_SLEEP_STATE_AWAKE == MAC_SLEEP_STATE_RADIO_OFF))
//  185 #error "ERROR!  Non-unique state values."
//  186 #endif
//  187 
//  188 
//  189 /**************************************************************************************************
//  190 */
// 
// 175 bytes in segment BANKED_CODE
//  12 bytes in segment BANK_RELAYS
//   3 bytes in segment SFR_AN
//   1 byte  in segment XDATA_I
//   1 byte  in segment XDATA_ID
// 
// 188 bytes of CODE  memory
//   0 bytes of DATA  memory (+ 3 bytes shared)
//   1 byte  of XDATA memory
//
//Errors: none
//Warnings: none
