///////////////////////////////////////////////////////////////////////////////
//                                                                            /
// IAR C/C++ Compiler V7.51A/W32 for 8051               24/May/2015  19:07:18 /
// Copyright 2004-2009 IAR Systems AB.                                        /
//                                                                            /
//    Core               =  plain                                             /
//    Code model         =  banked                                            /
//    Data model         =  large                                             /
//    Calling convention =  xdata reentrant                                   /
//    Constant location  =  data_rom                                          /
//    Dptr setup         =  1,16                                              /
//    Source file        =  C:\Texas Instruments\ZStack-CC2530-2.3.0-1.4.0\Co /
//                          mponents\hal\target\CC2530EB\hal_flash.c          /
//    Command line       =  -f "C:\Texas Instruments\ZStack-CC2530-2.3.0-1.4. /
//                          0\Projects\zstack\Samples\ParkingS\CC2530DB\..\.. /
//                          \..\Tools\CC2530DB\f8wRouter.cfg" (-DCPU32MHZ     /
//                          -DROOT=__near_func -DMAC_CFG_APP_PENDING_QUEUE=TR /
//                          UE -DRTR_NWK -DBLINK_LEDS) -f "C:\Texas           /
//                          Instruments\ZStack-CC2530-2.3.0-1.4.0\Projects\zs /
//                          tack\Samples\ParkingS\CC2530DB\..\..\..\Tools\CC2 /
//                          530DB\f8wConfig.cfg" (-DSECURE=0                  /
//                          -DZG_SECURE_DYNAMIC=0 -DREFLECTOR                 /
//                          -DDEFAULT_CHANLIST=0x00000800                     /
//                          -DZDAPP_CONFIG_PAN_ID=0xFFFF                      /
//                          -DNWK_START_DELAY=100 -DEXTENDED_JOINING_RANDOM_M /
//                          ASK=0x007F -DBEACON_REQUEST_DELAY=100             /
//                          -DBEACON_REQ_DELAY_MASK=0x00FF                    /
//                          -DROUTE_EXPIRY_TIME=30 -DAPSC_ACK_WAIT_DURATION_P /
//                          OLLED=3000 -DNWK_INDIRECT_MSG_TIMEOUT=7           /
//                          -DMAX_RREQ_ENTRIES=8 -DAPSC_MAX_FRAME_RETRIES=3   /
//                          -DNWK_MAX_DATA_RETRIES=2                          /
//                          -DMAX_POLL_FAILURE_RETRIES=2 -DMAX_BCAST=9        /
//                          -DAPS_MAX_GROUPS=16 -DMAX_RTG_ENTRIES=40          /
//                          -DNWK_MAX_BINDING_ENTRIES=4                       /
//                          -DMAX_BINDING_CLUSTER_IDS=4                       /
//                          "-DDEFAULT_KEY={0x01, 0x03, 0x05, 0x07, 0x09,     /
//                          0x0B, 0x0D, 0x0F, 0x00, 0x02, 0x04, 0x06, 0x08,   /
//                          0x0A, 0x0C, 0x0D}" -DMAC_MAX_FRAME_SIZE=116       /
//                          "-DCONST=const __code" -DGENERIC=__generic        /
//                          -DRFD_RCVC_ALWAYS_ON=FALSE -DPOLL_RATE=1000       /
//                          -DQUEUED_POLL_RATE=100 -DRESPONSE_POLL_RATE=100)  /
//                          -DREJOIN_POLL_RATE=440 "C:\Texas                  /
//                          Instruments\ZStack-CC2530-2.3.0-1.4.0\Components\ /
//                          hal\target\CC2530EB\hal_flash.c" -D ZTOOL_P1 -D   /
//                          MT_TASK -D MT_SYS_FUNC -D MT_ZDO_FUNC -D          /
//                          LCD_SUPPORTED=DEBUG -lC "C:\Texas                 /
//                          Instruments\ZStack-CC2530-2.3.0-1.4.0\Projects\zs /
//                          tack\Samples\ParkingS\CC2530DB\RouterEB\List\"    /
//                          -lA "C:\Texas Instruments\ZStack-CC2530-2.3.0-1.4 /
//                          .0\Projects\zstack\Samples\ParkingS\CC2530DB\Rout /
//                          erEB\List\" --diag_suppress Pe001,Pa010 -o        /
//                          "C:\Texas Instruments\ZStack-CC2530-2.3.0-1.4.0\P /
//                          rojects\zstack\Samples\ParkingS\CC2530DB\RouterEB /
//                          \Obj\" -e --require_prototypes --debug            /
//                          --core=plain --dptr=16,1 --data_model=large       /
//                          --code_model=banked --calling_convention=xdata_re /
//                          entrant --place_constants=data_rom                /
//                          --nr_virtual_regs 16 -I "C:\Texas                 /
//                          Instruments\ZStack-CC2530-2.3.0-1.4.0\Projects\zs /
//                          tack\Samples\ParkingS\CC2530DB\" -I "C:\Texas     /
//                          Instruments\ZStack-CC2530-2.3.0-1.4.0\Projects\zs /
//                          tack\Samples\ParkingS\CC2530DB\..\SOURCE\" -I     /
//                          "C:\Texas Instruments\ZStack-CC2530-2.3.0-1.4.0\P /
//                          rojects\zstack\Samples\ParkingS\CC2530DB\..\..\.. /
//                          \ZMAIN\TI2530DB\" -I "C:\Texas                    /
//                          Instruments\ZStack-CC2530-2.3.0-1.4.0\Projects\zs /
//                          tack\Samples\ParkingS\CC2530DB\..\..\..\..\..\COM /
//                          PONENTS\MT\" -I "C:\Texas                         /
//                          Instruments\ZStack-CC2530-2.3.0-1.4.0\Projects\zs /
//                          tack\Samples\ParkingS\CC2530DB\..\..\..\..\..\COM /
//                          PONENTS\HAL\INCLUDE\" -I "C:\Texas                /
//                          Instruments\ZStack-CC2530-2.3.0-1.4.0\Projects\zs /
//                          tack\Samples\ParkingS\CC2530DB\..\..\..\..\..\COM /
//                          PONENTS\HAL\TARGET\CC2530EB\" -I "C:\Texas        /
//                          Instruments\ZStack-CC2530-2.3.0-1.4.0\Projects\zs /
//                          tack\Samples\ParkingS\CC2530DB\..\..\..\..\..\COM /
//                          PONENTS\OSAL\MCU\CCSOC\" -I "C:\Texas             /
//                          Instruments\ZStack-CC2530-2.3.0-1.4.0\Projects\zs /
//                          tack\Samples\ParkingS\CC2530DB\..\..\..\..\..\COM /
//                          PONENTS\OSAL\INCLUDE\" -I "C:\Texas               /
//                          Instruments\ZStack-CC2530-2.3.0-1.4.0\Projects\zs /
//                          tack\Samples\ParkingS\CC2530DB\..\..\..\..\..\COM /
//                          PONENTS\STACK\AF\" -I "C:\Texas                   /
//                          Instruments\ZStack-CC2530-2.3.0-1.4.0\Projects\zs /
//                          tack\Samples\ParkingS\CC2530DB\..\..\..\..\..\COM /
//                          PONENTS\STACK\NWK\" -I "C:\Texas                  /
//                          Instruments\ZStack-CC2530-2.3.0-1.4.0\Projects\zs /
//                          tack\Samples\ParkingS\CC2530DB\..\..\..\..\..\COM /
//                          PONENTS\STACK\SEC\" -I "C:\Texas                  /
//                          Instruments\ZStack-CC2530-2.3.0-1.4.0\Projects\zs /
//                          tack\Samples\ParkingS\CC2530DB\..\..\..\..\..\COM /
//                          PONENTS\STACK\SAPI\" -I "C:\Texas                 /
//                          Instruments\ZStack-CC2530-2.3.0-1.4.0\Projects\zs /
//                          tack\Samples\ParkingS\CC2530DB\..\..\..\..\..\COM /
//                          PONENTS\STACK\SYS\" -I "C:\Texas                  /
//                          Instruments\ZStack-CC2530-2.3.0-1.4.0\Projects\zs /
//                          tack\Samples\ParkingS\CC2530DB\..\..\..\..\..\COM /
//                          PONENTS\STACK\ZDO\" -I "C:\Texas                  /
//                          Instruments\ZStack-CC2530-2.3.0-1.4.0\Projects\zs /
//                          tack\Samples\ParkingS\CC2530DB\..\..\..\..\..\COM /
//                          PONENTS\ZMAC\F8W\" -I "C:\Texas                   /
//                          Instruments\ZStack-CC2530-2.3.0-1.4.0\Projects\zs /
//                          tack\Samples\ParkingS\CC2530DB\..\..\..\..\..\COM /
//                          PONENTS\ZMAC\" -I "C:\Texas                       /
//                          Instruments\ZStack-CC2530-2.3.0-1.4.0\Projects\zs /
//                          tack\Samples\ParkingS\CC2530DB\..\..\..\..\..\COM /
//                          PONENTS\SERVICES\SADDR\" -I "C:\Texas             /
//                          Instruments\ZStack-CC2530-2.3.0-1.4.0\Projects\zs /
//                          tack\Samples\ParkingS\CC2530DB\..\..\..\..\..\COM /
//                          PONENTS\SERVICES\SDATA\" -I "C:\Texas             /
//                          Instruments\ZStack-CC2530-2.3.0-1.4.0\Projects\zs /
//                          tack\Samples\ParkingS\CC2530DB\..\..\..\..\..\COM /
//                          PONENTS\MAC\INCLUDE\" -I "C:\Texas                /
//                          Instruments\ZStack-CC2530-2.3.0-1.4.0\Projects\zs /
//                          tack\Samples\ParkingS\CC2530DB\..\..\..\..\..\COM /
//                          PONENTS\MAC\HIGH_LEVEL\" -I "C:\Texas             /
//                          Instruments\ZStack-CC2530-2.3.0-1.4.0\Projects\zs /
//                          tack\Samples\ParkingS\CC2530DB\..\..\..\..\..\COM /
//                          PONENTS\MAC\LOW_LEVEL\srf04\" -I "C:\Texas        /
//                          Instruments\ZStack-CC2530-2.3.0-1.4.0\Projects\zs /
//                          tack\Samples\ParkingS\CC2530DB\..\..\..\..\..\COM /
//                          PONENTS\MAC\LOW_LEVEL\srf04\SINGLE_CHIP\" -I      /
//                          "C:\Program Files\IAR Systems\Embedded Workbench  /
//                          5.3\8051\INC\" -I "C:\Program Files\IAR           /
//                          Systems\Embedded Workbench 5.3\8051\INC\CLIB\"    /
//                          -Ohz                                              /
//    List file          =  C:\Texas Instruments\ZStack-CC2530-2.3.0-1.4.0\Pr /
//                          ojects\zstack\Samples\ParkingS\CC2530DB\RouterEB\ /
//                          List\hal_flash.s51                                /
//                                                                            /
//                                                                            /
///////////////////////////////////////////////////////////////////////////////

        NAME hal_flash

        RTMODEL "__calling_convention", "xdata_reentrant"
        RTMODEL "__code_model", "banked"
        RTMODEL "__core", "plain"
        RTMODEL "__data_model", "large"
        RTMODEL "__dptr_size", "16"
        RTMODEL "__extended_stack", "disabled"
        RTMODEL "__location_for_constants", "data"
        RTMODEL "__number_of_dptrs", "1"
        RTMODEL "__rt_version", "1"

        RSEG DOVERLAY:DATA:NOROOT(0)
        RSEG IOVERLAY:IDATA:NOROOT(0)
        RSEG ISTACK:IDATA:NOROOT(0)
        RSEG PSTACK:XDATA:NOROOT(0)
        RSEG XSTACK:XDATA:NOROOT(0)

        EXTERN ??HalFlashRead?relay
        EXTERN ??HalFlashWriteTrigger?relay
        EXTERN ?BANKED_ENTER_XDATA
        EXTERN ?BANKED_LEAVE_XDATA
        EXTERN ?BDISPATCH
        EXTERN ?BRET
        EXTERN ?DEALLOC_XSTACK8
        EXTERN ?PUSH_XSTACK_I_TWO
        EXTERN ?S_SHL
        EXTERN ?US_SHR
        EXTERN ?V0
        EXTERN ?XSTACK_DISP0_8

        PUBLIC ??HalFlashErase?relay
        FUNCTION ??HalFlashErase?relay,0203H
        PUBLIC ??HalFlashInit?relay
        FUNCTION ??HalFlashInit?relay,0203H
        PUBLIC ??HalFlashRead?relay
        FUNCTION ??HalFlashRead?relay,0203H
        PUBLIC ??HalFlashWrite?relay
        FUNCTION ??HalFlashWrite?relay,0203H
        FUNCTION ??HalFlashWriteTrigger?relay,0203H
        PUBWEAK DMAARM
        PUBWEAK DMAIRQ
        PUBLIC HalFlashErase
        FUNCTION HalFlashErase,0203H
        ARGFRAME XSTACK, 0, STACK
        LOCFRAME ISTACK, 2, STACK
        PUBLIC HalFlashInit
        FUNCTION HalFlashInit,021203H
        ARGFRAME XSTACK, 0, STACK
        LOCFRAME XSTACK, 12, STACK
        PUBLIC HalFlashRead
        FUNCTION HalFlashRead,0203H
        ARGFRAME XSTACK, 12, STACK
        ARGFRAME IOVERLAY, 0, STATIC
        ARGFRAME DOVERLAY, 0, STATIC
        LOCFRAME ISTACK, 1, STACK
        LOCFRAME XSTACK, 12, STACK
        PUBLIC HalFlashWrite
        FUNCTION HalFlashWrite,021203H
        ARGFRAME XSTACK, 2, STACK
        LOCFRAME XSTACK, 10, STACK
        FUNCTION HalFlashWriteTrigger,020bH
        ARGFRAME XSTACK, 10, STACK
        ARGFRAME IOVERLAY, 0, STATIC
        ARGFRAME DOVERLAY, 0, STATIC
        LOCFRAME ISTACK, 3, STACK
        PUBWEAK MEMCTR
        PUBWEAK _A_IEN0
        
        CFI Names cfiNames0
        CFI StackFrame CFA_SP SP IDATA
        CFI StackFrame CFA_PSP16 PSP16 XDATA
        CFI StackFrame CFA_XSP16 XSP16 XDATA
        CFI StaticOverlayFrame CFA_IOVERLAY IOVERLAY
        CFI StaticOverlayFrame CFA_DOVERLAY DOVERLAY
        CFI Resource `PSW.CY`:1, `B.BR0`:1, `B.BR1`:1, `B.BR2`:1, `B.BR3`:1
        CFI Resource `B.BR4`:1, `B.BR5`:1, `B.BR6`:1, `B.BR7`:1, `VB.BR8`:1
        CFI Resource `VB.BR9`:1, `VB.BR10`:1, `VB.BR11`:1, `VB.BR12`:1
        CFI Resource `VB.BR13`:1, `VB.BR14`:1, `VB.BR15`:1, VB:8, B:8, A:8
        CFI Resource PSW:8, DPL0:8, DPH0:8, R0:8, R1:8, R2:8, R3:8, R4:8, R5:8
        CFI Resource R6:8, R7:8, V0:8, V1:8, V2:8, V3:8, V4:8, V5:8, V6:8, V7:8
        CFI Resource V8:8, V9:8, V10:8, V11:8, V12:8, V13:8, V14:8, V15:8, SP:8
        CFI Resource PSPH:8, PSPL:8, PSP16:16, XSPH:8, XSPL:8, XSP16:16
        CFI VirtualResource ?RET:24
        CFI Resource ?BRET_EXT:8
        CFI VirtualResource ?RET_HIGH:8, ?RET_LOW:8
        CFI ResourceParts PSP16 PSPH, PSPL
        CFI ResourceParts XSP16 XSPH, XSPL
        CFI ResourceParts ?RET ?BRET_EXT, ?RET_HIGH, ?RET_LOW
        CFI EndNames cfiNames0
        
        CFI Common cfiCommon0 Using cfiNames0
        CFI CodeAlign 1
        CFI DataAlign -1
        CFI ReturnAddress ?RET CODE
        CFI CFA_DOVERLAY Used
        CFI CFA_IOVERLAY Used
        CFI CFA_SP SP+-3
        CFI CFA_PSP16 PSP16+0
        CFI CFA_XSP16 XSP16+0
        CFI `PSW.CY` SameValue
        CFI `B.BR0` SameValue
        CFI `B.BR1` SameValue
        CFI `B.BR2` SameValue
        CFI `B.BR3` SameValue
        CFI `B.BR4` SameValue
        CFI `B.BR5` SameValue
        CFI `B.BR6` SameValue
        CFI `B.BR7` SameValue
        CFI `VB.BR8` SameValue
        CFI `VB.BR9` SameValue
        CFI `VB.BR10` SameValue
        CFI `VB.BR11` SameValue
        CFI `VB.BR12` SameValue
        CFI `VB.BR13` SameValue
        CFI `VB.BR14` SameValue
        CFI `VB.BR15` SameValue
        CFI VB SameValue
        CFI B Undefined
        CFI A Undefined
        CFI PSW SameValue
        CFI DPL0 SameValue
        CFI DPH0 SameValue
        CFI R0 Undefined
        CFI R1 Undefined
        CFI R2 Undefined
        CFI R3 Undefined
        CFI R4 Undefined
        CFI R5 Undefined
        CFI R6 SameValue
        CFI R7 SameValue
        CFI V0 SameValue
        CFI V1 SameValue
        CFI V2 SameValue
        CFI V3 SameValue
        CFI V4 SameValue
        CFI V5 SameValue
        CFI V6 SameValue
        CFI V7 SameValue
        CFI V8 SameValue
        CFI V9 SameValue
        CFI V10 SameValue
        CFI V11 SameValue
        CFI V12 SameValue
        CFI V13 SameValue
        CFI V14 SameValue
        CFI V15 SameValue
        CFI PSPH Undefined
        CFI PSPL Undefined
        CFI XSPH Undefined
        CFI XSPL Undefined
        CFI ?RET Concat
        CFI ?BRET_EXT Frame(CFA_SP, 3)
        CFI ?RET_HIGH Frame(CFA_SP, 2)
        CFI ?RET_LOW Frame(CFA_SP, 1)
        CFI EndCommon cfiCommon0
        
HalFlashErase       SYMBOL "HalFlashErase"
??HalFlashErase?relay SYMBOL "?relay", HalFlashErase
HalFlashInit        SYMBOL "HalFlashInit"
??HalFlashInit?relay SYMBOL "?relay", HalFlashInit
HalFlashRead        SYMBOL "HalFlashRead"
??HalFlashRead?relay SYMBOL "?relay", HalFlashRead
HalFlashWrite       SYMBOL "HalFlashWrite"
??HalFlashWrite?relay SYMBOL "?relay", HalFlashWrite

        EXTERN dmaCh0

// C:\Texas Instruments\ZStack-CC2530-2.3.0-1.4.0\Components\hal\target\CC2530EB\hal_flash.c
//    1 /**************************************************************************************************
//    2   Filename:       _hal_flash.c
//    3   Revised:        $Date:$
//    4   Revision:       $Revision:$
//    5 
//    6   Description: This file contains the interface to the H/W Flash driver.
//    7 
//    8 
//    9   Copyright 2006-2009 Texas Instruments Incorporated. All rights reserved.
//   10 
//   11   IMPORTANT: Your use of this Software is limited to those specific rights
//   12   granted under the terms of a software license agreement between the user
//   13   who downloaded the software, his/her employer (which must be your employer)
//   14   and Texas Instruments Incorporated (the "License").  You may not use this
//   15   Software unless you agree to abide by the terms of the License. The License
//   16   limits your use, and you acknowledge, that the Software may not be modified,
//   17   copied or distributed unless embedded on a Texas Instruments microcontroller
//   18   or used solely and exclusively in conjunction with a Texas Instruments radio
//   19   frequency transceiver, which is integrated into your product.  Other than for
//   20   the foregoing purpose, you may not use, reproduce, copy, prepare derivative
//   21   works of, modify, distribute, perform, display or sell this Software and/or
//   22   its documentation for any purpose.
//   23 
//   24   YOU FURTHER ACKNOWLEDGE AND AGREE THAT THE SOFTWARE AND DOCUMENTATION ARE
//   25   PROVIDED “AS IS” WITHOUT WARRANTY OF ANY KIND, EITHER EXPRESS OR IMPLIED,
//   26   INCLUDING WITHOUT LIMITATION, ANY WARRANTY OF MERCHANTABILITY, TITLE,
//   27   NON-INFRINGEMENT AND FITNESS FOR A PARTICULAR PURPOSE. IN NO EVENT SHALL
//   28   TEXAS INSTRUMENTS OR ITS LICENSORS BE LIABLE OR OBLIGATED UNDER CONTRACT,
//   29   NEGLIGENCE, STRICT LIABILITY, CONTRIBUTION, BREACH OF WARRANTY, OR OTHER
//   30   LEGAL EQUITABLE THEORY ANY DIRECT OR INDIRECT DAMAGES OR EXPENSES
//   31   INCLUDING BUT NOT LIMITED TO ANY INCIDENTAL, SPECIAL, INDIRECT, PUNITIVE
//   32   OR CONSEQUENTIAL DAMAGES, LOST PROFITS OR LOST DATA, COST OF PROCUREMENT
//   33   OF SUBSTITUTE GOODS, TECHNOLOGY, SERVICES, OR ANY CLAIMS BY THIRD PARTIES
//   34   (INCLUDING BUT NOT LIMITED TO ANY DEFENSE THEREOF), OR OTHER SIMILAR COSTS.
//   35 
//   36   Should you have any questions regarding your right to use this Software,
//   37   contact Texas Instruments Incorporated at www.TI.com.
//   38 **************************************************************************************************/
//   39 
//   40 /* ------------------------------------------------------------------------------------------------
//   41  *                                          Includes
//   42  * ------------------------------------------------------------------------------------------------
//   43  */
//   44 
//   45 #include "hal_board_cfg.h"

        ASEGN SFR_AN:DATA:NOROOT,0a8H
// union <unnamed> volatile __sfr _A_IEN0
_A_IEN0:
        DS 1

        ASEGN SFR_AN:DATA:NOROOT,0c7H
// unsigned char volatile __sfr MEMCTR
MEMCTR:
        DS 1

        ASEGN SFR_AN:DATA:NOROOT,0d1H
// unsigned char volatile __sfr DMAIRQ
DMAIRQ:
        DS 1

        ASEGN SFR_AN:DATA:NOROOT,0d6H
// unsigned char volatile __sfr DMAARM
DMAARM:
        DS 1
//   46 #include "hal_dma.h"
//   47 #include "hal_flash.h"
//   48 #include "hal_types.h"
//   49 
//   50 /* ------------------------------------------------------------------------------------------------
//   51  *                                           Macros
//   52  * ------------------------------------------------------------------------------------------------
//   53  */
//   54 
//   55 /* ------------------------------------------------------------------------------------------------
//   56  *                                          Constants
//   57  * ------------------------------------------------------------------------------------------------
//   58  */
//   59 
//   60 // These values depend on RAM_CODE_FLASH in the .xcl file used.
//   61 #if defined CC2530F64     // RemoTI is using 0x01DDD --> pg 3, offset 0x5DD.
//   62 #define OSET_OF_RAM_CODE  0x5DD
//   63 #define PAGE_OF_RAM_CODE  3
//   64 #define SIZE_OF_RAM_CODE  0x23
//   65 #elif defined HAL_OAD_BOOT_CODE
//   66                           // OAD boot code is using 0x7E3 --> pg 0, so same as offset 0x7E3.
//   67 #define OSET_OF_RAM_CODE  0x7E3
//   68 #define PAGE_OF_RAM_CODE  0
//   69 #define SIZE_OF_RAM_CODE  0x1D
//   70 #elif defined HAL_USB_BOOT_CODE
//   71                           // USB boot code is using 0x7DD --> pg 0, so same as offset 0x7DD.
//   72 #define OSET_OF_RAM_CODE  0x7DD
//   73 #define PAGE_OF_RAM_CODE  0
//   74 #define SIZE_OF_RAM_CODE  0x23
//   75 #else                     // Z-Stack is using 0x39EDD --> pg 51, offset 0x6DD.
//   76 #define OSET_OF_RAM_CODE  0x6DD
//   77 #define PAGE_OF_RAM_CODE  51
//   78 #define SIZE_OF_RAM_CODE  0x23
//   79 #endif
//   80 
//   81 /* ------------------------------------------------------------------------------------------------
//   82  *                                          Typedefs
//   83  * ------------------------------------------------------------------------------------------------
//   84  */
//   85 
//   86 /* ------------------------------------------------------------------------------------------------
//   87  *                                       Global Variables
//   88  * ------------------------------------------------------------------------------------------------
//   89  */
//   90 
//   91 /* ------------------------------------------------------------------------------------------------
//   92  *                                       Global Functions
//   93  * ------------------------------------------------------------------------------------------------
//   94  */
//   95 
//   96 /* ------------------------------------------------------------------------------------------------
//   97  *                                       Local Variables
//   98  * ------------------------------------------------------------------------------------------------
//   99  */
//  100 
//  101 #pragma location="RAM_CODE_XDATA"

        RSEG RAM_CODE_XDATA:XDATA:REORDER:NOROOT(0)
//  102 static __no_init uint8 ramCode[SIZE_OF_RAM_CODE];
ramCode:
        DS 35
//  103 
//  104 /* ------------------------------------------------------------------------------------------------
//  105  *                                       Local Functions
//  106  * ------------------------------------------------------------------------------------------------
//  107  */
//  108 
//  109 #pragma location="RAM_CODE_FLASH"
//  110 #if defined HAL_OAD_BOOT_CODE
//  111 static void HalFlashWriteTrigger(void);
//  112 #else
//  113 static __monitor void HalFlashWriteTrigger(void);
//  114 #endif
//  115 
//  116 /**************************************************************************************************
//  117  * @fn          HalFlashInit
//  118  *
//  119  * @brief       This function initializes the environment for this module.
//  120  *
//  121  * input parameters
//  122  *
//  123  * None.
//  124  *
//  125  * output parameters
//  126  *
//  127  * None.
//  128  *
//  129  * @return      None.
//  130  **************************************************************************************************
//  131  */

        RSEG BANKED_CODE:CODE:NOROOT(0)
//  132 void HalFlashInit(void)
HalFlashInit:
        CFI Block cfiBlock0 Using cfiCommon0
        CFI Function HalFlashInit
//  133 {
        FUNCALL HalFlashInit, HalFlashRead
        LOCFRAME ISTACK, 0, STACK
        LOCFRAME PSTACK, 0, STACK
        LOCFRAME XSTACK, 12, STACK
        LOCFRAME IOVERLAY, 0, STATIC
        LOCFRAME DOVERLAY, 0, STATIC
        ARGFRAME ISTACK, 0, STACK
        ARGFRAME PSTACK, 0, STACK
        ARGFRAME XSTACK, 12, STACK
        ARGFRAME IOVERLAY, 0, STATIC
        ARGFRAME DOVERLAY, 0, STATIC
        MOV     A,#-0xa
        LCALL   ?BANKED_ENTER_XDATA
        CFI DPH0 load(1, XDATA, add(CFA_XSP16, literal(-1)))
        CFI DPL0 load(1, XDATA, add(CFA_XSP16, literal(-2)))
        CFI ?BRET_EXT load(1, XDATA, add(CFA_XSP16, literal(-3)))
        CFI ?RET_HIGH load(1, XDATA, add(CFA_XSP16, literal(-4)))
        CFI ?RET_LOW load(1, XDATA, add(CFA_XSP16, literal(-5)))
        CFI R7 load(1, XDATA, add(CFA_XSP16, literal(-6)))
        CFI V1 load(1, XDATA, add(CFA_XSP16, literal(-7)))
        CFI V0 load(1, XDATA, add(CFA_XSP16, literal(-8)))
        CFI VB load(1, XDATA, add(CFA_XSP16, literal(-9)))
        CFI R6 load(1, XDATA, add(CFA_XSP16, literal(-10)))
        CFI CFA_SP SP+0
        CFI CFA_XSP16 add(XSP16, 10)
        ; Saved register size: 10
        ; Auto size: 0
//  134   // Load the code to run from RAM into its reserved area of RAM once at startup.
//  135   HalFlashRead(PAGE_OF_RAM_CODE, OSET_OF_RAM_CODE, ramCode, SIZE_OF_RAM_CODE);
        ; Setup parameters for call to function HalFlashRead
        MOV     ?V0 + 0,#0x23
        MOV     ?V0 + 1,#0x0
        MOV     R0,#?V0 + 0
        LCALL   ?PUSH_XSTACK_I_TWO
        CFI CFA_XSP16 add(XSP16, 12)
        MOV     R4,#(ramCode & 0xff)
        MOV     R5,#((ramCode >> 8) & 0xff)
        MOV     R2,#-0x23
        MOV     R3,#0x6
        MOV     R1,#0x33
        LCALL   ??HalFlashRead?relay
        MOV     A,#0x2
        LCALL   ?DEALLOC_XSTACK8
        CFI EndBlock cfiBlock0
//  136 }
        REQUIRE ?Subroutine0
        ; // Fall through to label ?Subroutine0

        RSEG BANKED_CODE:CODE:NOROOT(0)
?Subroutine0:
        CFI Block cfiBlock1 Using cfiCommon0
        CFI NoFunction
        CFI CFA_SP SP+0
        CFI CFA_XSP16 add(XSP16, 10)
        CFI VB load(1, XDATA, add(CFA_XSP16, literal(-9)))
        CFI DPL0 load(1, XDATA, add(CFA_XSP16, literal(-2)))
        CFI DPH0 load(1, XDATA, add(CFA_XSP16, literal(-1)))
        CFI R6 load(1, XDATA, add(CFA_XSP16, literal(-10)))
        CFI R7 load(1, XDATA, add(CFA_XSP16, literal(-6)))
        CFI V0 load(1, XDATA, add(CFA_XSP16, literal(-8)))
        CFI V1 load(1, XDATA, add(CFA_XSP16, literal(-7)))
        CFI ?BRET_EXT load(1, XDATA, add(CFA_XSP16, literal(-3)))
        CFI ?RET_HIGH load(1, XDATA, add(CFA_XSP16, literal(-4)))
        CFI ?RET_LOW load(1, XDATA, add(CFA_XSP16, literal(-5)))
        MOV     R7,#0x2
        LJMP    ?BANKED_LEAVE_XDATA
        CFI EndBlock cfiBlock1
//  137 
//  138 /**************************************************************************************************
//  139  * @fn          HalFlashRead
//  140  *
//  141  * @brief       This function reads 'cnt' bytes from the internal flash.
//  142  *
//  143  * input parameters
//  144  *
//  145  * @param       pg - A valid flash page number.
//  146  * @param       offset - A valid offset into the page.
//  147  * @param       buf - A valid buffer space at least as big as the 'cnt' parameter.
//  148  * @param       cnt - A valid number of bytes to read.
//  149  *
//  150  * output parameters
//  151  *
//  152  * None.
//  153  *
//  154  * @return      None.
//  155  **************************************************************************************************
//  156  */

        RSEG BANKED_CODE:CODE:NOROOT(0)
//  157 void HalFlashRead(uint8 pg, uint16 offset, uint8 *buf, uint16 cnt)
HalFlashRead:
        CFI Block cfiBlock2 Using cfiCommon0
        CFI Function HalFlashRead
//  158 {
        MOV     A,#-0xc
        LCALL   ?BANKED_ENTER_XDATA
        CFI DPH0 load(1, XDATA, add(CFA_XSP16, literal(-1)))
        CFI DPL0 load(1, XDATA, add(CFA_XSP16, literal(-2)))
        CFI ?BRET_EXT load(1, XDATA, add(CFA_XSP16, literal(-3)))
        CFI ?RET_HIGH load(1, XDATA, add(CFA_XSP16, literal(-4)))
        CFI ?RET_LOW load(1, XDATA, add(CFA_XSP16, literal(-5)))
        CFI R7 load(1, XDATA, add(CFA_XSP16, literal(-6)))
        CFI V3 load(1, XDATA, add(CFA_XSP16, literal(-7)))
        CFI V2 load(1, XDATA, add(CFA_XSP16, literal(-8)))
        CFI V1 load(1, XDATA, add(CFA_XSP16, literal(-9)))
        CFI V0 load(1, XDATA, add(CFA_XSP16, literal(-10)))
        CFI VB load(1, XDATA, add(CFA_XSP16, literal(-11)))
        CFI R6 load(1, XDATA, add(CFA_XSP16, literal(-12)))
        CFI CFA_SP SP+0
        CFI CFA_XSP16 add(XSP16, 12)
        ; Saved register size: 12
        ; Auto size: 0
        MOV     ?V0 + 0,R1
        MOV     A,#0xc
        LCALL   ?XSTACK_DISP0_8
        MOVX    A,@DPTR
        MOV     R6,A
        INC     DPTR
        MOVX    A,@DPTR
        MOV     R7,A
//  159   // Calculate the offset into the containing flash bank as it gets mapped into XDATA.
//  160   uint8 *ptr = (uint8 *)(offset + HAL_FLASH_PAGE_MAP) +
//  161                ((pg % HAL_FLASH_PAGE_PER_BANK) * HAL_FLASH_PAGE_SIZE);
        MOV     A,#0xf
        ANL     A,?V0 + 0
        MOV     ?V0 + 2,A
        MOV     ?V0 + 3,#0x0
        MOV     A,#0xb
        MOV     R0,#?V0 + 2
        LCALL   ?S_SHL
        ADD     A,R2
        MOV     R0,A
        MOV     A,#-0x80
        ADDC    A,R3
        MOV     R1,A
        CLR     A
        ADD     A,R0
        MOV     A,?V0 + 3
        ADDC    A,R1
        MOV     R1,A
//  162   uint8 memctr = MEMCTR;  // Save to restore.
        MOV     A,0xc7
        MOV     ?V0 + 1,A
//  163 
//  164 #if !defined HAL_OAD_BOOT_CODE
//  165   halIntState_t is;
//  166 #endif
//  167 
//  168   pg /= HAL_FLASH_PAGE_PER_BANK;  // Calculate the flash bank from the flash page.
//  169 
//  170 #if !defined HAL_OAD_BOOT_CODE
//  171   HAL_ENTER_CRITICAL_SECTION(is);
        MOV     C,0xa8.7
        CLR     A
        MOV     0xE0 /* A   */.0,C
        MOV     ?V0 + 2,A
        CLR     0xa8.7
//  172 #endif
//  173 
//  174   // Calculate and map the containing flash bank into XDATA.
//  175   MEMCTR = (MEMCTR & 0xF8) | pg;
        MOV     A,?V0 + 0
        SWAP    A
        ANL     A,#0xf
        PUSH    A
        CFI CFA_SP SP+-1
        MOV     A,#-0x8
        ANL     A,0xc7
        MOV     R2,A
        POP     A
        CFI CFA_SP SP+0
        ORL     A,R2
        MOV     0xc7,A
        SJMP    ??HalFlashRead_0
//  176 
//  177   while (cnt--)
//  178   {
//  179     *buf++ = *ptr++;
??HalFlashRead_1:
        MOV     DPL,R0
        MOV     DPH,R1
        MOVX    A,@DPTR
        MOV     DPL,R4
        MOV     DPH,R5
        MOVX    @DPTR,A
        MOV     DPL,R0
        MOV     DPH,R1
        INC     DPTR
        MOV     R0,DPL
        MOV     R1,DPH
        MOV     DPL,R4
        MOV     DPH,R5
        INC     DPTR
        MOV     R4,DPL
        MOV     R5,DPH
//  180   }
??HalFlashRead_0:
        MOV     A,R6
        MOV     R2,A
        MOV     A,R7
        MOV     R3,A
        MOV     A,#-0x1
        ADD     A,R2
        DEC     R6
        MOV     A,#-0x1
        ADDC    A,R3
        MOV     R7,A
        MOV     A,R2
        JNZ     ??HalFlashRead_2
        MOV     A,R3
??HalFlashRead_2:
        JNZ     ??HalFlashRead_1
//  181 
//  182   MEMCTR = memctr;
        MOV     0xc7,?V0 + 1
//  183 
//  184 #if !defined HAL_OAD_BOOT_CODE
//  185   HAL_EXIT_CRITICAL_SECTION(is);
        MOV     A,?V0 + 2
        MOV     C,0xE0 /* A   */.0
        MOV     0xa8.7,C
//  186 #endif
//  187 }
        MOV     R7,#0x4
        LJMP    ?BANKED_LEAVE_XDATA
        CFI EndBlock cfiBlock2
        REQUIRE _A_IEN0
        REQUIRE MEMCTR
//  188 
//  189 /**************************************************************************************************
//  190  * @fn          HalFlashWrite
//  191  *
//  192  * @brief       This function writes 'cnt' bytes to the internal flash.
//  193  *
//  194  * input parameters
//  195  *
//  196  * @param       addr - Valid HAL flash write address: actual addr / 4 and quad-aligned.
//  197  * @param       buf - Valid buffer space at least as big as 'cnt' X 4.
//  198  * @param       cnt - Number of 4-byte blocks to write.
//  199  *
//  200  * output parameters
//  201  *
//  202  * None.
//  203  *
//  204  * @return      None.
//  205  **************************************************************************************************
//  206  */

        RSEG BANKED_CODE:CODE:NOROOT(0)
//  207 void HalFlashWrite(uint16 addr, uint8 *buf, uint16 cnt)
HalFlashWrite:
        CFI Block cfiBlock3 Using cfiCommon0
        CFI Function HalFlashWrite
//  208 {
        FUNCALL HalFlashWrite, HalFlashWriteTrigger
        LOCFRAME ISTACK, 0, STACK
        LOCFRAME PSTACK, 0, STACK
        LOCFRAME XSTACK, 10, STACK
        LOCFRAME IOVERLAY, 0, STATIC
        LOCFRAME DOVERLAY, 0, STATIC
        ARGFRAME ISTACK, 0, STACK
        ARGFRAME PSTACK, 0, STACK
        ARGFRAME XSTACK, 10, STACK
        ARGFRAME IOVERLAY, 0, STATIC
        ARGFRAME DOVERLAY, 0, STATIC
        MOV     A,#-0xa
        LCALL   ?BANKED_ENTER_XDATA
        CFI DPH0 load(1, XDATA, add(CFA_XSP16, literal(-1)))
        CFI DPL0 load(1, XDATA, add(CFA_XSP16, literal(-2)))
        CFI ?BRET_EXT load(1, XDATA, add(CFA_XSP16, literal(-3)))
        CFI ?RET_HIGH load(1, XDATA, add(CFA_XSP16, literal(-4)))
        CFI ?RET_LOW load(1, XDATA, add(CFA_XSP16, literal(-5)))
        CFI R7 load(1, XDATA, add(CFA_XSP16, literal(-6)))
        CFI V1 load(1, XDATA, add(CFA_XSP16, literal(-7)))
        CFI V0 load(1, XDATA, add(CFA_XSP16, literal(-8)))
        CFI VB load(1, XDATA, add(CFA_XSP16, literal(-9)))
        CFI R6 load(1, XDATA, add(CFA_XSP16, literal(-10)))
        CFI CFA_SP SP+0
        CFI CFA_XSP16 add(XSP16, 10)
        ; Saved register size: 10
        ; Auto size: 0
        MOV     A,#0xa
        LCALL   ?XSTACK_DISP0_8
        MOVX    A,@DPTR
        MOV     ?V0 + 0,A
        INC     DPTR
        MOVX    A,@DPTR
        MOV     ?V0 + 1,A
//  209   halDMADesc_t *ch = HAL_NV_DMA_GET_DESC();
//  210 
//  211   HAL_DMA_SET_SOURCE(ch, buf);
        MOV     A,R5
        MOV     DPTR,#dmaCh0
        MOVX    @DPTR,A
        MOV     A,R4
        MOV     DPTR,#(dmaCh0 + 1)
        MOVX    @DPTR,A
//  212   HAL_DMA_SET_DEST(ch, &FWDATA);
        MOV     A,#0x62
        MOV     DPTR,#(dmaCh0 + 2)
        MOVX    @DPTR,A
        MOV     A,#0x73
        MOV     DPTR,#(dmaCh0 + 3)
        MOVX    @DPTR,A
//  213   HAL_DMA_SET_VLEN(ch, HAL_DMA_VLEN_USE_LEN);
        MOV     DPTR,#(dmaCh0 + 4)
        MOVX    A,@DPTR
        ANL     A,#0x1f
        MOVX    @DPTR,A
//  214   HAL_DMA_SET_LEN(ch, (cnt * HAL_FLASH_WORD_SIZE));
        MOV     A,?V0 + 0
        RLC     A
        RLC     A
        ANL     A,#0xfc
        MOV     DPTR,#(dmaCh0 + 5)
        MOVX    @DPTR,A
        MOV     A,#0x6
        MOV     R0,#?V0 + 0
        LCALL   ?US_SHR
        MOV     A,?V0 + 0
        MOV     DPTR,#(dmaCh0 + 4)
        MOVX    @DPTR,A
//  215   HAL_DMA_SET_WORD_SIZE(ch, HAL_DMA_WORDSIZE_BYTE);
//  216   HAL_DMA_SET_TRIG_MODE(ch, HAL_DMA_TMODE_SINGLE);
//  217   HAL_DMA_SET_TRIG_SRC(ch, HAL_DMA_TRIG_FLASH);
        MOV     A,#0x12
        MOV     DPTR,#(dmaCh0 + 6)
        MOVX    @DPTR,A
//  218   HAL_DMA_SET_SRC_INC(ch, HAL_DMA_SRCINC_1);
//  219   HAL_DMA_SET_DST_INC(ch, HAL_DMA_DSTINC_0);
//  220   // The DMA is to be polled and shall not issue an IRQ upon completion.
//  221   HAL_DMA_SET_IRQ(ch, HAL_DMA_IRQMASK_DISABLE);
//  222   HAL_DMA_SET_M8( ch, HAL_DMA_M8_USE_8_BITS);
//  223   HAL_DMA_SET_PRIORITY(ch, HAL_DMA_PRI_HIGH);
        MOV     A,#0x42
        MOV     DPTR,#(dmaCh0 + 7)
        MOVX    @DPTR,A
//  224   HAL_DMA_CLEAR_IRQ(HAL_NV_DMA_CH);
        ANL     0xd1,#0xfe
//  225   HAL_DMA_ARM_CH(HAL_NV_DMA_CH);
        MOV     0xd6,#0x1
//  226 
//  227   FADDRL = (uint8)addr;
        MOV     A,R2
        MOV     DPTR,#0x6271
        MOVX    @DPTR,A
//  228   FADDRH = (uint8)(addr >> 8);
        MOV     A,R3
        MOV     DPTR,#0x6272
        MOVX    @DPTR,A
//  229   HalFlashWriteTrigger();
        ; Setup parameters for call to function HalFlashWriteTrigger
        LCALL   ??HalFlashWriteTrigger?relay
//  230 }
        LJMP    ?Subroutine0 & 0xFFFF
        CFI EndBlock cfiBlock3
        REQUIRE DMAIRQ
        REQUIRE DMAARM
//  231 
//  232 /**************************************************************************************************
//  233  * @fn          HalFlashErase
//  234  *
//  235  * @brief       This function erases the specified page of the internal flash.
//  236  *
//  237  * input parameters
//  238  *
//  239  * @param       pg - A valid flash page number to erase.
//  240  *
//  241  * output parameters
//  242  *
//  243  * None.
//  244  *
//  245  * @return      None.
//  246  **************************************************************************************************
//  247  */

        RSEG BANKED_CODE:CODE:NOROOT(0)
//  248 void HalFlashErase(uint8 pg)
HalFlashErase:
        CFI Block cfiBlock4 Using cfiCommon0
        CFI Function HalFlashErase
//  249 {
        PUSH    DPL
        CFI DPL0 Frame(CFA_SP, 4)
        CFI CFA_SP SP+-4
        PUSH    DPH
        CFI DPH0 Frame(CFA_SP, 5)
        CFI CFA_SP SP+-5
        ; Saved register size: 2
        ; Auto size: 0
//  250   FADDRH = pg * (HAL_FLASH_PAGE_SIZE / HAL_FLASH_WORD_SIZE / 256);
        MOV     A,R1
        CLR     C
        RLC     A
        MOV     DPTR,#0x6272
        MOVX    @DPTR,A
//  251   FCTL |= 0x01;
        MOV     DPTR,#0x6270
        MOVX    A,@DPTR
        SETB    0xE0 /* A   */.0
        MOVX    @DPTR,A
//  252 }
        POP     DPH
        CFI DPH0 SameValue
        CFI CFA_SP SP+-4
        POP     DPL
        CFI DPL0 SameValue
        CFI CFA_SP SP+-3
        LJMP    ?BRET
        CFI EndBlock cfiBlock4
//  253 
//  254 /**************************************************************************************************
//  255  * @fn          HalFlashWriteTrigger
//  256  *
//  257  * @brief       This function must be copied to RAM before running because it triggers and then
//  258  *              awaits completion of Flash write, which can only be done from RAM.
//  259  *
//  260  * input parameters
//  261  *
//  262  * None.
//  263  *
//  264  * output parameters
//  265  *
//  266  * None.
//  267  *
//  268  * @return      None.
//  269  **************************************************************************************************
//  270  */
//  271 #if defined HAL_OAD_BOOT_CODE
//  272 #pragma optimize=medium
//  273 static void HalFlashWriteTrigger(void)
//  274 #else

        RSEG RAM_CODE_FLASH:CODE:NOROOT(0)
//  275 static __monitor void HalFlashWriteTrigger(void)
HalFlashWriteTrigger:
        CFI Block cfiBlock5 Using cfiCommon0
        CFI Function HalFlashWriteTrigger
//  276 #endif
//  277 {
        PUSH    DPL
        CFI DPL0 Frame(CFA_SP, 4)
        CFI CFA_SP SP+-4
        PUSH    DPH
        CFI DPH0 Frame(CFA_SP, 5)
        CFI CFA_SP SP+-5
        ; Saved register size: 2
        ; Auto size: 0
        PUSH    0xA8 /* IE  */
        CFI CFA_SP SP+-6
        CLR     0xA8 /* IE  */.7
//  278   MEMCTR |= 0x08;       // Start the Memory Arbiter running CODE from RAM.
        ORL     0xc7,#0x8
//  279   FCTL |= 0x02;         // Trigger the DMA writes.
        MOV     DPTR,#0x6270
        MOVX    A,@DPTR
        SETB    0xE0 /* A   */.1
        MOVX    @DPTR,A
//  280   while (FCTL & 0x80);  // Wait until writing is done.
??HalFlashWriteTrigger_0:
        MOVX    A,@DPTR
        MOV     C,0xE0 /* A   */.7
        JC      ??HalFlashWriteTrigger_0
//  281   MEMCTR &= ~0x08;      // Stop the Memory Arbiter.
        ANL     0xc7,#0xf7
//  282 }
        POP     0xA8 /* IE  */
        CFI CFA_SP SP+-5
        POP     DPH
        CFI DPH0 SameValue
        CFI CFA_SP SP+-4
        POP     DPL
        CFI DPL0 SameValue
        CFI CFA_SP SP+-3
        LJMP    ?BRET
        CFI EndBlock cfiBlock5
        REQUIRE MEMCTR

        RSEG BANK_RELAYS:CODE:REORDER:NOROOT(0)
??HalFlashInit?relay:
        LCALL   ?BDISPATCH
        DATA
        DC24    HalFlashInit

        RSEG BANK_RELAYS:CODE:REORDER:NOROOT(0)
??HalFlashRead?relay:
        LCALL   ?BDISPATCH
        DATA
        DC24    HalFlashRead

        RSEG BANK_RELAYS:CODE:REORDER:NOROOT(0)
??HalFlashWrite?relay:
        LCALL   ?BDISPATCH
        DATA
        DC24    HalFlashWrite

        RSEG BANK_RELAYS:CODE:REORDER:NOROOT(0)
??HalFlashErase?relay:
        LCALL   ?BDISPATCH
        DATA
        DC24    HalFlashErase

        RSEG BANK_RELAYS:CODE:REORDER:NOROOT(0)
??HalFlashWriteTrigger?relay:
        LCALL   ?BDISPATCH
        DATA
        DC24    HalFlashWriteTrigger

        END
//  283 
//  284 /**************************************************************************************************
//  285 */
// 
// 304 bytes in segment BANKED_CODE
//  30 bytes in segment BANK_RELAYS
//  35 bytes in segment RAM_CODE_FLASH
//  35 bytes in segment RAM_CODE_XDATA
//   4 bytes in segment SFR_AN
// 
// 369 bytes of CODE  memory
//   0 bytes of DATA  memory (+ 4 bytes shared)
//  35 bytes of XDATA memory
//
//Errors: none
//Warnings: none
