///////////////////////////////////////////////////////////////////////////////
//                                                                            /
// IAR C/C++ Compiler V7.51A/W32 for 8051               24/May/2015  19:07:13 /
// Copyright 2004-2009 IAR Systems AB.                                        /
//                                                                            /
//    Core               =  plain                                             /
//    Code model         =  banked                                            /
//    Data model         =  large                                             /
//    Calling convention =  xdata reentrant                                   /
//    Constant location  =  data_rom                                          /
//    Dptr setup         =  1,16                                              /
//    Source file        =  C:\Texas Instruments\ZStack-CC2530-2.3.0-1.4.0\Co /
//                          mponents\stack\zdo\ZDObject.c                     /
//    Command line       =  -f "C:\Texas Instruments\ZStack-CC2530-2.3.0-1.4. /
//                          0\Projects\zstack\Samples\ParkingS\CC2530DB\..\.. /
//                          \..\Tools\CC2530DB\f8wRouter.cfg" (-DCPU32MHZ     /
//                          -DROOT=__near_func -DMAC_CFG_APP_PENDING_QUEUE=TR /
//                          UE -DRTR_NWK -DBLINK_LEDS) -f "C:\Texas           /
//                          Instruments\ZStack-CC2530-2.3.0-1.4.0\Projects\zs /
//                          tack\Samples\ParkingS\CC2530DB\..\..\..\Tools\CC2 /
//                          530DB\f8wConfig.cfg" (-DSECURE=0                  /
//                          -DZG_SECURE_DYNAMIC=0 -DREFLECTOR                 /
//                          -DDEFAULT_CHANLIST=0x00000800                     /
//                          -DZDAPP_CONFIG_PAN_ID=0xFFFF                      /
//                          -DNWK_START_DELAY=100 -DEXTENDED_JOINING_RANDOM_M /
//                          ASK=0x007F -DBEACON_REQUEST_DELAY=100             /
//                          -DBEACON_REQ_DELAY_MASK=0x00FF                    /
//                          -DROUTE_EXPIRY_TIME=30 -DAPSC_ACK_WAIT_DURATION_P /
//                          OLLED=3000 -DNWK_INDIRECT_MSG_TIMEOUT=7           /
//                          -DMAX_RREQ_ENTRIES=8 -DAPSC_MAX_FRAME_RETRIES=3   /
//                          -DNWK_MAX_DATA_RETRIES=2                          /
//                          -DMAX_POLL_FAILURE_RETRIES=2 -DMAX_BCAST=9        /
//                          -DAPS_MAX_GROUPS=16 -DMAX_RTG_ENTRIES=40          /
//                          -DNWK_MAX_BINDING_ENTRIES=4                       /
//                          -DMAX_BINDING_CLUSTER_IDS=4                       /
//                          "-DDEFAULT_KEY={0x01, 0x03, 0x05, 0x07, 0x09,     /
//                          0x0B, 0x0D, 0x0F, 0x00, 0x02, 0x04, 0x06, 0x08,   /
//                          0x0A, 0x0C, 0x0D}" -DMAC_MAX_FRAME_SIZE=116       /
//                          "-DCONST=const __code" -DGENERIC=__generic        /
//                          -DRFD_RCVC_ALWAYS_ON=FALSE -DPOLL_RATE=1000       /
//                          -DQUEUED_POLL_RATE=100 -DRESPONSE_POLL_RATE=100)  /
//                          -DREJOIN_POLL_RATE=440 "C:\Texas                  /
//                          Instruments\ZStack-CC2530-2.3.0-1.4.0\Components\ /
//                          stack\zdo\ZDObject.c" -D ZTOOL_P1 -D MT_TASK -D   /
//                          MT_SYS_FUNC -D MT_ZDO_FUNC -D                     /
//                          LCD_SUPPORTED=DEBUG -lC "C:\Texas                 /
//                          Instruments\ZStack-CC2530-2.3.0-1.4.0\Projects\zs /
//                          tack\Samples\ParkingS\CC2530DB\RouterEB\List\"    /
//                          -lA "C:\Texas Instruments\ZStack-CC2530-2.3.0-1.4 /
//                          .0\Projects\zstack\Samples\ParkingS\CC2530DB\Rout /
//                          erEB\List\" --diag_suppress Pe001,Pa010 -o        /
//                          "C:\Texas Instruments\ZStack-CC2530-2.3.0-1.4.0\P /
//                          rojects\zstack\Samples\ParkingS\CC2530DB\RouterEB /
//                          \Obj\" -e --require_prototypes --debug            /
//                          --core=plain --dptr=16,1 --data_model=large       /
//                          --code_model=banked --calling_convention=xdata_re /
//                          entrant --place_constants=data_rom                /
//                          --nr_virtual_regs 16 -I "C:\Texas                 /
//                          Instruments\ZStack-CC2530-2.3.0-1.4.0\Projects\zs /
//                          tack\Samples\ParkingS\CC2530DB\" -I "C:\Texas     /
//                          Instruments\ZStack-CC2530-2.3.0-1.4.0\Projects\zs /
//                          tack\Samples\ParkingS\CC2530DB\..\SOURCE\" -I     /
//                          "C:\Texas Instruments\ZStack-CC2530-2.3.0-1.4.0\P /
//                          rojects\zstack\Samples\ParkingS\CC2530DB\..\..\.. /
//                          \ZMAIN\TI2530DB\" -I "C:\Texas                    /
//                          Instruments\ZStack-CC2530-2.3.0-1.4.0\Projects\zs /
//                          tack\Samples\ParkingS\CC2530DB\..\..\..\..\..\COM /
//                          PONENTS\MT\" -I "C:\Texas                         /
//                          Instruments\ZStack-CC2530-2.3.0-1.4.0\Projects\zs /
//                          tack\Samples\ParkingS\CC2530DB\..\..\..\..\..\COM /
//                          PONENTS\HAL\INCLUDE\" -I "C:\Texas                /
//                          Instruments\ZStack-CC2530-2.3.0-1.4.0\Projects\zs /
//                          tack\Samples\ParkingS\CC2530DB\..\..\..\..\..\COM /
//                          PONENTS\HAL\TARGET\CC2530EB\" -I "C:\Texas        /
//                          Instruments\ZStack-CC2530-2.3.0-1.4.0\Projects\zs /
//                          tack\Samples\ParkingS\CC2530DB\..\..\..\..\..\COM /
//                          PONENTS\OSAL\MCU\CCSOC\" -I "C:\Texas             /
//                          Instruments\ZStack-CC2530-2.3.0-1.4.0\Projects\zs /
//                          tack\Samples\ParkingS\CC2530DB\..\..\..\..\..\COM /
//                          PONENTS\OSAL\INCLUDE\" -I "C:\Texas               /
//                          Instruments\ZStack-CC2530-2.3.0-1.4.0\Projects\zs /
//                          tack\Samples\ParkingS\CC2530DB\..\..\..\..\..\COM /
//                          PONENTS\STACK\AF\" -I "C:\Texas                   /
//                          Instruments\ZStack-CC2530-2.3.0-1.4.0\Projects\zs /
//                          tack\Samples\ParkingS\CC2530DB\..\..\..\..\..\COM /
//                          PONENTS\STACK\NWK\" -I "C:\Texas                  /
//                          Instruments\ZStack-CC2530-2.3.0-1.4.0\Projects\zs /
//                          tack\Samples\ParkingS\CC2530DB\..\..\..\..\..\COM /
//                          PONENTS\STACK\SEC\" -I "C:\Texas                  /
//                          Instruments\ZStack-CC2530-2.3.0-1.4.0\Projects\zs /
//                          tack\Samples\ParkingS\CC2530DB\..\..\..\..\..\COM /
//                          PONENTS\STACK\SAPI\" -I "C:\Texas                 /
//                          Instruments\ZStack-CC2530-2.3.0-1.4.0\Projects\zs /
//                          tack\Samples\ParkingS\CC2530DB\..\..\..\..\..\COM /
//                          PONENTS\STACK\SYS\" -I "C:\Texas                  /
//                          Instruments\ZStack-CC2530-2.3.0-1.4.0\Projects\zs /
//                          tack\Samples\ParkingS\CC2530DB\..\..\..\..\..\COM /
//                          PONENTS\STACK\ZDO\" -I "C:\Texas                  /
//                          Instruments\ZStack-CC2530-2.3.0-1.4.0\Projects\zs /
//                          tack\Samples\ParkingS\CC2530DB\..\..\..\..\..\COM /
//                          PONENTS\ZMAC\F8W\" -I "C:\Texas                   /
//                          Instruments\ZStack-CC2530-2.3.0-1.4.0\Projects\zs /
//                          tack\Samples\ParkingS\CC2530DB\..\..\..\..\..\COM /
//                          PONENTS\ZMAC\" -I "C:\Texas                       /
//                          Instruments\ZStack-CC2530-2.3.0-1.4.0\Projects\zs /
//                          tack\Samples\ParkingS\CC2530DB\..\..\..\..\..\COM /
//                          PONENTS\SERVICES\SADDR\" -I "C:\Texas             /
//                          Instruments\ZStack-CC2530-2.3.0-1.4.0\Projects\zs /
//                          tack\Samples\ParkingS\CC2530DB\..\..\..\..\..\COM /
//                          PONENTS\SERVICES\SDATA\" -I "C:\Texas             /
//                          Instruments\ZStack-CC2530-2.3.0-1.4.0\Projects\zs /
//                          tack\Samples\ParkingS\CC2530DB\..\..\..\..\..\COM /
//                          PONENTS\MAC\INCLUDE\" -I "C:\Texas                /
//                          Instruments\ZStack-CC2530-2.3.0-1.4.0\Projects\zs /
//                          tack\Samples\ParkingS\CC2530DB\..\..\..\..\..\COM /
//                          PONENTS\MAC\HIGH_LEVEL\" -I "C:\Texas             /
//                          Instruments\ZStack-CC2530-2.3.0-1.4.0\Projects\zs /
//                          tack\Samples\ParkingS\CC2530DB\..\..\..\..\..\COM /
//                          PONENTS\MAC\LOW_LEVEL\srf04\" -I "C:\Texas        /
//                          Instruments\ZStack-CC2530-2.3.0-1.4.0\Projects\zs /
//                          tack\Samples\ParkingS\CC2530DB\..\..\..\..\..\COM /
//                          PONENTS\MAC\LOW_LEVEL\srf04\SINGLE_CHIP\" -I      /
//                          "C:\Program Files\IAR Systems\Embedded Workbench  /
//                          5.3\8051\INC\" -I "C:\Program Files\IAR           /
//                          Systems\Embedded Workbench 5.3\8051\INC\CLIB\"    /
//                          -Ohz                                              /
//    List file          =  C:\Texas Instruments\ZStack-CC2530-2.3.0-1.4.0\Pr /
//                          ojects\zstack\Samples\ParkingS\CC2530DB\RouterEB\ /
//                          List\ZDObject.s51                                 /
//                                                                            /
//                                                                            /
///////////////////////////////////////////////////////////////////////////////

        NAME ZDObject

        RTMODEL "__calling_convention", "xdata_reentrant"
        RTMODEL "__code_model", "banked"
        RTMODEL "__core", "plain"
        RTMODEL "__data_model", "large"
        RTMODEL "__dptr_size", "16"
        RTMODEL "__extended_stack", "disabled"
        RTMODEL "__location_for_constants", "data"
        RTMODEL "__number_of_dptrs", "1"
        RTMODEL "__rt_version", "1"

        RSEG DOVERLAY:DATA:NOROOT(0)
        RSEG IOVERLAY:IDATA:NOROOT(0)
        RSEG ISTACK:IDATA:NOROOT(0)
        RSEG PSTACK:XDATA:NOROOT(0)
        RSEG XSTACK:XDATA:NOROOT(0)

        EXTERN ??ZDMatchSendState?relay
        EXTERN ??ZDO_AnyClusterMatches?relay
        EXTERN ??ZDO_CompareClusterLists?relay
        EXTERN ??ZDO_ConvertOTAClusters?relay
        EXTERN ??ZDO_CopyMatchInfo?relay
        EXTERN ??ZDO_EndDeviceBindMatchTimeoutCB?relay
        EXTERN ??ZDO_ParseDeviceAnnce?relay
        EXTERN ??ZDO_ParseSimpleDescBuf?relay
        EXTERN ??ZDO_RemoveMatchMemory?relay
        EXTERN ?ALLOC_XSTACK8
        EXTERN ?BANKED_ENTER_XDATA
        EXTERN ?BANKED_LEAVE_XDATA
        EXTERN ?BDISPATCH
        EXTERN ?BRET
        EXTERN ?CALL_IND
        EXTERN ?DEALLOC_XSTACK8
        EXTERN ?L_MOV_TO_X
        EXTERN ?L_MOV_X
        EXTERN ?PUSH_XSTACK8_X_TWO
        EXTERN ?PUSH_XSTACK_I_ONE
        EXTERN ?PUSH_XSTACK_I_THREE
        EXTERN ?PUSH_XSTACK_I_TWO
        EXTERN ?S_SHL
        EXTERN ?UC_SWITCH_DENSE
        EXTERN ?V0
        EXTERN ?XSP
        EXTERN ?XSTACK_DISP0_8
        EXTERN __INIT_XDATA_Z

        PUBLIC ??NLME_PermitJoiningTimeout?relay
        FUNCTION ??NLME_PermitJoiningTimeout?relay,0203H
        PUBLIC ??ZDMatchSendState?relay
        FUNCTION ??ZDMatchSendState?relay,0203H
        PUBLIC ??ZDO_AnyClusterMatches?relay
        FUNCTION ??ZDO_AnyClusterMatches?relay,0203H
        PUBLIC ??ZDO_BuildSimpleDescBuf?relay
        FUNCTION ??ZDO_BuildSimpleDescBuf?relay,0203H
        FUNCTION ??ZDO_CompareClusterLists?relay,0203H
        PUBLIC ??ZDO_ConvertOTAClusters?relay
        FUNCTION ??ZDO_ConvertOTAClusters?relay,0203H
        FUNCTION ??ZDO_CopyMatchInfo?relay,0203H
        FUNCTION ??ZDO_EndDeviceBindMatchTimeoutCB?relay,0203H
        PUBLIC ??ZDO_EndDeviceTimeoutCB?relay
        FUNCTION ??ZDO_EndDeviceTimeoutCB?relay,0203H
        PUBLIC ??ZDO_Init?relay
        FUNCTION ??ZDO_Init?relay,0203H
        PUBLIC ??ZDO_MatchEndDeviceBind?relay
        FUNCTION ??ZDO_MatchEndDeviceBind?relay,0203H
        PUBLIC ??ZDO_ParseAddrRsp?relay
        FUNCTION ??ZDO_ParseAddrRsp?relay,0203H
        PUBLIC ??ZDO_ParseBindUnbindReq?relay
        FUNCTION ??ZDO_ParseBindUnbindReq?relay,0203H
        PUBLIC ??ZDO_ParseDeviceAnnce?relay
        FUNCTION ??ZDO_ParseDeviceAnnce?relay,0203H
        PUBLIC ??ZDO_ParseEPListRsp?relay
        FUNCTION ??ZDO_ParseEPListRsp?relay,0203H
        PUBLIC ??ZDO_ParseEndDeviceBindReq?relay
        FUNCTION ??ZDO_ParseEndDeviceBindReq?relay,0203H
        PUBLIC ??ZDO_ParseMgmNwkDiscRsp?relay
        FUNCTION ??ZDO_ParseMgmNwkDiscRsp?relay,0203H
        PUBLIC ??ZDO_ParseMgmtBindRsp?relay
        FUNCTION ??ZDO_ParseMgmtBindRsp?relay,0203H
        PUBLIC ??ZDO_ParseMgmtLqiRsp?relay
        FUNCTION ??ZDO_ParseMgmtLqiRsp?relay,0203H
        PUBLIC ??ZDO_ParseMgmtNwkUpdateNotify?relay
        FUNCTION ??ZDO_ParseMgmtNwkUpdateNotify?relay,0203H
        PUBLIC ??ZDO_ParseMgmtNwkUpdateReq?relay
        FUNCTION ??ZDO_ParseMgmtNwkUpdateReq?relay,0203H
        PUBLIC ??ZDO_ParseMgmtRtgRsp?relay
        FUNCTION ??ZDO_ParseMgmtRtgRsp?relay,0203H
        PUBLIC ??ZDO_ParseNodeDescRsp?relay
        FUNCTION ??ZDO_ParseNodeDescRsp?relay,0203H
        PUBLIC ??ZDO_ParsePowerDescRsp?relay
        FUNCTION ??ZDO_ParsePowerDescRsp?relay,0203H
        PUBLIC ??ZDO_ParseServerDiscRsp?relay
        FUNCTION ??ZDO_ParseServerDiscRsp?relay,0203H
        PUBLIC ??ZDO_ParseSimpleDescBuf?relay
        FUNCTION ??ZDO_ParseSimpleDescBuf?relay,0203H
        PUBLIC ??ZDO_ParseSimpleDescRsp?relay
        FUNCTION ??ZDO_ParseSimpleDescRsp?relay,0203H
        PUBLIC ??ZDO_ParseUserDescRsp?relay
        FUNCTION ??ZDO_ParseUserDescRsp?relay,0203H
        PUBLIC ??ZDO_ProcessActiveEPReq?relay
        FUNCTION ??ZDO_ProcessActiveEPReq?relay,0203H
        PUBLIC ??ZDO_ProcessBindUnbindReq?relay
        FUNCTION ??ZDO_ProcessBindUnbindReq?relay,0203H
        PUBLIC ??ZDO_ProcessDeviceAnnce?relay
        FUNCTION ??ZDO_ProcessDeviceAnnce?relay,0203H
        PUBLIC ??ZDO_ProcessMatchDescReq?relay
        FUNCTION ??ZDO_ProcessMatchDescReq?relay,0203H
        PUBLIC ??ZDO_ProcessMgmtBindReq?relay
        FUNCTION ??ZDO_ProcessMgmtBindReq?relay,0203H
        PUBLIC ??ZDO_ProcessMgmtDirectJoinReq?relay
        FUNCTION ??ZDO_ProcessMgmtDirectJoinReq?relay,0203H
        PUBLIC ??ZDO_ProcessMgmtLeaveReq?relay
        FUNCTION ??ZDO_ProcessMgmtLeaveReq?relay,0203H
        PUBLIC ??ZDO_ProcessMgmtLqiReq?relay
        FUNCTION ??ZDO_ProcessMgmtLqiReq?relay,0203H
        PUBLIC ??ZDO_ProcessMgmtNwkDiscReq?relay
        FUNCTION ??ZDO_ProcessMgmtNwkDiscReq?relay,0203H
        PUBLIC ??ZDO_ProcessMgmtPermitJoinReq?relay
        FUNCTION ??ZDO_ProcessMgmtPermitJoinReq?relay,0203H
        PUBLIC ??ZDO_ProcessMgmtRtgReq?relay
        FUNCTION ??ZDO_ProcessMgmtRtgReq?relay,0203H
        PUBLIC ??ZDO_ProcessNodeDescReq?relay
        FUNCTION ??ZDO_ProcessNodeDescReq?relay,0203H
        PUBLIC ??ZDO_ProcessPowerDescReq?relay
        FUNCTION ??ZDO_ProcessPowerDescReq?relay,0203H
        PUBLIC ??ZDO_ProcessServerDiscReq?relay
        FUNCTION ??ZDO_ProcessServerDiscReq?relay,0203H
        PUBLIC ??ZDO_ProcessSimpleDescReq?relay
        FUNCTION ??ZDO_ProcessSimpleDescReq?relay,0203H
        PUBLIC ??ZDO_ProcessUserDescReq?relay
        FUNCTION ??ZDO_ProcessUserDescReq?relay,0203H
        PUBLIC ??ZDO_ProcessUserDescSet?relay
        FUNCTION ??ZDO_ProcessUserDescSet?relay,0203H
        FUNCTION ??ZDO_RemoveMatchMemory?relay,0203H
        PUBLIC ??ZDO_StartDevice?relay
        FUNCTION ??ZDO_StartDevice?relay,0203H
        PUBLIC ??ZDO_UpdateAddrManager?relay
        FUNCTION ??ZDO_UpdateAddrManager?relay,0203H
        PUBLIC ??ZDO_UpdateNwkStatus?relay
        FUNCTION ??ZDO_UpdateNwkStatus?relay,0203H
        PUBLIC NLME_PermitJoiningTimeout
        FUNCTION NLME_PermitJoiningTimeout,0203H
        ARGFRAME XSTACK, 0, STACK
        PUBLIC ZDMatchSendState
        FUNCTION ZDMatchSendState,021203H
        ARGFRAME XSTACK, 25, STACK
        ARGFRAME IOVERLAY, 0, STATIC
        ARGFRAME DOVERLAY, 0, STATIC
        LOCFRAME ISTACK, 1, STACK
        LOCFRAME XSTACK, 43, STACK
        PUBLIC ZDO_AnyClusterMatches
        FUNCTION ZDO_AnyClusterMatches,0203H
        ARGFRAME XSTACK, 30, STACK
        ARGFRAME IOVERLAY, 0, STATIC
        ARGFRAME DOVERLAY, 0, STATIC
        LOCFRAME XSTACK, 12, STACK
        PUBLIC ZDO_BuildSimpleDescBuf
        FUNCTION ZDO_BuildSimpleDescBuf,0203H
        ARGFRAME XSTACK, 0, STACK
        LOCFRAME ISTACK, 1, STACK
        LOCFRAME XSTACK, 13, STACK
        FUNCTION ZDO_CompareClusterLists,0203H
        ARGFRAME XSTACK, 29, STACK
        ARGFRAME IOVERLAY, 0, STATIC
        ARGFRAME DOVERLAY, 0, STATIC
        LOCFRAME XSTACK, 15, STACK
        PUBLIC ZDO_ConvertOTAClusters
        FUNCTION ZDO_ConvertOTAClusters,0203H
        ARGFRAME XSTACK, 28, STACK
        ARGFRAME IOVERLAY, 0, STATIC
        ARGFRAME DOVERLAY, 0, STATIC
        LOCFRAME XSTACK, 11, STACK
        FUNCTION ZDO_CopyMatchInfo,021203H
        ARGFRAME XSTACK, 25, STACK
        ARGFRAME IOVERLAY, 0, STATIC
        ARGFRAME DOVERLAY, 0, STATIC
        LOCFRAME XSTACK, 23, STACK
        FUNCTION ZDO_EndDeviceBindMatchTimeoutCB,021603H
        ARGFRAME XSTACK, 0, STACK
        LOCFRAME ISTACK, 2, STACK
        PUBLIC ZDO_EndDeviceTimeoutCB
        FUNCTION ZDO_EndDeviceTimeoutCB,021203H
        ARGFRAME XSTACK, 0, STACK
        LOCFRAME ISTACK, 1, STACK
        LOCFRAME XSTACK, 17, STACK
        PUBLIC ZDO_Init
        FUNCTION ZDO_Init,021203H
        ARGFRAME XSTACK, 0, STACK
        LOCFRAME ISTACK, 2, STACK
        PUBLIC ZDO_MatchEndDeviceBind
        FUNCTION ZDO_MatchEndDeviceBind,021203H
        ARGFRAME XSTACK, 0, STACK
        LOCFRAME ISTACK, 1, STACK
        LOCFRAME XSTACK, 30, STACK
        PUBLIC ZDO_ParseAddrRsp
        FUNCTION ZDO_ParseAddrRsp,021203H
        ARGFRAME XSTACK, 0, STACK
        LOCFRAME ISTACK, 1, STACK
        LOCFRAME XSTACK, 14, STACK
        PUBLIC ZDO_ParseBindUnbindReq
        FUNCTION ZDO_ParseBindUnbindReq,021203H
        ARGFRAME XSTACK, 0, STACK
        LOCFRAME ISTACK, 1, STACK
        LOCFRAME XSTACK, 10, STACK
        PUBLIC ZDO_ParseDeviceAnnce
        FUNCTION ZDO_ParseDeviceAnnce,021203H
        ARGFRAME XSTACK, 32, STACK
        ARGFRAME IOVERLAY, 0, STATIC
        ARGFRAME DOVERLAY, 0, STATIC
        LOCFRAME ISTACK, 1, STACK
        LOCFRAME XSTACK, 10, STACK
        PUBLIC ZDO_ParseEPListRsp
        FUNCTION ZDO_ParseEPListRsp,021203H
        ARGFRAME XSTACK, 0, STACK
        LOCFRAME ISTACK, 1, STACK
        LOCFRAME XSTACK, 19, STACK
        PUBLIC ZDO_ParseEndDeviceBindReq
        FUNCTION ZDO_ParseEndDeviceBindReq,021203H
        ARGFRAME XSTACK, 0, STACK
        LOCFRAME ISTACK, 1, STACK
        LOCFRAME XSTACK, 16, STACK
        PUBLIC ZDO_ParseMgmNwkDiscRsp
        FUNCTION ZDO_ParseMgmNwkDiscRsp,021203H
        ARGFRAME XSTACK, 0, STACK
        LOCFRAME ISTACK, 1, STACK
        LOCFRAME XSTACK, 16, STACK
        PUBLIC ZDO_ParseMgmtBindRsp
        FUNCTION ZDO_ParseMgmtBindRsp,021203H
        ARGFRAME XSTACK, 0, STACK
        LOCFRAME ISTACK, 1, STACK
        LOCFRAME XSTACK, 18, STACK
        PUBLIC ZDO_ParseMgmtLqiRsp
        FUNCTION ZDO_ParseMgmtLqiRsp,021203H
        ARGFRAME XSTACK, 0, STACK
        LOCFRAME ISTACK, 1, STACK
        LOCFRAME XSTACK, 16, STACK
        PUBLIC ZDO_ParseMgmtNwkUpdateNotify
        FUNCTION ZDO_ParseMgmtNwkUpdateNotify,021203H
        ARGFRAME XSTACK, 0, STACK
        LOCFRAME ISTACK, 1, STACK
        LOCFRAME XSTACK, 27, STACK
        PUBLIC ZDO_ParseMgmtNwkUpdateReq
        FUNCTION ZDO_ParseMgmtNwkUpdateReq,021203H
        ARGFRAME XSTACK, 0, STACK
        LOCFRAME ISTACK, 1, STACK
        LOCFRAME XSTACK, 16, STACK
        PUBLIC ZDO_ParseMgmtRtgRsp
        FUNCTION ZDO_ParseMgmtRtgRsp,021203H
        ARGFRAME XSTACK, 0, STACK
        LOCFRAME ISTACK, 1, STACK
        LOCFRAME XSTACK, 14, STACK
        PUBLIC ZDO_ParseNodeDescRsp
        FUNCTION ZDO_ParseNodeDescRsp,0203H
        ARGFRAME XSTACK, 0, STACK
        LOCFRAME ISTACK, 2, STACK
        LOCFRAME XSTACK, 9, STACK
        PUBLIC ZDO_ParsePowerDescRsp
        FUNCTION ZDO_ParsePowerDescRsp,0203H
        ARGFRAME XSTACK, 0, STACK
        LOCFRAME ISTACK, 1, STACK
        LOCFRAME XSTACK, 10, STACK
        PUBLIC ZDO_ParseServerDiscRsp
        FUNCTION ZDO_ParseServerDiscRsp,0203H
        ARGFRAME XSTACK, 0, STACK
        LOCFRAME ISTACK, 1, STACK
        LOCFRAME XSTACK, 9, STACK
        PUBLIC ZDO_ParseSimpleDescBuf
        FUNCTION ZDO_ParseSimpleDescBuf,021203H
        ARGFRAME XSTACK, 9, STACK
        ARGFRAME IOVERLAY, 0, STATIC
        ARGFRAME DOVERLAY, 0, STATIC
        LOCFRAME ISTACK, 1, STACK
        LOCFRAME XSTACK, 16, STACK
        PUBLIC ZDO_ParseSimpleDescRsp
        FUNCTION ZDO_ParseSimpleDescRsp,021203H
        ARGFRAME XSTACK, 0, STACK
        LOCFRAME ISTACK, 1, STACK
        LOCFRAME XSTACK, 9, STACK
        PUBLIC ZDO_ParseUserDescRsp
        FUNCTION ZDO_ParseUserDescRsp,021203H
        ARGFRAME XSTACK, 0, STACK
        LOCFRAME ISTACK, 1, STACK
        LOCFRAME XSTACK, 19, STACK
        PUBLIC ZDO_ProcessActiveEPReq
        FUNCTION ZDO_ProcessActiveEPReq,021203H
        ARGFRAME XSTACK, 0, STACK
        LOCFRAME XSTACK, 21, STACK
        PUBLIC ZDO_ProcessBindUnbindReq
        FUNCTION ZDO_ProcessBindUnbindReq,021203H
        ARGFRAME XSTACK, 0, STACK
        LOCFRAME ISTACK, 1, STACK
        LOCFRAME XSTACK, 39, STACK
        PUBLIC ZDO_ProcessDeviceAnnce
        FUNCTION ZDO_ProcessDeviceAnnce,021203H
        ARGFRAME XSTACK, 0, STACK
        LOCFRAME ISTACK, 3, STACK
        LOCFRAME XSTACK, 32, STACK
        PUBLIC ZDO_ProcessMatchDescReq
        FUNCTION ZDO_ProcessMatchDescReq,021203H
        ARGFRAME XSTACK, 0, STACK
        LOCFRAME ISTACK, 1, STACK
        LOCFRAME XSTACK, 35, STACK
        PUBLIC ZDO_ProcessMgmtBindReq
        FUNCTION ZDO_ProcessMgmtBindReq,021203H
        ARGFRAME XSTACK, 0, STACK
        LOCFRAME XSTACK, 29, STACK
        PUBLIC ZDO_ProcessMgmtDirectJoinReq
        FUNCTION ZDO_ProcessMgmtDirectJoinReq,021203H
        ARGFRAME XSTACK, 0, STACK
        LOCFRAME ISTACK, 1, STACK
        LOCFRAME XSTACK, 16, STACK
        PUBLIC ZDO_ProcessMgmtLeaveReq
        FUNCTION ZDO_ProcessMgmtLeaveReq,021203H
        ARGFRAME XSTACK, 0, STACK
        LOCFRAME ISTACK, 1, STACK
        LOCFRAME XSTACK, 23, STACK
        PUBLIC ZDO_ProcessMgmtLqiReq
        FUNCTION ZDO_ProcessMgmtLqiReq,021203H
        ARGFRAME XSTACK, 0, STACK
        LOCFRAME ISTACK, 1, STACK
        LOCFRAME XSTACK, 66, STACK
        PUBLIC ZDO_ProcessMgmtNwkDiscReq
        FUNCTION ZDO_ProcessMgmtNwkDiscReq,021203H
        ARGFRAME XSTACK, 0, STACK
        LOCFRAME ISTACK, 1, STACK
        LOCFRAME XSTACK, 23, STACK
        PUBLIC ZDO_ProcessMgmtPermitJoinReq
        FUNCTION ZDO_ProcessMgmtPermitJoinReq,021203H
        ARGFRAME XSTACK, 0, STACK
        LOCFRAME ISTACK, 1, STACK
        LOCFRAME XSTACK, 16, STACK
        PUBLIC ZDO_ProcessMgmtRtgReq
        FUNCTION ZDO_ProcessMgmtRtgReq,0a1203H
        ARGFRAME XSTACK, 0, STACK
        LOCFRAME ISTACK, 1, STACK
        LOCFRAME XSTACK, 26, STACK
        PUBLIC ZDO_ProcessNodeDescReq
        FUNCTION ZDO_ProcessNodeDescReq,021203H
        ARGFRAME XSTACK, 0, STACK
        LOCFRAME XSTACK, 14, STACK
        PUBLIC ZDO_ProcessPowerDescReq
        FUNCTION ZDO_ProcessPowerDescReq,021203H
        ARGFRAME XSTACK, 0, STACK
        LOCFRAME XSTACK, 14, STACK
        PUBLIC ZDO_ProcessServerDiscReq
        FUNCTION ZDO_ProcessServerDiscReq,021203H
        ARGFRAME XSTACK, 0, STACK
        LOCFRAME XSTACK, 14, STACK
        PUBLIC ZDO_ProcessSimpleDescReq
        FUNCTION ZDO_ProcessSimpleDescReq,021203H
        ARGFRAME XSTACK, 0, STACK
        LOCFRAME XSTACK, 12, STACK
        PUBLIC ZDO_ProcessUserDescReq
        FUNCTION ZDO_ProcessUserDescReq,021203H
        ARGFRAME XSTACK, 0, STACK
        LOCFRAME XSTACK, 37, STACK
        PUBLIC ZDO_ProcessUserDescSet
        FUNCTION ZDO_ProcessUserDescSet,021203H
        ARGFRAME XSTACK, 0, STACK
        LOCFRAME ISTACK, 1, STACK
        LOCFRAME XSTACK, 40, STACK
        FUNCTION ZDO_RemoveMatchMemory,021203H
        ARGFRAME XSTACK, 35, STACK
        ARGFRAME IOVERLAY, 0, STATIC
        ARGFRAME DOVERLAY, 0, STATIC
        LOCFRAME ISTACK, 2, STACK
        PUBLIC ZDO_StartDevice
        FUNCTION ZDO_StartDevice,021203H
        ARGFRAME XSTACK, 0, STACK
        LOCFRAME ISTACK, 1, STACK
        LOCFRAME XSTACK, 23, STACK
        PUBLIC ZDO_UpdateAddrManager
        FUNCTION ZDO_UpdateAddrManager,021203H
        ARGFRAME XSTACK, 0, STACK
        LOCFRAME ISTACK, 3, STACK
        LOCFRAME XSTACK, 13, STACK
        PUBLIC ZDO_UpdateNwkStatus
        FUNCTION ZDO_UpdateNwkStatus,021203H
        ARGFRAME XSTACK, 0, STACK
        LOCFRAME ISTACK, 1, STACK
        LOCFRAME XSTACK, 12, STACK
        PUBWEAK __Constant_0
        PUBWEAK __Constant_7fff800
        PUBLIC apsChannelMask
        PUBLIC matchED
        
        CFI Names cfiNames0
        CFI StackFrame CFA_SP SP IDATA
        CFI StackFrame CFA_PSP16 PSP16 XDATA
        CFI StackFrame CFA_XSP16 XSP16 XDATA
        CFI StaticOverlayFrame CFA_IOVERLAY IOVERLAY
        CFI StaticOverlayFrame CFA_DOVERLAY DOVERLAY
        CFI Resource `PSW.CY`:1, `B.BR0`:1, `B.BR1`:1, `B.BR2`:1, `B.BR3`:1
        CFI Resource `B.BR4`:1, `B.BR5`:1, `B.BR6`:1, `B.BR7`:1, `VB.BR8`:1
        CFI Resource `VB.BR9`:1, `VB.BR10`:1, `VB.BR11`:1, `VB.BR12`:1
        CFI Resource `VB.BR13`:1, `VB.BR14`:1, `VB.BR15`:1, VB:8, B:8, A:8
        CFI Resource PSW:8, DPL0:8, DPH0:8, R0:8, R1:8, R2:8, R3:8, R4:8, R5:8
        CFI Resource R6:8, R7:8, V0:8, V1:8, V2:8, V3:8, V4:8, V5:8, V6:8, V7:8
        CFI Resource V8:8, V9:8, V10:8, V11:8, V12:8, V13:8, V14:8, V15:8, SP:8
        CFI Resource PSPH:8, PSPL:8, PSP16:16, XSPH:8, XSPL:8, XSP16:16
        CFI VirtualResource ?RET:24
        CFI Resource ?BRET_EXT:8
        CFI VirtualResource ?RET_HIGH:8, ?RET_LOW:8
        CFI ResourceParts PSP16 PSPH, PSPL
        CFI ResourceParts XSP16 XSPH, XSPL
        CFI ResourceParts ?RET ?BRET_EXT, ?RET_HIGH, ?RET_LOW
        CFI EndNames cfiNames0
        
        CFI Common cfiCommon0 Using cfiNames0
        CFI CodeAlign 1
        CFI DataAlign -1
        CFI ReturnAddress ?RET CODE
        CFI CFA_DOVERLAY Used
        CFI CFA_IOVERLAY Used
        CFI CFA_SP SP+-3
        CFI CFA_PSP16 PSP16+0
        CFI CFA_XSP16 XSP16+0
        CFI `PSW.CY` SameValue
        CFI `B.BR0` SameValue
        CFI `B.BR1` SameValue
        CFI `B.BR2` SameValue
        CFI `B.BR3` SameValue
        CFI `B.BR4` SameValue
        CFI `B.BR5` SameValue
        CFI `B.BR6` SameValue
        CFI `B.BR7` SameValue
        CFI `VB.BR8` SameValue
        CFI `VB.BR9` SameValue
        CFI `VB.BR10` SameValue
        CFI `VB.BR11` SameValue
        CFI `VB.BR12` SameValue
        CFI `VB.BR13` SameValue
        CFI `VB.BR14` SameValue
        CFI `VB.BR15` SameValue
        CFI VB SameValue
        CFI B Undefined
        CFI A Undefined
        CFI PSW SameValue
        CFI DPL0 SameValue
        CFI DPH0 SameValue
        CFI R0 Undefined
        CFI R1 Undefined
        CFI R2 Undefined
        CFI R3 Undefined
        CFI R4 Undefined
        CFI R5 Undefined
        CFI R6 SameValue
        CFI R7 SameValue
        CFI V0 SameValue
        CFI V1 SameValue
        CFI V2 SameValue
        CFI V3 SameValue
        CFI V4 SameValue
        CFI V5 SameValue
        CFI V6 SameValue
        CFI V7 SameValue
        CFI V8 SameValue
        CFI V9 SameValue
        CFI V10 SameValue
        CFI V11 SameValue
        CFI V12 SameValue
        CFI V13 SameValue
        CFI V14 SameValue
        CFI V15 SameValue
        CFI PSPH Undefined
        CFI PSPL Undefined
        CFI XSPH Undefined
        CFI XSPL Undefined
        CFI ?RET Concat
        CFI ?BRET_EXT Frame(CFA_SP, 3)
        CFI ?RET_HIGH Frame(CFA_SP, 2)
        CFI ?RET_LOW Frame(CFA_SP, 1)
        CFI EndCommon cfiCommon0
        
        
        CFI Common cfiCommon1 Using cfiNames0
        CFI CodeAlign 1
        CFI DataAlign -1
        CFI ReturnAddress ?RET CODE
        CFI CFA_DOVERLAY Used
        CFI CFA_IOVERLAY Used
        CFI CFA_SP SP+-2
        CFI CFA_PSP16 PSP16+0
        CFI CFA_XSP16 XSP16+0
        CFI `PSW.CY` SameValue
        CFI `B.BR0` SameValue
        CFI `B.BR1` SameValue
        CFI `B.BR2` SameValue
        CFI `B.BR3` SameValue
        CFI `B.BR4` SameValue
        CFI `B.BR5` SameValue
        CFI `B.BR6` SameValue
        CFI `B.BR7` SameValue
        CFI `VB.BR8` SameValue
        CFI `VB.BR9` SameValue
        CFI `VB.BR10` SameValue
        CFI `VB.BR11` SameValue
        CFI `VB.BR12` SameValue
        CFI `VB.BR13` SameValue
        CFI `VB.BR14` SameValue
        CFI `VB.BR15` SameValue
        CFI VB SameValue
        CFI B SameValue
        CFI A SameValue
        CFI PSW SameValue
        CFI DPL0 SameValue
        CFI DPH0 SameValue
        CFI R0 SameValue
        CFI R1 SameValue
        CFI R2 SameValue
        CFI R3 SameValue
        CFI R4 SameValue
        CFI R5 SameValue
        CFI R6 SameValue
        CFI R7 SameValue
        CFI V0 SameValue
        CFI V1 SameValue
        CFI V2 SameValue
        CFI V3 SameValue
        CFI V4 SameValue
        CFI V5 SameValue
        CFI V6 SameValue
        CFI V7 SameValue
        CFI V8 SameValue
        CFI V9 SameValue
        CFI V10 SameValue
        CFI V11 SameValue
        CFI V12 SameValue
        CFI V13 SameValue
        CFI V14 SameValue
        CFI V15 SameValue
        CFI PSPH Undefined
        CFI PSPL Undefined
        CFI XSPH Undefined
        CFI XSPL Undefined
        CFI ?RET Concat
        CFI ?BRET_EXT SameValue
        CFI ?RET_HIGH Frame(CFA_SP, 2)
        CFI ?RET_LOW Frame(CFA_SP, 1)
        CFI EndCommon cfiCommon1
        
sAddrExtCpy         SYMBOL "sAddrExtCpy"
APS_ReflectorInit   SYMBOL "APS_ReflectorInit"
NLME_DeviceJoiningInit SYMBOL "NLME_DeviceJoiningInit"
NLME_NetworkDiscoveryRequest SYMBOL "NLME_NetworkDiscoveryRequest"
nwk_ScanJoiningOrphan SYMBOL "nwk_ScanJoiningOrphan"
NLME_OrphanJoinRequest SYMBOL "NLME_OrphanJoinRequest"
osal_start_timerEx  SYMBOL "osal_start_timerEx"
HalLcdWriteScreen   SYMBOL "HalLcdWriteScreen"
osal_msg_find       SYMBOL "osal_msg_find"
osal_msg_allocate   SYMBOL "osal_msg_allocate"
osal_set_event      SYMBOL "osal_set_event"
osal_msg_send       SYMBOL "osal_msg_send"
NLME_GetShortAddr   SYMBOL "NLME_GetShortAddr"
NLME_GetExtAddr     SYMBOL "NLME_GetExtAddr"
ZDP_NodeDescMsg     SYMBOL "ZDP_NodeDescMsg"
ZDP_GenericRsp      SYMBOL "ZDP_GenericRsp"
ZDP_PowerDescMsg    SYMBOL "ZDP_PowerDescMsg"
afFindSimpleDesc    SYMBOL "afFindSimpleDesc"
ZDP_SimpleDescMsg   SYMBOL "ZDP_SimpleDescMsg"
osal_mem_free       SYMBOL "osal_mem_free"
afNumEndPoints      SYMBOL "afNumEndPoints"
afEndPoints         SYMBOL "afEndPoints"
ZDP_EPRsp           SYMBOL "ZDP_EPRsp"
NLME_IsAddressBroadcast SYMBOL "NLME_IsAddressBroadcast"
osal_mem_alloc      SYMBOL "osal_mem_alloc"
osal_memcpy         SYMBOL "osal_memcpy"
sAddrExtCmp         SYMBOL "sAddrExtCmp"
bindNumOfEntries    SYMBOL "bindNumOfEntries"
APSME_BindRequest   SYMBOL "APSME_BindRequest"
ZDApp_NVUpdate      SYMBOL "ZDApp_NVUpdate"
APSME_LookupNwkAddr SYMBOL "APSME_LookupNwkAddr"
ZDP_NwkAddrReq      SYMBOL "ZDP_NwkAddrReq"
APSME_UnBindRequest SYMBOL "APSME_UnBindRequest"
ZDP_SendData        SYMBOL "ZDP_SendData"
AddrMgrExtAddrSet   SYMBOL "AddrMgrExtAddrSet"
AddrMgrEntryUpdate  SYMBOL "AddrMgrEntryUpdate"
ZDP_ServerDiscRsp   SYMBOL "ZDP_ServerDiscRsp"
HalLcdWriteString   SYMBOL "HalLcdWriteString"
NLME_GetRequest     SYMBOL "NLME_GetRequest"
AssocCount          SYMBOL "AssocCount"
osal_memset         SYMBOL "osal_memset"
AssocFindDevice     SYMBOL "AssocFindDevice"
AddrMgrEntryLookupNwk SYMBOL "AddrMgrEntryLookupNwk"
ZDP_MgmtLqiRsp      SYMBOL "ZDP_MgmtLqiRsp"
osal_build_uint32   SYMBOL "osal_build_uint32"
NLME_NwkDiscReq2    SYMBOL "NLME_NwkDiscReq2"
NLME_NwkDiscTerm    SYMBOL "NLME_NwkDiscTerm"
ZDP_MgmtRtgRsp      SYMBOL "ZDP_MgmtRtgRsp"
APSME_GetRequest    SYMBOL "APSME_GetRequest"
ZDP_MgmtBindRsp     SYMBOL "ZDP_MgmtBindRsp"
NLME_DirectJoinRequest SYMBOL "NLME_DirectJoinRequest"
AddrMgrExtAddrValid SYMBOL "AddrMgrExtAddrValid"
NLME_LeaveReq       SYMBOL "NLME_LeaveReq"
NLME_PermitJoiningRequest SYMBOL "NLME_PermitJoiningRequest"
osal_nv_read        SYMBOL "osal_nv_read"
ZDP_UserDescRsp     SYMBOL "ZDP_UserDescRsp"
osal_nv_write       SYMBOL "osal_nv_write"
APS_SetEndDeviceBindTimeout SYMBOL "APS_SetEndDeviceBindTimeout"
ZDP_BindUnbindReq   SYMBOL "ZDP_BindUnbindReq"
??APSME_BindRequest?relay SYMBOL "?relay", APSME_BindRequest
??APSME_GetRequest?relay SYMBOL "?relay", APSME_GetRequest
??APSME_LookupNwkAddr?relay SYMBOL "?relay", APSME_LookupNwkAddr
??APSME_UnBindRequest?relay SYMBOL "?relay", APSME_UnBindRequest
??APS_ReflectorInit?relay SYMBOL "?relay", APS_ReflectorInit
??APS_SetEndDeviceBindTimeout?relay SYMBOL "?relay", APS_SetEndDeviceBindTimeout
??AddrMgrEntryLookupNwk?relay SYMBOL "?relay", AddrMgrEntryLookupNwk
??AddrMgrEntryUpdate?relay SYMBOL "?relay", AddrMgrEntryUpdate
??AddrMgrExtAddrSet?relay SYMBOL "?relay", AddrMgrExtAddrSet
??AddrMgrExtAddrValid?relay SYMBOL "?relay", AddrMgrExtAddrValid
??AssocCount?relay  SYMBOL "?relay", AssocCount
??AssocFindDevice?relay SYMBOL "?relay", AssocFindDevice
??HalLcdWriteScreen?relay SYMBOL "?relay", HalLcdWriteScreen
??HalLcdWriteString?relay SYMBOL "?relay", HalLcdWriteString
??NLME_DeviceJoiningInit?relay SYMBOL "?relay", NLME_DeviceJoiningInit
??NLME_DirectJoinRequest?relay SYMBOL "?relay", NLME_DirectJoinRequest
??NLME_GetExtAddr?relay SYMBOL "?relay", NLME_GetExtAddr
??NLME_GetRequest?relay SYMBOL "?relay", NLME_GetRequest
??NLME_GetShortAddr?relay SYMBOL "?relay", NLME_GetShortAddr
??NLME_IsAddressBroadcast?relay SYMBOL "?relay", NLME_IsAddressBroadcast
??NLME_LeaveReq?relay SYMBOL "?relay", NLME_LeaveReq
??NLME_NetworkDiscoveryRequest?relay SYMBOL "?relay", NLME_NetworkDiscoveryRequest
??NLME_NwkDiscReq2?relay SYMBOL "?relay", NLME_NwkDiscReq2
??NLME_NwkDiscTerm?relay SYMBOL "?relay", NLME_NwkDiscTerm
??NLME_OrphanJoinRequest?relay SYMBOL "?relay", NLME_OrphanJoinRequest
??NLME_PermitJoiningRequest?relay SYMBOL "?relay", NLME_PermitJoiningRequest
??ZDApp_NVUpdate?relay SYMBOL "?relay", ZDApp_NVUpdate
??ZDP_BindUnbindReq?relay SYMBOL "?relay", ZDP_BindUnbindReq
??ZDP_EPRsp?relay   SYMBOL "?relay", ZDP_EPRsp
??ZDP_GenericRsp?relay SYMBOL "?relay", ZDP_GenericRsp
??ZDP_MgmtBindRsp?relay SYMBOL "?relay", ZDP_MgmtBindRsp
??ZDP_MgmtLqiRsp?relay SYMBOL "?relay", ZDP_MgmtLqiRsp
??ZDP_MgmtRtgRsp?relay SYMBOL "?relay", ZDP_MgmtRtgRsp
??ZDP_NodeDescMsg?relay SYMBOL "?relay", ZDP_NodeDescMsg
??ZDP_NwkAddrReq?relay SYMBOL "?relay", ZDP_NwkAddrReq
??ZDP_PowerDescMsg?relay SYMBOL "?relay", ZDP_PowerDescMsg
??ZDP_SendData?relay SYMBOL "?relay", ZDP_SendData
??ZDP_ServerDiscRsp?relay SYMBOL "?relay", ZDP_ServerDiscRsp
??ZDP_SimpleDescMsg?relay SYMBOL "?relay", ZDP_SimpleDescMsg
??ZDP_UserDescRsp?relay SYMBOL "?relay", ZDP_UserDescRsp
??afEndPoints?relay SYMBOL "?relay", afEndPoints
??afFindSimpleDesc?relay SYMBOL "?relay", afFindSimpleDesc
??afNumEndPoints?relay SYMBOL "?relay", afNumEndPoints
??bindNumOfEntries?relay SYMBOL "?relay", bindNumOfEntries
??nwk_ScanJoiningOrphan?relay SYMBOL "?relay", nwk_ScanJoiningOrphan
??osal_build_uint32?relay SYMBOL "?relay", osal_build_uint32
??osal_mem_alloc?relay SYMBOL "?relay", osal_mem_alloc
??osal_mem_free?relay SYMBOL "?relay", osal_mem_free
??osal_memcpy?relay SYMBOL "?relay", osal_memcpy
??osal_memset?relay SYMBOL "?relay", osal_memset
??osal_msg_allocate?relay SYMBOL "?relay", osal_msg_allocate
??osal_msg_find?relay SYMBOL "?relay", osal_msg_find
??osal_msg_send?relay SYMBOL "?relay", osal_msg_send
??osal_nv_read?relay SYMBOL "?relay", osal_nv_read
??osal_nv_write?relay SYMBOL "?relay", osal_nv_write
??osal_set_event?relay SYMBOL "?relay", osal_set_event
??osal_start_timerEx?relay SYMBOL "?relay", osal_start_timerEx
??sAddrExtCmp?relay SYMBOL "?relay", sAddrExtCmp
??sAddrExtCpy?relay SYMBOL "?relay", sAddrExtCpy
NLME_PermitJoiningTimeout SYMBOL "NLME_PermitJoiningTimeout"
??NLME_PermitJoiningTimeout?relay SYMBOL "?relay", NLME_PermitJoiningTimeout
ZDMatchSendState    SYMBOL "ZDMatchSendState"
??ZDMatchSendState?relay SYMBOL "?relay", ZDMatchSendState
ZDO_AnyClusterMatches SYMBOL "ZDO_AnyClusterMatches"
??ZDO_AnyClusterMatches?relay SYMBOL "?relay", ZDO_AnyClusterMatches
ZDO_BuildSimpleDescBuf SYMBOL "ZDO_BuildSimpleDescBuf"
??ZDO_BuildSimpleDescBuf?relay SYMBOL "?relay", ZDO_BuildSimpleDescBuf
ZDO_ConvertOTAClusters SYMBOL "ZDO_ConvertOTAClusters"
??ZDO_ConvertOTAClusters?relay SYMBOL "?relay", ZDO_ConvertOTAClusters
ZDO_EndDeviceTimeoutCB SYMBOL "ZDO_EndDeviceTimeoutCB"
??ZDO_EndDeviceTimeoutCB?relay SYMBOL "?relay", ZDO_EndDeviceTimeoutCB
ZDO_Init            SYMBOL "ZDO_Init"
??ZDO_Init?relay    SYMBOL "?relay", ZDO_Init
ZDO_MatchEndDeviceBind SYMBOL "ZDO_MatchEndDeviceBind"
??ZDO_MatchEndDeviceBind?relay SYMBOL "?relay", ZDO_MatchEndDeviceBind
ZDO_ParseAddrRsp    SYMBOL "ZDO_ParseAddrRsp"
??ZDO_ParseAddrRsp?relay SYMBOL "?relay", ZDO_ParseAddrRsp
ZDO_ParseBindUnbindReq SYMBOL "ZDO_ParseBindUnbindReq"
??ZDO_ParseBindUnbindReq?relay SYMBOL "?relay", ZDO_ParseBindUnbindReq
ZDO_ParseDeviceAnnce SYMBOL "ZDO_ParseDeviceAnnce"
??ZDO_ParseDeviceAnnce?relay SYMBOL "?relay", ZDO_ParseDeviceAnnce
ZDO_ParseEPListRsp  SYMBOL "ZDO_ParseEPListRsp"
??ZDO_ParseEPListRsp?relay SYMBOL "?relay", ZDO_ParseEPListRsp
ZDO_ParseEndDeviceBindReq SYMBOL "ZDO_ParseEndDeviceBindReq"
??ZDO_ParseEndDeviceBindReq?relay SYMBOL "?relay", ZDO_ParseEndDeviceBindReq
ZDO_ParseMgmNwkDiscRsp SYMBOL "ZDO_ParseMgmNwkDiscRsp"
??ZDO_ParseMgmNwkDiscRsp?relay SYMBOL "?relay", ZDO_ParseMgmNwkDiscRsp
ZDO_ParseMgmtBindRsp SYMBOL "ZDO_ParseMgmtBindRsp"
??ZDO_ParseMgmtBindRsp?relay SYMBOL "?relay", ZDO_ParseMgmtBindRsp
ZDO_ParseMgmtLqiRsp SYMBOL "ZDO_ParseMgmtLqiRsp"
??ZDO_ParseMgmtLqiRsp?relay SYMBOL "?relay", ZDO_ParseMgmtLqiRsp
ZDO_ParseMgmtNwkUpdateNotify SYMBOL "ZDO_ParseMgmtNwkUpdateNotify"
??ZDO_ParseMgmtNwkUpdateNotify?relay SYMBOL "?relay", ZDO_ParseMgmtNwkUpdateNotify
ZDO_ParseMgmtNwkUpdateReq SYMBOL "ZDO_ParseMgmtNwkUpdateReq"
??ZDO_ParseMgmtNwkUpdateReq?relay SYMBOL "?relay", ZDO_ParseMgmtNwkUpdateReq
ZDO_ParseMgmtRtgRsp SYMBOL "ZDO_ParseMgmtRtgRsp"
??ZDO_ParseMgmtRtgRsp?relay SYMBOL "?relay", ZDO_ParseMgmtRtgRsp
ZDO_ParseNodeDescRsp SYMBOL "ZDO_ParseNodeDescRsp"
??ZDO_ParseNodeDescRsp?relay SYMBOL "?relay", ZDO_ParseNodeDescRsp
ZDO_ParsePowerDescRsp SYMBOL "ZDO_ParsePowerDescRsp"
??ZDO_ParsePowerDescRsp?relay SYMBOL "?relay", ZDO_ParsePowerDescRsp
ZDO_ParseServerDiscRsp SYMBOL "ZDO_ParseServerDiscRsp"
??ZDO_ParseServerDiscRsp?relay SYMBOL "?relay", ZDO_ParseServerDiscRsp
ZDO_ParseSimpleDescBuf SYMBOL "ZDO_ParseSimpleDescBuf"
??ZDO_ParseSimpleDescBuf?relay SYMBOL "?relay", ZDO_ParseSimpleDescBuf
ZDO_ParseSimpleDescRsp SYMBOL "ZDO_ParseSimpleDescRsp"
??ZDO_ParseSimpleDescRsp?relay SYMBOL "?relay", ZDO_ParseSimpleDescRsp
ZDO_ParseUserDescRsp SYMBOL "ZDO_ParseUserDescRsp"
??ZDO_ParseUserDescRsp?relay SYMBOL "?relay", ZDO_ParseUserDescRsp
ZDO_ProcessActiveEPReq SYMBOL "ZDO_ProcessActiveEPReq"
??ZDO_ProcessActiveEPReq?relay SYMBOL "?relay", ZDO_ProcessActiveEPReq
ZDO_ProcessBindUnbindReq SYMBOL "ZDO_ProcessBindUnbindReq"
??ZDO_ProcessBindUnbindReq?relay SYMBOL "?relay", ZDO_ProcessBindUnbindReq
ZDO_ProcessDeviceAnnce SYMBOL "ZDO_ProcessDeviceAnnce"
??ZDO_ProcessDeviceAnnce?relay SYMBOL "?relay", ZDO_ProcessDeviceAnnce
ZDO_ProcessMatchDescReq SYMBOL "ZDO_ProcessMatchDescReq"
??ZDO_ProcessMatchDescReq?relay SYMBOL "?relay", ZDO_ProcessMatchDescReq
ZDO_ProcessMgmtBindReq SYMBOL "ZDO_ProcessMgmtBindReq"
??ZDO_ProcessMgmtBindReq?relay SYMBOL "?relay", ZDO_ProcessMgmtBindReq
ZDO_ProcessMgmtDirectJoinReq SYMBOL "ZDO_ProcessMgmtDirectJoinReq"
??ZDO_ProcessMgmtDirectJoinReq?relay SYMBOL "?relay", ZDO_ProcessMgmtDirectJoinReq
ZDO_ProcessMgmtLeaveReq SYMBOL "ZDO_ProcessMgmtLeaveReq"
??ZDO_ProcessMgmtLeaveReq?relay SYMBOL "?relay", ZDO_ProcessMgmtLeaveReq
ZDO_ProcessMgmtLqiReq SYMBOL "ZDO_ProcessMgmtLqiReq"
??ZDO_ProcessMgmtLqiReq?relay SYMBOL "?relay", ZDO_ProcessMgmtLqiReq
ZDO_ProcessMgmtNwkDiscReq SYMBOL "ZDO_ProcessMgmtNwkDiscReq"
??ZDO_ProcessMgmtNwkDiscReq?relay SYMBOL "?relay", ZDO_ProcessMgmtNwkDiscReq
ZDO_ProcessMgmtPermitJoinReq SYMBOL "ZDO_ProcessMgmtPermitJoinReq"
??ZDO_ProcessMgmtPermitJoinReq?relay SYMBOL "?relay", ZDO_ProcessMgmtPermitJoinReq
ZDO_ProcessMgmtRtgReq SYMBOL "ZDO_ProcessMgmtRtgReq"
??ZDO_ProcessMgmtRtgReq?relay SYMBOL "?relay", ZDO_ProcessMgmtRtgReq
ZDO_ProcessNodeDescReq SYMBOL "ZDO_ProcessNodeDescReq"
??ZDO_ProcessNodeDescReq?relay SYMBOL "?relay", ZDO_ProcessNodeDescReq
ZDO_ProcessPowerDescReq SYMBOL "ZDO_ProcessPowerDescReq"
??ZDO_ProcessPowerDescReq?relay SYMBOL "?relay", ZDO_ProcessPowerDescReq
ZDO_ProcessServerDiscReq SYMBOL "ZDO_ProcessServerDiscReq"
??ZDO_ProcessServerDiscReq?relay SYMBOL "?relay", ZDO_ProcessServerDiscReq
ZDO_ProcessSimpleDescReq SYMBOL "ZDO_ProcessSimpleDescReq"
??ZDO_ProcessSimpleDescReq?relay SYMBOL "?relay", ZDO_ProcessSimpleDescReq
ZDO_ProcessUserDescReq SYMBOL "ZDO_ProcessUserDescReq"
??ZDO_ProcessUserDescReq?relay SYMBOL "?relay", ZDO_ProcessUserDescReq
ZDO_ProcessUserDescSet SYMBOL "ZDO_ProcessUserDescSet"
??ZDO_ProcessUserDescSet?relay SYMBOL "?relay", ZDO_ProcessUserDescSet
ZDO_StartDevice     SYMBOL "ZDO_StartDevice"
??ZDO_StartDevice?relay SYMBOL "?relay", ZDO_StartDevice
ZDO_UpdateAddrManager SYMBOL "ZDO_UpdateAddrManager"
??ZDO_UpdateAddrManager?relay SYMBOL "?relay", ZDO_UpdateAddrManager
ZDO_UpdateNwkStatus SYMBOL "ZDO_UpdateNwkStatus"
??ZDO_UpdateNwkStatus?relay SYMBOL "?relay", ZDO_UpdateNwkStatus

        EXTERN sAddrExtCpy
        FUNCTION sAddrExtCpy,0202H
        ARGFRAME ISTACK, 2, STACK
        ARGFRAME PSTACK, 0, STACK
        ARGFRAME XSTACK, 61, STACK
        ARGFRAME IOVERLAY, 0, STATIC
        ARGFRAME DOVERLAY, 0, STATIC
        EXTERN APS_ReflectorInit
        FUNCTION APS_ReflectorInit,0202H
        ARGFRAME ISTACK, 2, STACK
        ARGFRAME PSTACK, 0, STACK
        ARGFRAME XSTACK, 0, STACK
        ARGFRAME IOVERLAY, 0, STATIC
        ARGFRAME DOVERLAY, 0, STATIC
        EXTERN NLME_DeviceJoiningInit
        FUNCTION NLME_DeviceJoiningInit,0202H
        ARGFRAME ISTACK, 2, STACK
        ARGFRAME PSTACK, 0, STACK
        ARGFRAME XSTACK, 0, STACK
        ARGFRAME IOVERLAY, 0, STATIC
        ARGFRAME DOVERLAY, 0, STATIC
        EXTERN NLME_NetworkDiscoveryRequest
        FUNCTION NLME_NetworkDiscoveryRequest,0202H
        ARGFRAME ISTACK, 0, STACK
        ARGFRAME PSTACK, 0, STACK
        ARGFRAME XSTACK, 23, STACK
        ARGFRAME IOVERLAY, 0, STATIC
        ARGFRAME DOVERLAY, 0, STATIC
        EXTERN nwk_ScanJoiningOrphan
        FUNCTION nwk_ScanJoiningOrphan,0202H
        ARGFRAME ISTACK, 0, STACK
        ARGFRAME PSTACK, 0, STACK
        ARGFRAME XSTACK, 23, STACK
        ARGFRAME IOVERLAY, 0, STATIC
        ARGFRAME DOVERLAY, 0, STATIC
        EXTERN NLME_OrphanJoinRequest
        FUNCTION NLME_OrphanJoinRequest,0202H
        ARGFRAME ISTACK, 0, STACK
        ARGFRAME PSTACK, 0, STACK
        ARGFRAME XSTACK, 23, STACK
        ARGFRAME IOVERLAY, 0, STATIC
        ARGFRAME DOVERLAY, 0, STATIC
        EXTERN osal_start_timerEx
        FUNCTION osal_start_timerEx,0202H
        ARGFRAME ISTACK, 0, STACK
        ARGFRAME PSTACK, 0, STACK
        ARGFRAME XSTACK, 23, STACK
        ARGFRAME IOVERLAY, 0, STATIC
        ARGFRAME DOVERLAY, 0, STATIC
        EXTERN HalLcdWriteScreen
        FUNCTION HalLcdWriteScreen,0202H
        ARGFRAME ISTACK, 0, STACK
        ARGFRAME PSTACK, 0, STACK
        ARGFRAME XSTACK, 28, STACK
        ARGFRAME IOVERLAY, 0, STATIC
        ARGFRAME DOVERLAY, 0, STATIC
        EXTERN osal_msg_find
        FUNCTION osal_msg_find,0202H
        ARGFRAME ISTACK, 0, STACK
        ARGFRAME PSTACK, 0, STACK
        ARGFRAME XSTACK, 12, STACK
        ARGFRAME IOVERLAY, 0, STATIC
        ARGFRAME DOVERLAY, 0, STATIC
        EXTERN osal_msg_allocate
        FUNCTION osal_msg_allocate,0202H
        ARGFRAME ISTACK, 0, STACK
        ARGFRAME PSTACK, 0, STACK
        ARGFRAME XSTACK, 28, STACK
        ARGFRAME IOVERLAY, 0, STATIC
        ARGFRAME DOVERLAY, 0, STATIC
        EXTERN osal_set_event
        FUNCTION osal_set_event,0202H
        ARGFRAME ISTACK, 0, STACK
        ARGFRAME PSTACK, 0, STACK
        ARGFRAME XSTACK, 12, STACK
        ARGFRAME IOVERLAY, 0, STATIC
        ARGFRAME DOVERLAY, 0, STATIC
        EXTERN osal_msg_send
        FUNCTION osal_msg_send,0202H
        ARGFRAME ISTACK, 0, STACK
        ARGFRAME PSTACK, 0, STACK
        ARGFRAME XSTACK, 28, STACK
        ARGFRAME IOVERLAY, 0, STATIC
        ARGFRAME DOVERLAY, 0, STATIC
        EXTERN NLME_GetShortAddr
        FUNCTION NLME_GetShortAddr,0202H
        ARGFRAME ISTACK, 0, STACK
        ARGFRAME PSTACK, 0, STACK
        ARGFRAME XSTACK, 14, STACK
        ARGFRAME IOVERLAY, 0, STATIC
        ARGFRAME DOVERLAY, 0, STATIC
        EXTERN NLME_GetExtAddr
        FUNCTION NLME_GetExtAddr,0202H
        ARGFRAME ISTACK, 0, STACK
        ARGFRAME PSTACK, 0, STACK
        ARGFRAME XSTACK, 34, STACK
        ARGFRAME IOVERLAY, 0, STATIC
        ARGFRAME DOVERLAY, 0, STATIC
        EXTERN ZDP_NodeDescMsg
        FUNCTION ZDP_NodeDescMsg,0202H
        ARGFRAME ISTACK, 0, STACK
        ARGFRAME PSTACK, 0, STACK
        ARGFRAME XSTACK, 12, STACK
        ARGFRAME IOVERLAY, 0, STATIC
        ARGFRAME DOVERLAY, 0, STATIC
        EXTERN ZDP_GenericRsp
        FUNCTION ZDP_GenericRsp,0202H
        ARGFRAME ISTACK, 0, STACK
        ARGFRAME PSTACK, 0, STACK
        ARGFRAME XSTACK, 37, STACK
        ARGFRAME IOVERLAY, 0, STATIC
        ARGFRAME DOVERLAY, 0, STATIC
        EXTERN ZDP_PowerDescMsg
        FUNCTION ZDP_PowerDescMsg,0202H
        ARGFRAME ISTACK, 0, STACK
        ARGFRAME PSTACK, 0, STACK
        ARGFRAME XSTACK, 12, STACK
        ARGFRAME IOVERLAY, 0, STATIC
        ARGFRAME DOVERLAY, 0, STATIC
        EXTERN afFindSimpleDesc
        FUNCTION afFindSimpleDesc,0202H
        ARGFRAME ISTACK, 0, STACK
        ARGFRAME PSTACK, 0, STACK
        ARGFRAME XSTACK, 12, STACK
        ARGFRAME IOVERLAY, 0, STATIC
        ARGFRAME DOVERLAY, 0, STATIC
        EXTERN ZDP_SimpleDescMsg
        FUNCTION ZDP_SimpleDescMsg,0202H
        ARGFRAME ISTACK, 0, STACK
        ARGFRAME PSTACK, 0, STACK
        ARGFRAME XSTACK, 12, STACK
        ARGFRAME IOVERLAY, 0, STATIC
        ARGFRAME DOVERLAY, 0, STATIC
        EXTERN osal_mem_free
        FUNCTION osal_mem_free,0202H
        ARGFRAME ISTACK, 2, STACK
        ARGFRAME PSTACK, 0, STACK
        ARGFRAME XSTACK, 61, STACK
        ARGFRAME IOVERLAY, 0, STATIC
        ARGFRAME DOVERLAY, 0, STATIC
        EXTERN afNumEndPoints
        FUNCTION afNumEndPoints,0202H
        ARGFRAME ISTACK, 0, STACK
        ARGFRAME PSTACK, 0, STACK
        ARGFRAME XSTACK, 14, STACK
        ARGFRAME IOVERLAY, 0, STATIC
        ARGFRAME DOVERLAY, 0, STATIC
        EXTERN afEndPoints
        FUNCTION afEndPoints,0202H
        ARGFRAME ISTACK, 0, STACK
        ARGFRAME PSTACK, 0, STACK
        ARGFRAME XSTACK, 14, STACK
        ARGFRAME IOVERLAY, 0, STATIC
        ARGFRAME DOVERLAY, 0, STATIC
        EXTERN ZDP_EPRsp
        FUNCTION ZDP_EPRsp,0202H
        ARGFRAME ISTACK, 0, STACK
        ARGFRAME PSTACK, 0, STACK
        ARGFRAME XSTACK, 35, STACK
        ARGFRAME IOVERLAY, 0, STATIC
        ARGFRAME DOVERLAY, 0, STATIC
        EXTERN NLME_IsAddressBroadcast
        FUNCTION NLME_IsAddressBroadcast,0202H
        ARGFRAME ISTACK, 0, STACK
        ARGFRAME PSTACK, 0, STACK
        ARGFRAME XSTACK, 28, STACK
        ARGFRAME IOVERLAY, 0, STATIC
        ARGFRAME DOVERLAY, 0, STATIC
        EXTERN osal_mem_alloc
        FUNCTION osal_mem_alloc,0202H
        ARGFRAME ISTACK, 0, STACK
        ARGFRAME PSTACK, 0, STACK
        ARGFRAME XSTACK, 61, STACK
        ARGFRAME IOVERLAY, 0, STATIC
        ARGFRAME DOVERLAY, 0, STATIC
        EXTERN osal_memcpy
        FUNCTION osal_memcpy,0202H
        ARGFRAME ISTACK, 0, STACK
        ARGFRAME PSTACK, 0, STACK
        ARGFRAME XSTACK, 38, STACK
        ARGFRAME IOVERLAY, 0, STATIC
        ARGFRAME DOVERLAY, 0, STATIC
        EXTERN sAddrExtCmp
        FUNCTION sAddrExtCmp,0202H
        ARGFRAME ISTACK, 2, STACK
        ARGFRAME PSTACK, 0, STACK
        ARGFRAME XSTACK, 34, STACK
        ARGFRAME IOVERLAY, 0, STATIC
        ARGFRAME DOVERLAY, 0, STATIC
        EXTERN bindNumOfEntries
        FUNCTION bindNumOfEntries,0202H
        ARGFRAME ISTACK, 0, STACK
        ARGFRAME PSTACK, 0, STACK
        ARGFRAME XSTACK, 34, STACK
        ARGFRAME IOVERLAY, 0, STATIC
        ARGFRAME DOVERLAY, 0, STATIC
        EXTERN APSME_BindRequest
        FUNCTION APSME_BindRequest,0202H
        ARGFRAME ISTACK, 0, STACK
        ARGFRAME PSTACK, 0, STACK
        ARGFRAME XSTACK, 35, STACK
        ARGFRAME IOVERLAY, 0, STATIC
        ARGFRAME DOVERLAY, 0, STATIC
        EXTERN ZDApp_NVUpdate
        FUNCTION ZDApp_NVUpdate,0202H
        ARGFRAME ISTACK, 0, STACK
        ARGFRAME PSTACK, 0, STACK
        ARGFRAME XSTACK, 34, STACK
        ARGFRAME IOVERLAY, 0, STATIC
        ARGFRAME DOVERLAY, 0, STATIC
        EXTERN APSME_LookupNwkAddr
        FUNCTION APSME_LookupNwkAddr,0202H
        ARGFRAME ISTACK, 0, STACK
        ARGFRAME PSTACK, 0, STACK
        ARGFRAME XSTACK, 34, STACK
        ARGFRAME IOVERLAY, 0, STATIC
        ARGFRAME DOVERLAY, 0, STATIC
        EXTERN ZDP_NwkAddrReq
        FUNCTION ZDP_NwkAddrReq,0202H
        ARGFRAME ISTACK, 0, STACK
        ARGFRAME PSTACK, 0, STACK
        ARGFRAME XSTACK, 34, STACK
        ARGFRAME IOVERLAY, 0, STATIC
        ARGFRAME DOVERLAY, 0, STATIC
        EXTERN APSME_UnBindRequest
        FUNCTION APSME_UnBindRequest,0202H
        ARGFRAME ISTACK, 0, STACK
        ARGFRAME PSTACK, 0, STACK
        ARGFRAME XSTACK, 35, STACK
        ARGFRAME IOVERLAY, 0, STATIC
        ARGFRAME DOVERLAY, 0, STATIC
        EXTERN ZDP_SendData
        FUNCTION ZDP_SendData,0202H
        ARGFRAME ISTACK, 0, STACK
        ARGFRAME PSTACK, 0, STACK
        ARGFRAME XSTACK, 40, STACK
        ARGFRAME IOVERLAY, 0, STATIC
        ARGFRAME DOVERLAY, 0, STATIC
        EXTERN AddrMgrExtAddrSet
        FUNCTION AddrMgrExtAddrSet,0202H
        ARGFRAME ISTACK, 2, STACK
        ARGFRAME PSTACK, 0, STACK
        ARGFRAME XSTACK, 32, STACK
        ARGFRAME IOVERLAY, 0, STATIC
        ARGFRAME DOVERLAY, 0, STATIC
        EXTERN AddrMgrEntryUpdate
        FUNCTION AddrMgrEntryUpdate,0202H
        ARGFRAME ISTACK, 2, STACK
        ARGFRAME PSTACK, 0, STACK
        ARGFRAME XSTACK, 32, STACK
        ARGFRAME IOVERLAY, 0, STATIC
        ARGFRAME DOVERLAY, 0, STATIC
        EXTERN ZDP_ServerDiscRsp
        FUNCTION ZDP_ServerDiscRsp,0202H
        ARGFRAME ISTACK, 0, STACK
        ARGFRAME PSTACK, 0, STACK
        ARGFRAME XSTACK, 14, STACK
        ARGFRAME IOVERLAY, 0, STATIC
        ARGFRAME DOVERLAY, 0, STATIC
        EXTERN HalLcdWriteString
        FUNCTION HalLcdWriteString,0202H
        ARGFRAME ISTACK, 0, STACK
        ARGFRAME PSTACK, 0, STACK
        ARGFRAME XSTACK, 12, STACK
        ARGFRAME IOVERLAY, 0, STATIC
        ARGFRAME DOVERLAY, 0, STATIC
        EXTERN NLME_GetRequest
        FUNCTION NLME_GetRequest,0202H
        ARGFRAME ISTACK, 0, STACK
        ARGFRAME PSTACK, 0, STACK
        ARGFRAME XSTACK, 61, STACK
        ARGFRAME IOVERLAY, 0, STATIC
        ARGFRAME DOVERLAY, 0, STATIC
        EXTERN AssocCount
        FUNCTION AssocCount,0202H
        ARGFRAME ISTACK, 0, STACK
        ARGFRAME PSTACK, 0, STACK
        ARGFRAME XSTACK, 61, STACK
        ARGFRAME IOVERLAY, 0, STATIC
        ARGFRAME DOVERLAY, 0, STATIC
        EXTERN osal_memset
        FUNCTION osal_memset,0202H
        ARGFRAME ISTACK, 2, STACK
        ARGFRAME PSTACK, 0, STACK
        ARGFRAME XSTACK, 61, STACK
        ARGFRAME IOVERLAY, 0, STATIC
        ARGFRAME DOVERLAY, 0, STATIC
        EXTERN AssocFindDevice
        FUNCTION AssocFindDevice,0202H
        ARGFRAME ISTACK, 0, STACK
        ARGFRAME PSTACK, 0, STACK
        ARGFRAME XSTACK, 61, STACK
        ARGFRAME IOVERLAY, 0, STATIC
        ARGFRAME DOVERLAY, 0, STATIC
        EXTERN AddrMgrEntryLookupNwk
        FUNCTION AddrMgrEntryLookupNwk,0202H
        ARGFRAME ISTACK, 2, STACK
        ARGFRAME PSTACK, 0, STACK
        ARGFRAME XSTACK, 61, STACK
        ARGFRAME IOVERLAY, 0, STATIC
        ARGFRAME DOVERLAY, 0, STATIC
        EXTERN ZDP_MgmtLqiRsp
        FUNCTION ZDP_MgmtLqiRsp,0202H
        ARGFRAME ISTACK, 0, STACK
        ARGFRAME PSTACK, 0, STACK
        ARGFRAME XSTACK, 66, STACK
        ARGFRAME IOVERLAY, 0, STATIC
        ARGFRAME DOVERLAY, 0, STATIC
        EXTERN osal_build_uint32
        FUNCTION osal_build_uint32,0202H
        ARGFRAME ISTACK, 0, STACK
        ARGFRAME PSTACK, 0, STACK
        ARGFRAME XSTACK, 24, STACK
        ARGFRAME IOVERLAY, 0, STATIC
        ARGFRAME DOVERLAY, 0, STATIC
        EXTERN NLME_NwkDiscReq2
        FUNCTION NLME_NwkDiscReq2,0202H
        ARGFRAME ISTACK, 0, STACK
        ARGFRAME PSTACK, 0, STACK
        ARGFRAME XSTACK, 23, STACK
        ARGFRAME IOVERLAY, 0, STATIC
        ARGFRAME DOVERLAY, 0, STATIC
        EXTERN NLME_NwkDiscTerm
        FUNCTION NLME_NwkDiscTerm,0202H
        ARGFRAME ISTACK, 0, STACK
        ARGFRAME PSTACK, 0, STACK
        ARGFRAME XSTACK, 23, STACK
        ARGFRAME IOVERLAY, 0, STATIC
        ARGFRAME DOVERLAY, 0, STATIC
        EXTERN ZDP_MgmtRtgRsp
        FUNCTION ZDP_MgmtRtgRsp,0202H
        ARGFRAME ISTACK, 0, STACK
        ARGFRAME PSTACK, 0, STACK
        ARGFRAME XSTACK, 26, STACK
        ARGFRAME IOVERLAY, 0, STATIC
        ARGFRAME DOVERLAY, 0, STATIC
        EXTERN APSME_GetRequest
        FUNCTION APSME_GetRequest,0202H
        ARGFRAME ISTACK, 0, STACK
        ARGFRAME PSTACK, 0, STACK
        ARGFRAME XSTACK, 24, STACK
        ARGFRAME IOVERLAY, 0, STATIC
        ARGFRAME DOVERLAY, 0, STATIC
        EXTERN ZDP_MgmtBindRsp
        FUNCTION ZDP_MgmtBindRsp,0202H
        ARGFRAME ISTACK, 0, STACK
        ARGFRAME PSTACK, 0, STACK
        ARGFRAME XSTACK, 29, STACK
        ARGFRAME IOVERLAY, 0, STATIC
        ARGFRAME DOVERLAY, 0, STATIC
        EXTERN NLME_DirectJoinRequest
        FUNCTION NLME_DirectJoinRequest,0202H
        ARGFRAME ISTACK, 0, STACK
        ARGFRAME PSTACK, 0, STACK
        ARGFRAME XSTACK, 11, STACK
        ARGFRAME IOVERLAY, 0, STATIC
        ARGFRAME DOVERLAY, 0, STATIC
        EXTERN AddrMgrExtAddrValid
        FUNCTION AddrMgrExtAddrValid,0202H
        ARGFRAME ISTACK, 0, STACK
        ARGFRAME PSTACK, 0, STACK
        ARGFRAME XSTACK, 18, STACK
        ARGFRAME IOVERLAY, 0, STATIC
        ARGFRAME DOVERLAY, 0, STATIC
        EXTERN NLME_LeaveReq
        FUNCTION NLME_LeaveReq,0202H
        ARGFRAME ISTACK, 0, STACK
        ARGFRAME PSTACK, 0, STACK
        ARGFRAME XSTACK, 18, STACK
        ARGFRAME IOVERLAY, 0, STATIC
        ARGFRAME DOVERLAY, 0, STATIC
        EXTERN NLME_PermitJoiningRequest
        FUNCTION NLME_PermitJoiningRequest,0202H
        ARGFRAME ISTACK, 0, STACK
        ARGFRAME PSTACK, 0, STACK
        ARGFRAME XSTACK, 11, STACK
        ARGFRAME IOVERLAY, 0, STATIC
        ARGFRAME DOVERLAY, 0, STATIC
        EXTERN osal_nv_read
        FUNCTION osal_nv_read,0202H
        ARGFRAME ISTACK, 0, STACK
        ARGFRAME PSTACK, 0, STACK
        ARGFRAME XSTACK, 37, STACK
        ARGFRAME IOVERLAY, 0, STATIC
        ARGFRAME DOVERLAY, 0, STATIC
        EXTERN ZDP_UserDescRsp
        FUNCTION ZDP_UserDescRsp,0202H
        ARGFRAME ISTACK, 0, STACK
        ARGFRAME PSTACK, 0, STACK
        ARGFRAME XSTACK, 36, STACK
        ARGFRAME IOVERLAY, 0, STATIC
        ARGFRAME DOVERLAY, 0, STATIC
        EXTERN osal_nv_write
        FUNCTION osal_nv_write,0202H
        ARGFRAME ISTACK, 0, STACK
        ARGFRAME PSTACK, 0, STACK
        ARGFRAME XSTACK, 39, STACK
        ARGFRAME IOVERLAY, 0, STATIC
        ARGFRAME DOVERLAY, 0, STATIC
        EXTERN APS_SetEndDeviceBindTimeout
        FUNCTION APS_SetEndDeviceBindTimeout,0202H
        ARGFRAME ISTACK, 0, STACK
        ARGFRAME PSTACK, 0, STACK
        ARGFRAME XSTACK, 35, STACK
        ARGFRAME IOVERLAY, 0, STATIC
        ARGFRAME DOVERLAY, 0, STATIC
        EXTERN ZDP_BindUnbindReq
        FUNCTION ZDP_BindUnbindReq,0202H
        ARGFRAME ISTACK, 0, STACK
        ARGFRAME PSTACK, 0, STACK
        ARGFRAME XSTACK, 43, STACK
        ARGFRAME IOVERLAY, 0, STATIC
        ARGFRAME DOVERLAY, 0, STATIC
        EXTERN ??APSME_BindRequest?relay
        FUNCTION ??APSME_BindRequest?relay,00H
        EXTERN ??APSME_GetRequest?relay
        FUNCTION ??APSME_GetRequest?relay,00H
        EXTERN ??APSME_LookupNwkAddr?relay
        FUNCTION ??APSME_LookupNwkAddr?relay,00H
        EXTERN ??APSME_UnBindRequest?relay
        FUNCTION ??APSME_UnBindRequest?relay,00H
        EXTERN ??APS_ReflectorInit?relay
        FUNCTION ??APS_ReflectorInit?relay,00H
        EXTERN ??APS_SetEndDeviceBindTimeout?relay
        FUNCTION ??APS_SetEndDeviceBindTimeout?relay,00H
        EXTERN ??AddrMgrEntryLookupNwk?relay
        FUNCTION ??AddrMgrEntryLookupNwk?relay,00H
        EXTERN ??AddrMgrEntryUpdate?relay
        FUNCTION ??AddrMgrEntryUpdate?relay,00H
        EXTERN ??AddrMgrExtAddrSet?relay
        FUNCTION ??AddrMgrExtAddrSet?relay,00H
        EXTERN ??AddrMgrExtAddrValid?relay
        FUNCTION ??AddrMgrExtAddrValid?relay,00H
        EXTERN ??AssocCount?relay
        FUNCTION ??AssocCount?relay,00H
        EXTERN ??AssocFindDevice?relay
        FUNCTION ??AssocFindDevice?relay,00H
        EXTERN ??HalLcdWriteScreen?relay
        FUNCTION ??HalLcdWriteScreen?relay,00H
        EXTERN ??HalLcdWriteString?relay
        FUNCTION ??HalLcdWriteString?relay,00H
        EXTERN ??NLME_DeviceJoiningInit?relay
        FUNCTION ??NLME_DeviceJoiningInit?relay,00H
        EXTERN ??NLME_DirectJoinRequest?relay
        FUNCTION ??NLME_DirectJoinRequest?relay,00H
        EXTERN ??NLME_GetExtAddr?relay
        FUNCTION ??NLME_GetExtAddr?relay,00H
        EXTERN ??NLME_GetRequest?relay
        FUNCTION ??NLME_GetRequest?relay,00H
        EXTERN ??NLME_GetShortAddr?relay
        FUNCTION ??NLME_GetShortAddr?relay,00H
        EXTERN ??NLME_IsAddressBroadcast?relay
        FUNCTION ??NLME_IsAddressBroadcast?relay,00H
        EXTERN ??NLME_LeaveReq?relay
        FUNCTION ??NLME_LeaveReq?relay,00H
        EXTERN ??NLME_NetworkDiscoveryRequest?relay
        FUNCTION ??NLME_NetworkDiscoveryRequest?relay,00H
        EXTERN ??NLME_NwkDiscReq2?relay
        FUNCTION ??NLME_NwkDiscReq2?relay,00H
        EXTERN ??NLME_NwkDiscTerm?relay
        FUNCTION ??NLME_NwkDiscTerm?relay,00H
        EXTERN ??NLME_OrphanJoinRequest?relay
        FUNCTION ??NLME_OrphanJoinRequest?relay,00H
        EXTERN ??NLME_PermitJoiningRequest?relay
        FUNCTION ??NLME_PermitJoiningRequest?relay,00H
        EXTERN ??ZDApp_NVUpdate?relay
        FUNCTION ??ZDApp_NVUpdate?relay,00H
        EXTERN ??ZDP_BindUnbindReq?relay
        FUNCTION ??ZDP_BindUnbindReq?relay,00H
        EXTERN ??ZDP_EPRsp?relay
        FUNCTION ??ZDP_EPRsp?relay,00H
        EXTERN ??ZDP_GenericRsp?relay
        FUNCTION ??ZDP_GenericRsp?relay,00H
        EXTERN ??ZDP_MgmtBindRsp?relay
        FUNCTION ??ZDP_MgmtBindRsp?relay,00H
        EXTERN ??ZDP_MgmtLqiRsp?relay
        FUNCTION ??ZDP_MgmtLqiRsp?relay,00H
        EXTERN ??ZDP_MgmtRtgRsp?relay
        FUNCTION ??ZDP_MgmtRtgRsp?relay,00H
        EXTERN ??ZDP_NodeDescMsg?relay
        FUNCTION ??ZDP_NodeDescMsg?relay,00H
        EXTERN ??ZDP_NwkAddrReq?relay
        FUNCTION ??ZDP_NwkAddrReq?relay,00H
        EXTERN ??ZDP_PowerDescMsg?relay
        FUNCTION ??ZDP_PowerDescMsg?relay,00H
        EXTERN ??ZDP_SendData?relay
        FUNCTION ??ZDP_SendData?relay,00H
        EXTERN ??ZDP_ServerDiscRsp?relay
        FUNCTION ??ZDP_ServerDiscRsp?relay,00H
        EXTERN ??ZDP_SimpleDescMsg?relay
        FUNCTION ??ZDP_SimpleDescMsg?relay,00H
        EXTERN ??ZDP_UserDescRsp?relay
        FUNCTION ??ZDP_UserDescRsp?relay,00H
        EXTERN ??afEndPoints?relay
        FUNCTION ??afEndPoints?relay,00H
        EXTERN ??afFindSimpleDesc?relay
        FUNCTION ??afFindSimpleDesc?relay,00H
        EXTERN ??afNumEndPoints?relay
        FUNCTION ??afNumEndPoints?relay,00H
        EXTERN ??bindNumOfEntries?relay
        FUNCTION ??bindNumOfEntries?relay,00H
        EXTERN ??nwk_ScanJoiningOrphan?relay
        FUNCTION ??nwk_ScanJoiningOrphan?relay,00H
        EXTERN ??osal_build_uint32?relay
        FUNCTION ??osal_build_uint32?relay,00H
        EXTERN ??osal_mem_alloc?relay
        FUNCTION ??osal_mem_alloc?relay,00H
        EXTERN ??osal_mem_free?relay
        FUNCTION ??osal_mem_free?relay,00H
        EXTERN ??osal_memcpy?relay
        FUNCTION ??osal_memcpy?relay,00H
        EXTERN ??osal_memset?relay
        FUNCTION ??osal_memset?relay,00H
        EXTERN ??osal_msg_allocate?relay
        FUNCTION ??osal_msg_allocate?relay,00H
        EXTERN ??osal_msg_find?relay
        FUNCTION ??osal_msg_find?relay,00H
        EXTERN ??osal_msg_send?relay
        FUNCTION ??osal_msg_send?relay,00H
        EXTERN ??osal_nv_read?relay
        FUNCTION ??osal_nv_read?relay,00H
        EXTERN ??osal_nv_write?relay
        FUNCTION ??osal_nv_write?relay,00H
        EXTERN ??osal_set_event?relay
        FUNCTION ??osal_set_event?relay,00H
        EXTERN ??osal_start_timerEx?relay
        FUNCTION ??osal_start_timerEx?relay,00H
        EXTERN ??sAddrExtCmp?relay
        FUNCTION ??sAddrExtCmp?relay,00H
        EXTERN ??sAddrExtCpy?relay
        FUNCTION ??sAddrExtCpy?relay,00H
        EXTERN AIB_MaxBindingTime
        EXTERN AIB_apsUseExtendedPANID
        EXTERN ZDAppNwkAddr
        EXTERN ZDAppTaskID
        EXTERN ZDO_Config_Node_Descriptor
        EXTERN ZDO_Config_Power_Descriptor
        EXTERN ZDO_UseExtendedPANID
        EXTERN ZDP_TransID
        EXTERN _NIB
        EXTERN devState
        EXTERN epList
        EXTERN gNWK_MAX_BINDING_ENTRIES
        EXTERN zdappMgmtNwkDiscReqInProgress
        EXTERN zdappMgmtNwkDiscRspAddr
        EXTERN zdappMgmtNwkDiscRspTransSeq
        EXTERN zdappMgmtNwkDiscStartIndex
        EXTERN zgDefaultChannelList
        EXTERN zgDefaultStartingScanDuration
        EXTERN zgDeviceLogicalType

// C:\Texas Instruments\ZStack-CC2530-2.3.0-1.4.0\Components\stack\zdo\ZDObject.c
//    1 /**************************************************************************************************
//    2   Filename:       ZDObject.c
//    3   Revised:        $Date: 2009-12-29 11:40:43 -0800 (Tue, 29 Dec 2009) $
//    4   Revision:       $Revision: 21414 $
//    5 
//    6   Description:    This is the Zigbee Device Object.
//    7 
//    8 
//    9   Copyright 2004-2009 Texas Instruments Incorporated. All rights reserved.
//   10 
//   11   IMPORTANT: Your use of this Software is limited to those specific rights
//   12   granted under the terms of a software license agreement between the user
//   13   who downloaded the software, his/her employer (which must be your employer)
//   14   and Texas Instruments Incorporated (the "License").  You may not use this
//   15   Software unless you agree to abide by the terms of the License. The License
//   16   limits your use, and you acknowledge, that the Software may not be modified,
//   17   copied or distributed unless embedded on a Texas Instruments microcontroller
//   18   or used solely and exclusively in conjunction with a Texas Instruments radio
//   19   frequency transceiver, which is integrated into your product.  Other than for
//   20   the foregoing purpose, you may not use, reproduce, copy, prepare derivative
//   21   works of, modify, distribute, perform, display or sell this Software and/or
//   22   its documentation for any purpose.
//   23 
//   24   YOU FURTHER ACKNOWLEDGE AND AGREE THAT THE SOFTWARE AND DOCUMENTATION ARE
//   25   PROVIDED AS IS WITHOUT WARRANTY OF ANY KIND, EITHER EXPRESS OR IMPLIED,
//   26   INCLUDING WITHOUT LIMITATION, ANY WARRANTY OF MERCHANTABILITY, TITLE,
//   27   NON-INFRINGEMENT AND FITNESS FOR A PARTICULAR PURPOSE. IN NO EVENT SHALL
//   28   TEXAS INSTRUMENTS OR ITS LICENSORS BE LIABLE OR OBLIGATED UNDER CONTRACT,
//   29   NEGLIGENCE, STRICT LIABILITY, CONTRIBUTION, BREACH OF WARRANTY, OR OTHER
//   30   LEGAL EQUITABLE THEORY ANY DIRECT OR INDIRECT DAMAGES OR EXPENSES
//   31   INCLUDING BUT NOT LIMITED TO ANY INCIDENTAL, SPECIAL, INDIRECT, PUNITIVE
//   32   OR CONSEQUENTIAL DAMAGES, LOST PROFITS OR LOST DATA, COST OF PROCUREMENT
//   33   OF SUBSTITUTE GOODS, TECHNOLOGY, SERVICES, OR ANY CLAIMS BY THIRD PARTIES
//   34   (INCLUDING BUT NOT LIMITED TO ANY DEFENSE THEREOF), OR OTHER SIMILAR COSTS.
//   35 
//   36   Should you have any questions regarding your right to use this Software,
//   37   contact Texas Instruments Incorporated at www.TI.com.
//   38 **************************************************************************************************/
//   39 
//   40 /*********************************************************************
//   41  * INCLUDES
//   42  */
//   43 #include "ZComdef.h"
//   44 #include "OSAL.h"
//   45 #include "OSAL_Nv.h"
//   46 #include "rtg.h"
//   47 #include "NLMEDE.h"
//   48 #include "nwk_globals.h"
//   49 #include "APS.h"
//   50 #include "APSMEDE.h"
//   51 #include "AssocList.h"
//   52 #include "BindingTable.h"
//   53 #include "AddrMgr.h"
//   54 #include "AF.h"
//   55 #include "ZDObject.h"
//   56 #include "ZDProfile.h"
//   57 #include "ZDConfig.h"
//   58 #include "ZDSecMgr.h"
//   59 #include "ZDApp.h"
//   60 #include "nwk_util.h"   // NLME_IsAddressBroadcast()
//   61 #include "ZGlobals.h"
//   62 #if defined MT_ZDO_CB_FUNC
//   63 #include "MT.h"
//   64 #endif
//   65 
//   66 #if defined( LCD_SUPPORTED )
//   67   #include "OnBoard.h"
//   68 #endif
//   69 
//   70 /* HAL */
//   71 #include "hal_lcd.h"
//   72 
//   73 /*********************************************************************
//   74  * MACROS
//   75  */
//   76 
//   77 /*********************************************************************
//   78  * CONSTANTS
//   79  */
//   80 // NLME Stub Implementations
//   81 #define ZDO_ProcessMgmtPermitJoinTimeout NLME_PermitJoiningTimeout
//   82 
//   83 // Status fields used by ZDO_ProcessMgmtRtgReq
//   84 #define ZDO_MGMT_RTG_ENTRY_ACTIVE             0x00
//   85 #define ZDO_MGMT_RTG_ENTRY_DISCOVERY_UNDERWAY 0x01
//   86 #define ZDO_MGMT_RTG_ENTRY_DISCOVERY_FAILED   0x02
//   87 #define ZDO_MGMT_RTG_ENTRY_INACTIVE           0x03
//   88 
//   89 /*********************************************************************
//   90  * TYPEDEFS
//   91  */
//   92 #if defined ( REFLECTOR )
//   93 typedef struct
//   94 {
//   95   byte SrcTransSeq;
//   96   zAddrType_t SrcAddr;
//   97   uint16 LocalCoordinator;
//   98   byte epIntf;
//   99   uint16 ProfileID;
//  100   byte numInClusters;
//  101   uint16 *inClusters;
//  102   byte numOutClusters;
//  103   uint16 *outClusters;
//  104   byte SecurityUse;
//  105   byte status;
//  106 } ZDO_EDBind_t;
//  107 #endif // defined ( REFLECTOR )
//  108 
//  109 enum
//  110 {
//  111   ZDMATCH_INIT,           // Initialized
//  112   ZDMATCH_WAIT_REQ,       // Received first request, waiting for second
//  113   ZDMATCH_SENDING_BINDS   // Received both requests, sending unbind/binds
//  114 };
//  115 
//  116 enum
//  117 {
//  118   ZDMATCH_SENDING_NOT,
//  119   ZDMATCH_SENDING_UNBIND,
//  120   ZDMATCH_SENDING_BIND
//  121 };
//  122 
//  123 /*********************************************************************
//  124  * GLOBAL VARIABLES
//  125  */
//  126 
//  127 /*********************************************************************
//  128  * EXTERNAL VARIABLES
//  129  */
//  130 
//  131 /*********************************************************************
//  132  * EXTERNAL FUNCTIONS
//  133  */
//  134 
//  135 /*********************************************************************
//  136  * LOCAL VARIABLES
//  137  */

        RSEG XDATA_Z:XDATA:NOROOT(0)
//  138 static uint16 ZDOBuildBuf[26];  // temp area to build data without allocation
ZDOBuildBuf:
        DS 52
        REQUIRE __INIT_XDATA_Z
//  139 
//  140 #if defined ( REFLECTOR )

        RSEG XDATA_Z:XDATA:NOROOT(0)
//  141 static ZDO_EDBind_t *ZDO_EDBind;     // Null when not used
ZDO_EDBind:
        DS 2
        REQUIRE __INIT_XDATA_Z
//  142 #endif
//  143 
//  144 #if defined ( MANAGED_SCAN )
//  145   uint32 managedScanNextChannel = 0;
//  146   uint32 managedScanChannelMask = 0;
//  147   uint8  managedScanTimesPerChannel = 0;
//  148 #endif
//  149 

        RSEG XDATA_Z:XDATA:NOROOT(0)
//  150 ZDMatchEndDeviceBind_t *matchED = (ZDMatchEndDeviceBind_t *)NULL;
matchED:
        DS 2
        REQUIRE __INIT_XDATA_Z
//  151 

        RSEG XDATA_Z:XDATA:NOROOT(0)
//  152 uint32 apsChannelMask = 0;
apsChannelMask:
        DS 4
        REQUIRE __INIT_XDATA_Z
//  153 
//  154 /*********************************************************************
//  155  * LOCAL FUNCTIONS
//  156  */
//  157 static void ZDODeviceSetup( void );
//  158 #if defined ( MANAGED_SCAN )
//  159   static void ZDOManagedScan_Next( void );
//  160 #endif
//  161 #if defined ( REFLECTOR )
//  162   static void ZDO_RemoveEndDeviceBind( void );
//  163   static void ZDO_SendEDBindRsp( byte TransSeq, zAddrType_t *dstAddr, byte Status, byte secUse );
//  164 #endif
//  165 static byte ZDO_CompareClusterLists( byte numList1, uint16 *list1,
//  166                                 byte numList2, uint16 *list2, uint16 *pMatches );
//  167 static void ZDO_RemoveMatchMemory( void );
//  168 static uint8 ZDO_CopyMatchInfo( ZDEndDeviceBind_t *destReq, ZDEndDeviceBind_t *srcReq );
//  169 static void ZDO_EndDeviceBindMatchTimeoutCB( void );
//  170 uint8 *ZDO_ConvertOTAClusters( uint8 cnt, uint8 *inBuf, uint16 *outList );
//  171 static void zdoSendStateChangeMsg(uint8 state, uint8 taskId);
//  172 
//  173 /*********************************************************************
//  174  * @fn          ZDO_Init
//  175  *
//  176  * @brief       ZDObject and ZDProfile initialization.
//  177  *
//  178  * @param       none
//  179  *
//  180  * @return      none
//  181  */

        RSEG BANKED_CODE:CODE:NOROOT(0)
//  182 void ZDO_Init( void )
ZDO_Init:
        CFI Block cfiBlock0 Using cfiCommon0
        CFI Function ZDO_Init
//  183 {
        FUNCALL ZDO_Init, sAddrExtCpy
        LOCFRAME ISTACK, 2, STACK
        LOCFRAME PSTACK, 0, STACK
        LOCFRAME XSTACK, 0, STACK
        LOCFRAME IOVERLAY, 0, STATIC
        LOCFRAME DOVERLAY, 0, STATIC
        ARGFRAME ISTACK, 2, STACK
        ARGFRAME PSTACK, 0, STACK
        ARGFRAME XSTACK, 0, STACK
        ARGFRAME IOVERLAY, 0, STATIC
        ARGFRAME DOVERLAY, 0, STATIC
        FUNCALL ZDO_Init, APS_ReflectorInit
        LOCFRAME ISTACK, 2, STACK
        LOCFRAME PSTACK, 0, STACK
        LOCFRAME XSTACK, 0, STACK
        LOCFRAME IOVERLAY, 0, STATIC
        LOCFRAME DOVERLAY, 0, STATIC
        ARGFRAME ISTACK, 2, STACK
        ARGFRAME PSTACK, 0, STACK
        ARGFRAME XSTACK, 0, STACK
        ARGFRAME IOVERLAY, 0, STATIC
        ARGFRAME DOVERLAY, 0, STATIC
        FUNCALL ZDO_Init, NLME_DeviceJoiningInit
        LOCFRAME ISTACK, 2, STACK
        LOCFRAME PSTACK, 0, STACK
        LOCFRAME XSTACK, 0, STACK
        LOCFRAME IOVERLAY, 0, STATIC
        LOCFRAME DOVERLAY, 0, STATIC
        ARGFRAME ISTACK, 2, STACK
        ARGFRAME PSTACK, 0, STACK
        ARGFRAME XSTACK, 0, STACK
        ARGFRAME IOVERLAY, 0, STATIC
        ARGFRAME DOVERLAY, 0, STATIC
        PUSH    DPL
        CFI DPL0 Frame(CFA_SP, 4)
        CFI CFA_SP SP+-4
        PUSH    DPH
        CFI DPH0 Frame(CFA_SP, 5)
        CFI CFA_SP SP+-5
        ; Saved register size: 2
        ; Auto size: 0
//  184   // Initialize ZD items
//  185   #if defined ( REFLECTOR )
//  186   ZDO_EDBind = NULL;
        MOV     DPTR,#ZDO_EDBind
        CLR     A
        MOVX    @DPTR,A
        INC     DPTR
        MOVX    @DPTR,A
//  187   #endif
//  188 
//  189   // Initialize default ZDO_UseExtendedPANID to the APS one.
//  190   osal_cpyExtAddr( ZDO_UseExtendedPANID, AIB_apsUseExtendedPANID );
        ; Setup parameters for call to function sAddrExtCpy
        MOV     R4,#(AIB_apsUseExtendedPANID & 0xff)
        MOV     R5,#((AIB_apsUseExtendedPANID >> 8) & 0xff)
        MOV     R2,#(ZDO_UseExtendedPANID & 0xff)
        MOV     R3,#((ZDO_UseExtendedPANID >> 8) & 0xff)
        LCALL   ??sAddrExtCpy?relay
//  191 
//  192   // Setup the device - type of device to create.
//  193   ZDODeviceSetup();
        MOV     DPTR,#zgDeviceLogicalType
        MOVX    A,@DPTR
        JNZ     ??ZDO_Init_0
        MOV     R1,#0x0
        SJMP    ??ZDO_Init_1
??ZDO_Init_0:
        MOV     R1,#0x1
??ZDO_Init_1:
        ; Setup parameters for call to function APS_ReflectorInit
        LCALL   ??APS_ReflectorInit?relay
        ; Setup parameters for call to function NLME_DeviceJoiningInit
        LCALL   ??NLME_DeviceJoiningInit?relay
//  194 }
        SJMP    ??Subroutine191_0
        CFI EndBlock cfiBlock0
//  195 
//  196 #if defined ( MANAGED_SCAN )
//  197 /*********************************************************************
//  198  * @fn      ZDOManagedScan_Next()
//  199  *
//  200  * @brief   Setup a managed scan.
//  201  *
//  202  * @param   none
//  203  *
//  204  * @return  none
//  205  */
//  206 static void ZDOManagedScan_Next( void )
//  207 {
//  208   // Is it the first time
//  209   if ( managedScanNextChannel == 0 && managedScanTimesPerChannel == 0 )
//  210   {
//  211     // Setup the defaults
//  212     managedScanNextChannel  = 1;
//  213 
//  214     while( managedScanNextChannel && (zgDefaultChannelList & managedScanNextChannel) == 0 )
//  215       managedScanNextChannel <<= 1;
//  216 
//  217     managedScanChannelMask = managedScanNextChannel;
//  218     managedScanTimesPerChannel = MANAGEDSCAN_TIMES_PRE_CHANNEL;
//  219   }
//  220   else
//  221   {
//  222     // Do we need to go to the next channel
//  223     if ( managedScanTimesPerChannel == 0 )
//  224     {
//  225       // Find next active channel
//  226       managedScanChannelMask  = managedScanNextChannel;
//  227       managedScanTimesPerChannel = MANAGEDSCAN_TIMES_PRE_CHANNEL;
//  228     }
//  229     else
//  230     {
//  231       managedScanTimesPerChannel--;
//  232 
//  233       if ( managedScanTimesPerChannel == 0 )
//  234       {
//  235         managedScanNextChannel  <<= 1;
//  236         while( managedScanNextChannel && (zgDefaultChannelList & managedScanNextChannel) == 0 )
//  237           managedScanNextChannel <<= 1;
//  238 
//  239         if ( managedScanNextChannel == 0 )
//  240           zdoDiscCounter  = NUM_DISC_ATTEMPTS + 1; // Stop
//  241       }
//  242     }
//  243   }
//  244 }
//  245 #endif // MANAGED_SCAN
//  246 
//  247 /*********************************************************************
//  248  * @fn      ZDODeviceSetup()
//  249  *
//  250  * @brief   Call set functions depending on the type of device compiled.
//  251  *
//  252  * @param   none
//  253  *
//  254  * @return  none
//  255  */
//  256 static void ZDODeviceSetup( void )
//  257 {
//  258   if ( ZG_BUILD_COORDINATOR_TYPE )
//  259   {
//  260     NLME_CoordinatorInit();
//  261   }
//  262 
//  263 #if defined ( REFLECTOR )
//  264   APS_ReflectorInit( (ZG_DEVICE_COORDINATOR_TYPE) ? APS_REFLECTOR_PUBLIC :  APS_REFLECTOR_PRIVATE );
//  265 #endif
//  266 
//  267   if ( ZG_BUILD_JOINING_TYPE )
//  268   {
//  269     NLME_DeviceJoiningInit();
//  270   }
//  271 }
//  272 
//  273 /*********************************************************************
//  274  * @fn          ZDO_StartDevice
//  275  *
//  276  * @brief       This function starts a device in a network.
//  277  *
//  278  * @param       logicalType     - Device type to start
//  279  *              startMode       - indicates mode of device startup
//  280  *              beaconOrder     - indicates time betwen beacons
//  281  *              superframeOrder - indicates length of active superframe
//  282  *
//  283  * @return      none
//  284  */
//  285 void ZDO_StartDevice( byte logicalType, devStartModes_t startMode, byte beaconOrder, byte superframeOrder )
//  286 {
//  287   ZStatus_t ret;
//  288 #if defined ( ZIGBEE_FREQ_AGILITY )

        RSEG XDATA_Z:XDATA:NOROOT(0)
//  289   static uint8 discRetries = 0;
??discRetries:
        DS 1
        REQUIRE __INIT_XDATA_Z
//  290 #endif
//  291 #if defined ( ZIGBEE_COMMISSIONING )
//  292   static uint8 scanCnt = 0;
//  293 #endif
//  294 
//  295   ret = ZUnsupportedMode;
//  296 
//  297   if ( ZG_BUILD_COORDINATOR_TYPE && logicalType == NODETYPE_COORDINATOR )
//  298   {
//  299     if ( startMode == MODE_HARD )
//  300     {
//  301       devState = DEV_COORD_STARTING;
//  302       ret = NLME_NetworkFormationRequest( zgConfigPANID, zgApsUseExtendedPANID, zgDefaultChannelList,
//  303                                           zgDefaultStartingScanDuration, beaconOrder,
//  304                                           superframeOrder, false );
//  305     }
//  306     else if ( startMode == MODE_RESUME )
//  307     {
//  308       // Just start the coordinator
//  309       devState = DEV_COORD_STARTING;
//  310       ret = NLME_StartRouterRequest( beaconOrder, beaconOrder, false );
//  311     }
//  312     else
//  313     {
//  314 #if defined( LCD_SUPPORTED )
//  315       HalLcdWriteScreen( "StartDevice ERR", "MODE unknown" );
//  316 #endif
//  317     }
//  318   }
//  319 
//  320   if ( ZG_BUILD_JOINING_TYPE && (logicalType == NODETYPE_ROUTER || logicalType == NODETYPE_DEVICE) )
//  321   {
//  322     if ( (startMode == MODE_JOIN) || (startMode == MODE_REJOIN) )
//  323     {
//  324       devState = DEV_NWK_DISC;
//  325 
//  326   #if defined( MANAGED_SCAN )
//  327       ZDOManagedScan_Next();
//  328       ret = NLME_NetworkDiscoveryRequest( managedScanChannelMask, BEACON_ORDER_15_MSEC );
//  329   #else
//  330       ret = NLME_NetworkDiscoveryRequest( zgDefaultChannelList, zgDefaultStartingScanDuration );
//  331     #if defined ( ZIGBEE_FREQ_AGILITY )
//  332       if ( !( ZDO_Config_Node_Descriptor.CapabilityFlags & CAPINFO_RCVR_ON_IDLE ) &&
//  333             ( ret == ZSuccess ) && ( ++discRetries == 4 ) )
//  334       {
//  335         // For devices with RxOnWhenIdle equals to FALSE, any network channel
//  336         // change will not be recieved. On these devices or routers that have
//  337         // lost the network, an active scan shall be conducted on the Default
//  338         // Channel list using the extended PANID to find the network. If the
//  339         // extended PANID isn't found using the Default Channel list, an scan
//  340         // should be completed using all channels.
//  341         zgDefaultChannelList = MAX_CHANNELS_24GHZ;
//  342       }
//  343     #endif // ZIGBEE_FREQ_AGILITY
//  344     #if defined ( ZIGBEE_COMMISSIONING )
//  345       if (startMode == MODE_REJOIN && scanCnt++ >= 5 )
//  346       {
//  347         // When ApsUseExtendedPanID is commissioned to a non zero value via
//  348         // application specific means, the device shall conduct an active scan
//  349         // on the Default Channel list and join the PAN with the same
//  350         // ExtendedPanID. If the PAN is not found, an scan should be completed
//  351         // on all channels.
//  352         // When devices rejoin the network and the PAN is not found from
//  353         zgDefaultChannelList = MAX_CHANNELS_24GHZ;
//  354       }
//  355     #endif // ZIGBEE_COMMISSIONING
//  356   #endif
//  357     }
//  358     else if ( startMode == MODE_RESUME )
//  359     {
//  360       if ( logicalType == NODETYPE_ROUTER )
//  361       {
//  362         ZMacScanCnf_t scanCnf;
//  363         devState = DEV_NWK_ORPHAN;
//  364 
//  365         /* if router and nvram is available, fake successful orphan scan */
//  366         scanCnf.hdr.Status = ZSUCCESS;
//  367         scanCnf.ScanType = ZMAC_ORPHAN_SCAN;
//  368         scanCnf.UnscannedChannels = 0;
//  369         scanCnf.ResultListSize = 0;
//  370         nwk_ScanJoiningOrphan(&scanCnf);
//  371 
//  372         ret = ZSuccess;
//  373       }
//  374       else
//  375       {
//  376         devState = DEV_NWK_ORPHAN;
//  377         ret = NLME_OrphanJoinRequest( zgDefaultChannelList,
//  378                                       zgDefaultStartingScanDuration );
//  379       }
//  380     }
//  381     else
//  382     {
//  383 #if defined( LCD_SUPPORTED )
//  384       HalLcdWriteScreen( "StartDevice ERR", "MODE unknown" );
//  385 #endif
//  386     }
//  387   }
//  388 
//  389   if ( ret != ZSuccess )
//  390     osal_start_timerEx(ZDAppTaskID, ZDO_NETWORK_INIT, NWK_RETRY_DELAY );
//  391 }
//  392 
//  393 /**************************************************************************************************
//  394  * @fn          zdoSendStateChangeMsg
//  395  *
//  396  * @brief       Helper function for ZDO_UpdateNwkStatus.
//  397  *
//  398  * input parameters
//  399  *
//  400  * @param       taskId - The OSAL task identifier to which to send the ZDO_STATE_CHANGE_EVT.
//  401  * @param       state - The current device state.
//  402  *
//  403  * output parameters
//  404  *
//  405  * None.
//  406  *
//  407  * @return      None.
//  408  **************************************************************************************************
//  409  */
//  410 static void zdoSendStateChangeMsg(uint8 state, uint8 taskId)
//  411 {
//  412   osal_event_hdr_t *pMsg = (osal_event_hdr_t *)osal_msg_find(taskId, ZDO_STATE_CHANGE);
//  413 
//  414   if (NULL == pMsg)
//  415   {
//  416     if (NULL == (pMsg = (osal_event_hdr_t *)osal_msg_allocate(sizeof(osal_event_hdr_t))))
//  417     {
//  418       // Upon failure to notify any EndPoint of the state change, re-set the ZDO event to
//  419       // try again later when more Heap may be available.
//  420       osal_set_event(ZDAppTaskID, ZDO_STATE_CHANGE_EVT);
//  421     }
//  422     else
//  423     {
//  424       pMsg->event = ZDO_STATE_CHANGE;
//  425       pMsg->status = state;
//  426 
//  427       (void)osal_msg_send(taskId, (uint8 *)pMsg);
//  428     }
//  429   }
//  430   else
//  431   {
//  432     // Modify in place the status of an existing ZDO_STATE_CHANGE message to the EndPoint.
//  433     pMsg->status = state;
//  434   }
//  435 }
//  436 
//  437 /**************************************************************************************************
//  438  * @fn          ZDO_UpdateNwkStatus
//  439  *
//  440  * @brief       This function sends a ZDO_STATE_CHANGE message to the task of every EndPoint
//  441  *              registered with AF (except, of course, the ZDO_EP). Even if a single task has more
//  442  *              than one registered EndPoint, it will only receive one notification per state
//  443  *              change. Although the device may go through a sequence of state changes, the
//  444  *              Application task may only receive notification of the final, steady-state state
//  445  *              because it has the lowest priority and never even runs to receive the intermediate
//  446  *              state change notifications.
//  447  *
//  448  * input parameters
//  449  *
//  450  * @param       state - The current device state.
//  451  *
//  452  * output parameters
//  453  *
//  454  * None.
//  455  *
//  456  * @return      None.
//  457  **************************************************************************************************
//  458  */
//  459 void ZDO_UpdateNwkStatus(devStates_t state)
//  460 {
//  461   epList_t *pItem = epList;
//  462 
//  463   while (pItem != NULL)
//  464   {
//  465     if (pItem->epDesc->endPoint != ZDO_EP)
//  466     {
//  467       zdoSendStateChangeMsg(state, *(pItem->epDesc->task_id));
//  468     }
//  469 
//  470     pItem = pItem->nextDesc;
//  471   }
//  472 #if defined MT_ZDO_CB_FUNC
//  473   zdoSendStateChangeMsg(state, MT_TaskID);
//  474 #endif
//  475 
//  476   ZDAppNwkAddr.addr.shortAddr = NLME_GetShortAddr();
//  477   (void)NLME_GetExtAddr();  // Load the saveExtAddr pointer.
//  478 }
//  479 
//  480 #if defined ( REFLECTOR )
//  481 /*********************************************************************
//  482  * @fn          ZDO_RemoveEndDeviceBind
//  483  *
//  484  * @brief       Remove the end device bind
//  485  *
//  486  * @param  none
//  487  *
//  488  * @return      none
//  489  */
//  490 static void ZDO_RemoveEndDeviceBind( void )
//  491 {
//  492   if ( ZDO_EDBind != NULL )
//  493   {
//  494     // Free the RAM
//  495     if ( ZDO_EDBind->inClusters != NULL )
//  496       osal_mem_free( ZDO_EDBind->inClusters );
//  497     if ( ZDO_EDBind->outClusters != NULL )
//  498       osal_mem_free( ZDO_EDBind->outClusters );
//  499     osal_mem_free( ZDO_EDBind );
//  500     ZDO_EDBind = NULL;
//  501   }
//  502 }
//  503 #endif // REFLECTOR
//  504 
//  505 #if defined ( REFLECTOR )
//  506 /*********************************************************************
//  507  * @fn          ZDO_RemoveEndDeviceBind
//  508  *
//  509  * @brief       Remove the end device bind
//  510  *
//  511  * @param  none
//  512  *
//  513  * @return      none
//  514  */
//  515 static void ZDO_SendEDBindRsp( byte TransSeq, zAddrType_t *dstAddr, byte Status, byte secUse )
//  516 {
//  517   ZDP_EndDeviceBindRsp( TransSeq, dstAddr, Status, secUse );
//  518 
//  519 #if defined( LCD_SUPPORTED )
//  520   HalLcdWriteString( "End Device Bind", HAL_LCD_LINE_1 );
//  521   if ( Status == ZDP_SUCCESS )
//  522     HalLcdWriteString( "Success Sent", HAL_LCD_LINE_2 );
//  523   else
//  524     HalLcdWriteString( "Timeout", HAL_LCD_LINE_2 );
//  525 #endif
//  526 
//  527 }
//  528 #endif // REFLECTOR
//  529 
//  530 /*********************************************************************
//  531  * @fn          ZDO_CompareClusterLists
//  532  *
//  533  * @brief       Compare one list to another list
//  534  *
//  535  * @param       numList1 - number of items in list 1
//  536  * @param       list1 - first list of cluster IDs
//  537  * @param       numList2 - number of items in list 2
//  538  * @param       list2 - second list of cluster IDs
//  539  * @param       pMatches - buffer to put matches
//  540  *
//  541  * @return      number of matches
//  542  */
//  543 static byte ZDO_CompareClusterLists( byte numList1, uint16 *list1,
//  544                           byte numList2, uint16 *list2, uint16 *pMatches )
//  545 {
//  546   byte x, y;
//  547   uint16 z;
//  548   byte numMatches = 0;
//  549 
//  550   // Check the first in against the seconds out
//  551   for ( x = 0; x < numList1; x++ )
//  552   {
//  553     for ( y = 0; y < numList2; y++ )
//  554     {
//  555       z = list2[y];
//  556       if ( list1[x] == z )
//  557         pMatches[numMatches++] = z;
//  558     }
//  559   }
//  560 
//  561   return ( numMatches );
//  562 }
//  563 
//  564 /*********************************************************************
//  565  * Utility functions
//  566  */
//  567 
//  568 /*********************************************************************
//  569  * @fn          ZDO_CompareByteLists
//  570  *
//  571  * @brief       Compares two lists for matches.
//  572  *
//  573  * @param       ACnt  - number of entries in list A
//  574  * @param       AList  - List A
//  575  * @param       BCnt  - number of entries in list B
//  576  * @param       BList  - List B
//  577  *
//  578  * @return      true if a match is found
//  579  */
//  580 byte ZDO_AnyClusterMatches( byte ACnt, uint16 *AList, byte BCnt, uint16 *BList )
//  581 {
//  582   byte x, y;
//  583 
//  584   for ( x = 0; x < ACnt; x++ )
//  585   {
//  586     for ( y = 0; y < BCnt; y++ )
//  587     {
//  588       if ( AList[x] == BList[y] )
//  589       {
//  590         return true;
//  591       }
//  592     }
//  593   }
//  594 
//  595   return false;
//  596 }
//  597 
//  598 /*********************************************************************
//  599  * Callback functions from ZDProfile
//  600  */
//  601 
//  602 /*********************************************************************
//  603  * @fn          ZDO_ProcessNodeDescReq
//  604  *
//  605  * @brief       This function processes and responds to the
//  606  *              Node_Desc_req message.
//  607  *
//  608  * @param       inMsg - incoming message
//  609  *
//  610  * @return      none
//  611  */
//  612 void ZDO_ProcessNodeDescReq( zdoIncomingMsg_t *inMsg )
//  613 {
//  614   uint16 aoi = BUILD_UINT16( inMsg->asdu[0], inMsg->asdu[1] );
//  615   NodeDescriptorFormat_t *desc = NULL;
//  616 
//  617   if ( aoi == ZDAppNwkAddr.addr.shortAddr )
//  618   {
//  619     desc = &ZDO_Config_Node_Descriptor;
//  620   }
//  621 
//  622   if ( desc != NULL )
//  623   {
//  624     ZDP_NodeDescMsg( inMsg, aoi, desc );
//  625   }
//  626   else
//  627   {
//  628     ZDP_GenericRsp( inMsg->TransSeq, &(inMsg->srcAddr),
//  629               ZDP_INVALID_REQTYPE, aoi, Node_Desc_rsp, inMsg->SecurityUse );
//  630   }
//  631 }
//  632 
//  633 /*********************************************************************
//  634  * @fn          ZDO_ProcessPowerDescReq
//  635  *
//  636  * @brief       This function processes and responds to the
//  637  *              Node_Power_req message.
//  638  *
//  639  * @param       inMsg  - incoming request
//  640  *
//  641  * @return      none
//  642  */
//  643 void ZDO_ProcessPowerDescReq( zdoIncomingMsg_t *inMsg )
//  644 {
//  645   uint16 aoi = BUILD_UINT16( inMsg->asdu[0], inMsg->asdu[1] );
//  646   NodePowerDescriptorFormat_t *desc = NULL;
//  647 
//  648   if ( aoi == ZDAppNwkAddr.addr.shortAddr )
//  649   {
//  650     desc = &ZDO_Config_Power_Descriptor;
//  651   }
//  652 
//  653   if ( desc != NULL )
//  654   {
//  655     ZDP_PowerDescMsg( inMsg, aoi, desc );
//  656   }
//  657   else
//  658   {
//  659     ZDP_GenericRsp( inMsg->TransSeq, &(inMsg->srcAddr),
//  660               ZDP_INVALID_REQTYPE, aoi, Power_Desc_rsp, inMsg->SecurityUse );
//  661   }
//  662 }
//  663 
//  664 /*********************************************************************
//  665  * @fn          ZDO_ProcessSimpleDescReq
//  666  *
//  667  * @brief       This function processes and responds to the
//  668  *              Simple_Desc_req message.
//  669  *
//  670  * @param       inMsg - incoming message (request)
//  671  *
//  672  * @return      none
//  673  */
//  674 void ZDO_ProcessSimpleDescReq( zdoIncomingMsg_t *inMsg )
//  675 {
//  676   SimpleDescriptionFormat_t *sDesc = NULL;
//  677   uint16 aoi = BUILD_UINT16( inMsg->asdu[0], inMsg->asdu[1] );
//  678   byte endPoint = inMsg->asdu[2];
//  679   byte free = false;
//  680   byte stat = ZDP_SUCCESS;
//  681 
//  682   if ( (endPoint == ZDO_EP) || (endPoint > MAX_ENDPOINTS) )
//  683   {
//  684     stat = ZDP_INVALID_EP;
//  685   }
//  686   else if ( aoi == ZDAppNwkAddr.addr.shortAddr )
//  687   {
//  688     free = afFindSimpleDesc( &sDesc, endPoint );
//  689     if ( sDesc == NULL )
//  690     {
//  691       stat = ZDP_NOT_ACTIVE;
//  692     }
//  693   }
//  694   else
//  695   {
//  696     if ( ZSTACK_ROUTER_BUILD )
//  697     {
//  698       stat = ZDP_DEVICE_NOT_FOUND;
//  699     }
//  700     else if ( ZSTACK_END_DEVICE_BUILD )
//  701     {
//  702       stat = ZDP_INVALID_REQTYPE;
//  703     }
//  704   }
//  705 
//  706   ZDP_SimpleDescMsg( inMsg, stat, sDesc );
//  707 
//  708   if ( free && sDesc )
//  709   {
//  710     osal_mem_free( sDesc );
//  711   }
//  712 }
//  713 
//  714 /*********************************************************************
//  715  * @fn          ZDO_ProcessActiveEPReq
//  716  *
//  717  * @brief       This function processes and responds to the
//  718  *              Active_EP_req message.
//  719  *
//  720  * @param       inMsg  - incoming message (request)
//  721  *
//  722  * @return      none
//  723  */
//  724 void ZDO_ProcessActiveEPReq( zdoIncomingMsg_t *inMsg )
//  725 {
//  726   byte cnt = 0;
//  727   uint16 aoi;
//  728   byte stat = ZDP_SUCCESS;
//  729 
//  730   aoi = BUILD_UINT16( inMsg->asdu[0], inMsg->asdu[1] );
//  731 
//  732   if ( aoi == NLME_GetShortAddr() )
//  733   {
//  734     cnt = afNumEndPoints() - 1;  // -1 for ZDO endpoint descriptor
//  735     afEndPoints( (uint8 *)ZDOBuildBuf, true );
//  736   }
//  737   else
//  738   {
//  739     stat = ZDP_INVALID_REQTYPE;
//  740   }
//  741 
//  742   ZDP_ActiveEPRsp( inMsg->TransSeq, &(inMsg->srcAddr), stat,
//  743                   aoi, cnt, (uint8 *)ZDOBuildBuf, inMsg->SecurityUse );
//  744 }
//  745 
//  746 /*********************************************************************
//  747  * @fn          ZDO_ConvertOTAClusters
//  748  *
//  749  * @brief       This function will convert the over-the-air cluster list
//  750  *              format to an internal format.
//  751  *
//  752  * @param       inMsg  - incoming message (request)
//  753  *
//  754  * @return      pointer to incremented inBuf
//  755  */
//  756 uint8 *ZDO_ConvertOTAClusters( uint8 cnt, uint8 *inBuf, uint16 *outList )
//  757 {
//  758   uint8 x;
//  759 
//  760   for ( x = 0; x < cnt; x++ )
//  761   {
//  762     // convert ota format to internal
//  763     outList[x] = BUILD_UINT16( inBuf[0], inBuf[1] );
//  764     inBuf += sizeof( uint16 );
//  765   }
//  766   return ( inBuf );
//  767 }
//  768 
//  769 /*********************************************************************
//  770  * @fn          ZDO_ProcessMatchDescReq
//  771  *
//  772  * @brief       This function processes and responds to the
//  773  *              Match_Desc_req message.
//  774  *
//  775  * @param       inMsg  - incoming message (request)
//  776  *
//  777  * @return      none
//  778  */
//  779 void ZDO_ProcessMatchDescReq( zdoIncomingMsg_t *inMsg )
//  780 {
//  781   uint8 epCnt = 0;
//  782   uint8 numInClusters;
//  783   uint16 *inClusters = NULL;
//  784   uint8 numOutClusters;
//  785   uint16 *outClusters = NULL;
//  786   epList_t *epDesc;
//  787   SimpleDescriptionFormat_t *sDesc = NULL;
//  788   uint8 allocated;
//  789   uint8 *msg;
//  790   uint16 aoi;
//  791   uint16 profileID;
//  792 
//  793   // Parse the incoming message
//  794   msg = inMsg->asdu;
//  795   aoi = BUILD_UINT16( msg[0], msg[1] );
//  796   profileID = BUILD_UINT16( msg[2], msg[3] );
//  797   msg += 4;
//  798 
//  799   if ( ADDR_BCAST_NOT_ME == NLME_IsAddressBroadcast(aoi) )
//  800   {
//  801     ZDP_MatchDescRsp( inMsg->TransSeq, &(inMsg->srcAddr), ZDP_INVALID_REQTYPE,
//  802                           ZDAppNwkAddr.addr.shortAddr, 0, NULL, inMsg->SecurityUse );
//  803     return;
//  804   }
//  805   else if ( (ADDR_NOT_BCAST == NLME_IsAddressBroadcast(aoi)) && (aoi != ZDAppNwkAddr.addr.shortAddr) )
//  806   {
//  807     ZDP_MatchDescRsp( inMsg->TransSeq, &(inMsg->srcAddr), ZDP_INVALID_REQTYPE,
//  808                              ZDAppNwkAddr.addr.shortAddr, 0, NULL, inMsg->SecurityUse );
//  809     return;
//  810   }
//  811 
//  812   if ((numInClusters = *msg++) &&
//  813       (inClusters = (uint16*)osal_mem_alloc( numInClusters * sizeof( uint16 ) )))
//  814   {
//  815     msg = ZDO_ConvertOTAClusters( numInClusters, msg, inClusters );
//  816   }
//  817   else
//  818   {
//  819     numInClusters = 0;
//  820   }
//  821 
//  822   if ((numOutClusters = *msg++) &&
//  823       (outClusters = (uint16 *)osal_mem_alloc( numOutClusters * sizeof( uint16 ) )))
//  824   {
//  825     msg = ZDO_ConvertOTAClusters( numOutClusters, msg, outClusters );
//  826   }
//  827   else
//  828   {
//  829     numOutClusters = 0;
//  830   }
//  831 
//  832   // First count the number of endpoints that match.
//  833   epDesc = epList;
//  834   while ( epDesc )
//  835   {
//  836     // Don't search endpoint 0 and check if response is allowed
//  837     if ( epDesc->epDesc->endPoint != ZDO_EP && (epDesc->flags&eEP_AllowMatch) )
//  838     {
//  839       if ( epDesc->pfnDescCB )
//  840       {
//  841         sDesc = (SimpleDescriptionFormat_t *)epDesc->pfnDescCB( AF_DESCRIPTOR_SIMPLE, epDesc->epDesc->endPoint );
//  842         allocated = TRUE;
//  843       }
//  844       else
//  845       {
//  846         sDesc = epDesc->epDesc->simpleDesc;
//  847         allocated = FALSE;
//  848       }
//  849 
//  850       if ( sDesc && sDesc->AppProfId == profileID )
//  851       {
//  852         uint8 *uint8Buf = (uint8 *)ZDOBuildBuf;
//  853 
//  854         // If there are no search input/ouput clusters - respond
//  855         if ( ((numInClusters == 0) && (numOutClusters == 0))
//  856             // Are there matching input clusters?
//  857              || (ZDO_AnyClusterMatches( numInClusters, inClusters,
//  858                   sDesc->AppNumInClusters, sDesc->pAppInClusterList ))
//  859             // Are there matching output clusters?
//  860              || (ZDO_AnyClusterMatches( numOutClusters, outClusters,
//  861                   sDesc->AppNumOutClusters, sDesc->pAppOutClusterList ))     )
//  862         {
//  863           // Notify the endpoint of the match.
//  864           uint8 bufLen = sizeof( ZDO_MatchDescRspSent_t ) + (numOutClusters + numInClusters) * sizeof(uint16);
//  865           ZDO_MatchDescRspSent_t *pRspSent = (ZDO_MatchDescRspSent_t *) osal_msg_allocate( bufLen );
//  866 
//  867           if (pRspSent)
//  868           {
//  869             pRspSent->hdr.event = ZDO_MATCH_DESC_RSP_SENT;
//  870             pRspSent->nwkAddr = inMsg->srcAddr.addr.shortAddr;
//  871             pRspSent->numInClusters = numInClusters;
//  872             pRspSent->numOutClusters = numOutClusters;
//  873 
//  874             if (numInClusters)
//  875             {
//  876               pRspSent->pInClusters = (uint16*) (pRspSent + 1);
//  877               osal_memcpy(pRspSent->pInClusters, inClusters, numInClusters * sizeof(uint16));
//  878             }
//  879             else
//  880             {
//  881               pRspSent->pInClusters = NULL;
//  882             }
//  883 
//  884             if (numOutClusters)
//  885             {
//  886               pRspSent->pOutClusters = (uint16*)(pRspSent + 1) + numInClusters;
//  887               osal_memcpy(pRspSent->pOutClusters, outClusters, numOutClusters * sizeof(uint16));
//  888             }
//  889             else
//  890             {
//  891               pRspSent->pOutClusters = NULL;
//  892             }
//  893 
//  894             osal_msg_send( *epDesc->epDesc->task_id, (uint8 *)pRspSent );
//  895           }
//  896 
//  897           uint8Buf[epCnt++] = sDesc->EndPoint;
//  898         }
//  899       }
//  900 
//  901       if ( allocated )
//  902         osal_mem_free( sDesc );
//  903     }
//  904     epDesc = epDesc->nextDesc;
//  905   }
//  906 
//  907   // Send the message only if at least one match found.
//  908   if ( epCnt )
//  909   {
//  910     if ( ZSuccess == ZDP_MatchDescRsp( inMsg->TransSeq, &(inMsg->srcAddr), ZDP_SUCCESS,
//  911               ZDAppNwkAddr.addr.shortAddr, epCnt, (uint8 *)ZDOBuildBuf, inMsg->SecurityUse ) )
//  912     {
//  913 #if defined( LCD_SUPPORTED )
//  914       HalLcdWriteScreen( "Match Desc Req", "Rsp Sent" );
//  915 #endif
//  916     }
//  917   }
//  918   else
//  919   {
//  920 #if defined( LCD_SUPPORTED )
//  921     HalLcdWriteScreen( "Match Desc Req", "Non Matched" );
//  922 #endif
//  923   }
//  924 
//  925   if ( inClusters != NULL )
//  926     osal_mem_free( inClusters );
//  927   if ( outClusters != NULL )
//  928     osal_mem_free( outClusters );
//  929 }
//  930 
//  931 
//  932 /*********************************************************************
//  933  * @fn      ZDO_ProcessBindUnbindReq()
//  934  *
//  935  * @brief   Called to process a Bind or Unbind Request message.
//  936  *
//  937  * @param   inMsg  - incoming message (request)
//  938  * @param   pReq - place to put parsed information
//  939  *
//  940  * @return  none
//  941  */
//  942 void ZDO_ProcessBindUnbindReq( zdoIncomingMsg_t *inMsg, ZDO_BindUnbindReq_t *pReq )
//  943 {
//  944   zAddrType_t SourceAddr;       // Binding Source addres
//  945   byte bindStat;
//  946 
//  947   SourceAddr.addrMode = Addr64Bit;
//  948   osal_cpyExtAddr( SourceAddr.addr.extAddr, pReq->srcAddress );
//  949 
//  950 
//  951   // If the local device is not the primary binding cache
//  952   // check the src address of the bind request.
//  953   // If it is not the local device's extended address
//  954   // discard the request.
//  955   if ( !osal_ExtAddrEqual( SourceAddr.addr.extAddr, NLME_GetExtAddr()) ||
//  956         (pReq->dstAddress.addrMode != Addr64Bit &&
//  957          pReq->dstAddress.addrMode != AddrGroup) )
//  958   {
//  959     bindStat = ZDP_NOT_SUPPORTED;
//  960   }
//  961   else
//  962   {
//  963     // Check source & destination endpoints
//  964     if ( (pReq->srcEndpoint == 0 || pReq->srcEndpoint > MAX_ENDPOINTS)
//  965         || (( pReq->dstAddress.addrMode == Addr64Bit ) &&
//  966             (pReq->dstEndpoint == 0 || pReq->dstEndpoint > MAX_ENDPOINTS)) )
//  967     {
//  968       bindStat = ZDP_INVALID_EP;
//  969     }
//  970     else
//  971     {
//  972       if ( inMsg->clusterID == Bind_req )
//  973       {
//  974         // Assume the table is full
//  975         bindStat = ZDP_TABLE_FULL;
//  976 
//  977         if ( bindNumOfEntries() < gNWK_MAX_BINDING_ENTRIES )
//  978         {
//  979           if ( APSME_BindRequest( pReq->srcEndpoint, pReq->clusterID,
//  980                          &(pReq->dstAddress), pReq->dstEndpoint ) == ZSuccess )
//  981           {
//  982             uint16 nwkAddr;
//  983 
//  984             // valid entry
//  985             bindStat = ZDP_SUCCESS;
//  986 
//  987             // Notify to save info into NV
//  988             ZDApp_NVUpdate();
//  989 
//  990             // Check for the destination address
//  991             if ( pReq->dstAddress.addrMode == Addr64Bit )
//  992             {
//  993               if ( APSME_LookupNwkAddr( pReq->dstAddress.addr.extAddr, &nwkAddr ) == FALSE )
//  994               {
//  995                 ZDP_NwkAddrReq( pReq->dstAddress.addr.extAddr, ZDP_ADDR_REQTYPE_SINGLE, 0, 0 );
//  996               }
//  997             }
//  998           }
//  999         }
// 1000       }
// 1001       else // Unbind_req
// 1002       {
// 1003         if ( APSME_UnBindRequest( pReq->srcEndpoint, pReq->clusterID,
// 1004                        &(pReq->dstAddress), pReq->dstEndpoint ) == ZSuccess )
// 1005         {
// 1006           bindStat = ZDP_SUCCESS;
// 1007 
// 1008           // Notify to save info into NV
// 1009           ZDApp_NVUpdate();
// 1010         }
// 1011         else
// 1012           bindStat = ZDP_NO_ENTRY;
// 1013       }
// 1014     }
// 1015   }
// 1016 
// 1017   // Send back a response message
// 1018   ZDP_SendData( &(inMsg->TransSeq), &(inMsg->srcAddr),
// 1019                (inMsg->clusterID | ZDO_RESPONSE_BIT), 1, &bindStat,
// 1020                inMsg->SecurityUse );
// 1021 }
// 1022 
// 1023 /*********************************************************************
// 1024  * @fn      ZDO_UpdateAddrManager
// 1025  *
// 1026  * @brief   Update the Address Manager.
// 1027  *
// 1028  * @param   nwkAddr - network address
// 1029  * @param   extAddr - extended address
// 1030  *
// 1031  * @return  none
// 1032  */

        RSEG BANKED_CODE:CODE:NOROOT(0)
?Subroutine166:
        CFI Block cfiBlock1 Using cfiCommon0
        CFI NoFunction
        CFI CFA_SP SP+-5
        CFI CFA_XSP16 add(XSP16, 13)
        CFI DPL0 Frame(CFA_SP, 4)
        CFI DPH0 Frame(CFA_SP, 5)
        CFI Invalid
        LCALL   ?DEALLOC_XSTACK8
        CFI EndBlock cfiBlock1
        REQUIRE ??Subroutine191_0
        ; // Fall through to label ??Subroutine191_0

        RSEG BANKED_CODE:CODE:NOROOT(0)
??Subroutine191_0:
        CFI Block cfiBlock2 Using cfiCommon0
        CFI NoFunction
        CFI CFA_SP SP+-5
        CFI DPL0 Frame(CFA_SP, 4)
        CFI DPH0 Frame(CFA_SP, 5)
        POP     DPH
        CFI CFA_SP SP+-4
        CFI DPH0 SameValue
        POP     DPL
        CFI CFA_SP SP+-3
        CFI DPL0 SameValue
        LJMP    ?BRET
        CFI EndBlock cfiBlock2

        RSEG BANKED_CODE:CODE:NOROOT(0)
ZDO_StartDevice:
        CFI Block cfiBlock3 Using cfiCommon0
        CFI Function ZDO_StartDevice
        FUNCALL ZDO_StartDevice, NLME_NetworkDiscoveryRequest
        LOCFRAME ISTACK, 0, STACK
        LOCFRAME PSTACK, 0, STACK
        LOCFRAME XSTACK, 23, STACK
        LOCFRAME IOVERLAY, 0, STATIC
        LOCFRAME DOVERLAY, 0, STATIC
        ARGFRAME ISTACK, 0, STACK
        ARGFRAME PSTACK, 0, STACK
        ARGFRAME XSTACK, 23, STACK
        ARGFRAME IOVERLAY, 0, STATIC
        ARGFRAME DOVERLAY, 0, STATIC
        FUNCALL ZDO_StartDevice, nwk_ScanJoiningOrphan
        LOCFRAME ISTACK, 0, STACK
        LOCFRAME PSTACK, 0, STACK
        LOCFRAME XSTACK, 23, STACK
        LOCFRAME IOVERLAY, 0, STATIC
        LOCFRAME DOVERLAY, 0, STATIC
        ARGFRAME ISTACK, 0, STACK
        ARGFRAME PSTACK, 0, STACK
        ARGFRAME XSTACK, 23, STACK
        ARGFRAME IOVERLAY, 0, STATIC
        ARGFRAME DOVERLAY, 0, STATIC
        FUNCALL ZDO_StartDevice, NLME_OrphanJoinRequest
        LOCFRAME ISTACK, 0, STACK
        LOCFRAME PSTACK, 0, STACK
        LOCFRAME XSTACK, 23, STACK
        LOCFRAME IOVERLAY, 0, STATIC
        LOCFRAME DOVERLAY, 0, STATIC
        ARGFRAME ISTACK, 0, STACK
        ARGFRAME PSTACK, 0, STACK
        ARGFRAME XSTACK, 23, STACK
        ARGFRAME IOVERLAY, 0, STATIC
        ARGFRAME DOVERLAY, 0, STATIC
        FUNCALL ZDO_StartDevice, osal_start_timerEx
        LOCFRAME ISTACK, 0, STACK
        LOCFRAME PSTACK, 0, STACK
        LOCFRAME XSTACK, 23, STACK
        LOCFRAME IOVERLAY, 0, STATIC
        LOCFRAME DOVERLAY, 0, STATIC
        ARGFRAME ISTACK, 0, STACK
        ARGFRAME PSTACK, 0, STACK
        ARGFRAME XSTACK, 23, STACK
        ARGFRAME IOVERLAY, 0, STATIC
        ARGFRAME DOVERLAY, 0, STATIC
        FUNCALL ZDO_StartDevice, HalLcdWriteScreen
        LOCFRAME ISTACK, 0, STACK
        LOCFRAME PSTACK, 0, STACK
        LOCFRAME XSTACK, 23, STACK
        LOCFRAME IOVERLAY, 0, STATIC
        LOCFRAME DOVERLAY, 0, STATIC
        ARGFRAME ISTACK, 0, STACK
        ARGFRAME PSTACK, 0, STACK
        ARGFRAME XSTACK, 23, STACK
        ARGFRAME IOVERLAY, 0, STATIC
        ARGFRAME DOVERLAY, 0, STATIC
        MOV     A,#-0xc
        LCALL   ?BANKED_ENTER_XDATA
        CFI DPH0 load(1, XDATA, add(CFA_XSP16, literal(-1)))
        CFI DPL0 load(1, XDATA, add(CFA_XSP16, literal(-2)))
        CFI ?BRET_EXT load(1, XDATA, add(CFA_XSP16, literal(-3)))
        CFI ?RET_HIGH load(1, XDATA, add(CFA_XSP16, literal(-4)))
        CFI ?RET_LOW load(1, XDATA, add(CFA_XSP16, literal(-5)))
        CFI R7 load(1, XDATA, add(CFA_XSP16, literal(-6)))
        CFI V3 load(1, XDATA, add(CFA_XSP16, literal(-7)))
        CFI V2 load(1, XDATA, add(CFA_XSP16, literal(-8)))
        CFI V1 load(1, XDATA, add(CFA_XSP16, literal(-9)))
        CFI V0 load(1, XDATA, add(CFA_XSP16, literal(-10)))
        CFI VB load(1, XDATA, add(CFA_XSP16, literal(-11)))
        CFI R6 load(1, XDATA, add(CFA_XSP16, literal(-12)))
        CFI CFA_SP SP+0
        CFI CFA_XSP16 add(XSP16, 12)
        ; Saved register size: 12
        ; Auto size: 11
        MOV     A,#-0xb
        LCALL   ?ALLOC_XSTACK8
        CFI CFA_XSP16 add(XSP16, 23)
        MOV     A,#0x1
        XRL     A,R1
        JZ      ??ZDO_StartDevice_0
        MOV     A,#0x2
        XRL     A,R1
        JZ      $+5
        LJMP    ??ZDO_StartDevice_1 & 0xFFFF
??ZDO_StartDevice_0:
        MOV     A,R2
        JZ      ??ZDO_StartDevice_2
        MOV     A,#0x3
        XRL     A,R2
        JNZ     ??ZDO_StartDevice_3
??ZDO_StartDevice_2:
        MOV     A,#0x2
        LCALL   ?Subroutine27 & 0xFFFF
??CrossCallReturnLabel_49:
        LCALL   ?L_MOV_X
        MOV     R2,?V0 + 0
        MOV     R3,?V0 + 1
        MOV     R4,?V0 + 2
        MOV     R5,?V0 + 3
        LCALL   ??NLME_NetworkDiscoveryRequest?relay
        MOV     A,R1
        MOV     R2,A
        MOV     DPTR,#(ZDO_Config_Node_Descriptor + 2)
        MOVX    A,@DPTR
        MOV     C,0xE0 /* A   */.3
        JC      ??ZDO_StartDevice_4
        MOV     A,R2
        JNZ     ??ZDO_StartDevice_4
        MOV     DPTR,#??discRetries
        MOVX    A,@DPTR
        INC     A
        MOVX    @DPTR,A
        XRL     A,#0x4
        JNZ     ??ZDO_StartDevice_5
        MOV     DPTR,#__Constant_7fff800
        MOV     R0,#?V0 + 0
        LCALL   ?L_MOV_X
        MOV     DPTR,#zgDefaultChannelList
        MOV     R0,#?V0 + 0
        LCALL   ?L_MOV_TO_X
        SJMP    ??ZDO_StartDevice_5
??ZDO_StartDevice_3:
        MOV     A,#0x1
        XRL     A,R2
        JNZ     ??ZDO_StartDevice_6
        MOV     A,#0x1
        XRL     A,R1
        JNZ     ??ZDO_StartDevice_7
        MOV     A,#0xa
        MOV     DPTR,#devState
        MOVX    @DPTR,A
        MOV     A,#0x1
        LCALL   ?XSTACK_DISP0_8
        CLR     A
        MOVX    @DPTR,A
        MOV     A,#0x2
        LCALL   ?XSTACK_DISP0_8
        MOV     A,#0x3
        MOVX    @DPTR,A
        MOV     DPTR,#__Constant_0
        MOV     R0,#?V0 + 0
        LCALL   ?L_MOV_X
        MOV     A,#0x4
        LCALL   ?XSTACK_DISP0_8
        MOV     R0,#?V0 + 0
        LCALL   ?L_MOV_TO_X
        MOV     A,#0x8
        LCALL   ?XSTACK_DISP0_8
        CLR     A
        LCALL   ?Subroutine13 & 0xFFFF
??CrossCallReturnLabel_227:
        LCALL   ??nwk_ScanJoiningOrphan?relay
        SJMP    ??ZDO_StartDevice_5
??ZDO_StartDevice_7:
        MOV     A,#0xa
        LCALL   ?Subroutine27 & 0xFFFF
??CrossCallReturnLabel_50:
        LCALL   ?L_MOV_X
        MOV     R2,?V0 + 0
        MOV     R3,?V0 + 1
        MOV     R4,?V0 + 2
        MOV     R5,?V0 + 3
        LCALL   ??NLME_OrphanJoinRequest?relay
        MOV     A,R1
        MOV     R2,A
??ZDO_StartDevice_4:
        MOV     A,R2
        JZ      ??ZDO_StartDevice_5
??ZDO_StartDevice_1:
        ; Setup parameters for call to function osal_start_timerEx
        MOV     R4,#-0x18
        MOV     R5,#0x3
        MOV     R2,#0x1
        MOV     R3,#0x0
        MOV     DPTR,#ZDAppTaskID
        MOVX    A,@DPTR
        MOV     R1,A
        LCALL   ??osal_start_timerEx?relay
??ZDO_StartDevice_5:
        MOV     A,#0xb
        LJMP    ?Subroutine167 & 0xFFFF
??ZDO_StartDevice_6:
        ; Setup parameters for call to function HalLcdWriteScreen
        MOV     R4,#(`?<Constant "MODE unknown">` & 0xff)
        MOV     R5,#((`?<Constant "MODE unknown">` >> 8) & 0xff)
        MOV     R2,#(`?<Constant "StartDevice ERR">` & 0xff)
        MOV     R3,#((`?<Constant "StartDevice ERR">` >> 8) & 0xff)
        LCALL   ??HalLcdWriteScreen?relay
        SJMP    ??ZDO_StartDevice_1
        CFI EndBlock cfiBlock3

        RSEG BANKED_CODE:CODE:NOROOT(0)
?Subroutine27:
        CFI Block cfiCond4 Using cfiCommon0
        CFI NoFunction
        CFI Conditional ??CrossCallReturnLabel_49
        CFI R6 load(1, XDATA, add(CFA_XSP16, literal(-12)))
        CFI VB load(1, XDATA, add(CFA_XSP16, literal(-11)))
        CFI V0 load(1, XDATA, add(CFA_XSP16, literal(-10)))
        CFI V1 load(1, XDATA, add(CFA_XSP16, literal(-9)))
        CFI V2 load(1, XDATA, add(CFA_XSP16, literal(-8)))
        CFI V3 load(1, XDATA, add(CFA_XSP16, literal(-7)))
        CFI R7 load(1, XDATA, add(CFA_XSP16, literal(-6)))
        CFI ?RET_LOW load(1, XDATA, add(CFA_XSP16, literal(-5)))
        CFI ?RET_HIGH load(1, XDATA, add(CFA_XSP16, literal(-4)))
        CFI ?BRET_EXT load(1, XDATA, add(CFA_XSP16, literal(-3)))
        CFI DPL0 load(1, XDATA, add(CFA_XSP16, literal(-2)))
        CFI DPH0 load(1, XDATA, add(CFA_XSP16, literal(-1)))
        CFI CFA_SP SP+0
        CFI CFA_XSP16 add(XSP16, 23)
        CFI Block cfiCond5 Using cfiCommon0
        CFI (cfiCond5) NoFunction
        CFI (cfiCond5) Conditional ??CrossCallReturnLabel_50
        CFI (cfiCond5) R6 load(1, XDATA, add(CFA_XSP16, literal(-12)))
        CFI (cfiCond5) VB load(1, XDATA, add(CFA_XSP16, literal(-11)))
        CFI (cfiCond5) V0 load(1, XDATA, add(CFA_XSP16, literal(-10)))
        CFI (cfiCond5) V1 load(1, XDATA, add(CFA_XSP16, literal(-9)))
        CFI (cfiCond5) V2 load(1, XDATA, add(CFA_XSP16, literal(-8)))
        CFI (cfiCond5) V3 load(1, XDATA, add(CFA_XSP16, literal(-7)))
        CFI (cfiCond5) R7 load(1, XDATA, add(CFA_XSP16, literal(-6)))
        CFI (cfiCond5) ?RET_LOW load(1, XDATA, add(CFA_XSP16, literal(-5)))
        CFI (cfiCond5) ?RET_HIGH load(1, XDATA, add(CFA_XSP16, literal(-4)))
        CFI (cfiCond5) ?BRET_EXT load(1, XDATA, add(CFA_XSP16, literal(-3)))
        CFI (cfiCond5) DPL0 load(1, XDATA, add(CFA_XSP16, literal(-2)))
        CFI (cfiCond5) DPH0 load(1, XDATA, add(CFA_XSP16, literal(-1)))
        CFI (cfiCond5) CFA_SP SP+0
        CFI (cfiCond5) CFA_XSP16 add(XSP16, 23)
        CFI Block cfiPicker6 Using cfiCommon1
        CFI (cfiPicker6) NoFunction
        CFI (cfiPicker6) Picker
        MOV     DPTR,#devState
        MOVX    @DPTR,A
        ; Setup parameters for call to function NLME_NetworkDiscoveryRequest
        ; Setup parameters for call to function NLME_OrphanJoinRequest
        MOV     DPTR,#zgDefaultStartingScanDuration
        MOVX    A,@DPTR
        MOV     R1,A
        MOV     DPTR,#zgDefaultChannelList
        MOV     R0,#?V0 + 0
        RET
        CFI EndBlock cfiCond4
        CFI EndBlock cfiCond5
        CFI EndBlock cfiPicker6

        RSEG BANKED_CODE:CODE:NOROOT(0)
ZDO_UpdateNwkStatus:
        CFI Block cfiBlock7 Using cfiCommon0
        CFI Function ZDO_UpdateNwkStatus
        FUNCALL ZDO_UpdateNwkStatus, osal_msg_find
        LOCFRAME ISTACK, 0, STACK
        LOCFRAME PSTACK, 0, STACK
        LOCFRAME XSTACK, 12, STACK
        LOCFRAME IOVERLAY, 0, STATIC
        LOCFRAME DOVERLAY, 0, STATIC
        ARGFRAME ISTACK, 0, STACK
        ARGFRAME PSTACK, 0, STACK
        ARGFRAME XSTACK, 12, STACK
        ARGFRAME IOVERLAY, 0, STATIC
        ARGFRAME DOVERLAY, 0, STATIC
        FUNCALL ZDO_UpdateNwkStatus, osal_msg_allocate
        LOCFRAME ISTACK, 0, STACK
        LOCFRAME PSTACK, 0, STACK
        LOCFRAME XSTACK, 12, STACK
        LOCFRAME IOVERLAY, 0, STATIC
        LOCFRAME DOVERLAY, 0, STATIC
        ARGFRAME ISTACK, 0, STACK
        ARGFRAME PSTACK, 0, STACK
        ARGFRAME XSTACK, 12, STACK
        ARGFRAME IOVERLAY, 0, STATIC
        ARGFRAME DOVERLAY, 0, STATIC
        FUNCALL ZDO_UpdateNwkStatus, osal_set_event
        LOCFRAME ISTACK, 0, STACK
        LOCFRAME PSTACK, 0, STACK
        LOCFRAME XSTACK, 12, STACK
        LOCFRAME IOVERLAY, 0, STATIC
        LOCFRAME DOVERLAY, 0, STATIC
        ARGFRAME ISTACK, 0, STACK
        ARGFRAME PSTACK, 0, STACK
        ARGFRAME XSTACK, 12, STACK
        ARGFRAME IOVERLAY, 0, STATIC
        ARGFRAME DOVERLAY, 0, STATIC
        FUNCALL ZDO_UpdateNwkStatus, osal_msg_send
        LOCFRAME ISTACK, 0, STACK
        LOCFRAME PSTACK, 0, STACK
        LOCFRAME XSTACK, 12, STACK
        LOCFRAME IOVERLAY, 0, STATIC
        LOCFRAME DOVERLAY, 0, STATIC
        ARGFRAME ISTACK, 0, STACK
        ARGFRAME PSTACK, 0, STACK
        ARGFRAME XSTACK, 12, STACK
        ARGFRAME IOVERLAY, 0, STATIC
        ARGFRAME DOVERLAY, 0, STATIC
        FUNCALL ZDO_UpdateNwkStatus, NLME_GetShortAddr
        LOCFRAME ISTACK, 0, STACK
        LOCFRAME PSTACK, 0, STACK
        LOCFRAME XSTACK, 12, STACK
        LOCFRAME IOVERLAY, 0, STATIC
        LOCFRAME DOVERLAY, 0, STATIC
        ARGFRAME ISTACK, 0, STACK
        ARGFRAME PSTACK, 0, STACK
        ARGFRAME XSTACK, 12, STACK
        ARGFRAME IOVERLAY, 0, STATIC
        ARGFRAME DOVERLAY, 0, STATIC
        FUNCALL ZDO_UpdateNwkStatus, NLME_GetExtAddr
        LOCFRAME ISTACK, 0, STACK
        LOCFRAME PSTACK, 0, STACK
        LOCFRAME XSTACK, 12, STACK
        LOCFRAME IOVERLAY, 0, STATIC
        LOCFRAME DOVERLAY, 0, STATIC
        ARGFRAME ISTACK, 0, STACK
        ARGFRAME PSTACK, 0, STACK
        ARGFRAME XSTACK, 12, STACK
        ARGFRAME IOVERLAY, 0, STATIC
        ARGFRAME DOVERLAY, 0, STATIC
        MOV     A,#-0xc
        LCALL   ?BANKED_ENTER_XDATA
        CFI DPH0 load(1, XDATA, add(CFA_XSP16, literal(-1)))
        CFI DPL0 load(1, XDATA, add(CFA_XSP16, literal(-2)))
        CFI ?BRET_EXT load(1, XDATA, add(CFA_XSP16, literal(-3)))
        CFI ?RET_HIGH load(1, XDATA, add(CFA_XSP16, literal(-4)))
        CFI ?RET_LOW load(1, XDATA, add(CFA_XSP16, literal(-5)))
        CFI R7 load(1, XDATA, add(CFA_XSP16, literal(-6)))
        CFI V3 load(1, XDATA, add(CFA_XSP16, literal(-7)))
        CFI V2 load(1, XDATA, add(CFA_XSP16, literal(-8)))
        CFI V1 load(1, XDATA, add(CFA_XSP16, literal(-9)))
        CFI V0 load(1, XDATA, add(CFA_XSP16, literal(-10)))
        CFI VB load(1, XDATA, add(CFA_XSP16, literal(-11)))
        CFI R6 load(1, XDATA, add(CFA_XSP16, literal(-12)))
        CFI CFA_SP SP+0
        CFI CFA_XSP16 add(XSP16, 12)
        ; Saved register size: 12
        ; Auto size: 0
        MOV     ?V0 + 0,R1
        MOV     DPTR,#epList
        MOVX    A,@DPTR
        MOV     R6,A
        INC     DPTR
        MOVX    A,@DPTR
        SJMP    ??CrossCallReturnLabel_133
??ZDO_UpdateNwkStatus_0:
        MOV     DPL,R2
        MOV     DPH,R3
        INC     DPTR
        MOV     A,?V0 + 0
        MOVX    @DPTR,A
??ZDO_UpdateNwkStatus_1:
        MOV     DPL,R6
        MOV     DPH,R7
        INC     DPTR
        INC     DPTR
        INC     DPTR
        INC     DPTR
        INC     DPTR
        LCALL   ?Subroutine87 & 0xFFFF
??CrossCallReturnLabel_133:
        MOV     R7,A
        MOV     A,R6
        JNZ     ??ZDO_UpdateNwkStatus_2
        MOV     A,R7
??ZDO_UpdateNwkStatus_2:
        JZ      ??ZDO_UpdateNwkStatus_3
        MOV     DPL,R6
        MOV     DPH,R7
        LCALL   ??Subroutine206_0 & 0xFFFF
??CrossCallReturnLabel_290:
        MOV     DPL,R0
        MOV     DPH,R1
        MOVX    A,@DPTR
        JZ      ??ZDO_UpdateNwkStatus_1
        INC     DPTR
        LCALL   ??Subroutine212_0 & 0xFFFF
??CrossCallReturnLabel_314:
        MOV     ?V0 + 1,A
        ; Setup parameters for call to function osal_msg_find
        MOV     R2,#-0x2f
        MOV     R1,A
        LCALL   ??osal_msg_find?relay
        MOV     A,R2
        JNZ     ??ZDO_UpdateNwkStatus_4
        MOV     A,R3
??ZDO_UpdateNwkStatus_4:
        JNZ     ??ZDO_UpdateNwkStatus_0
        ; Setup parameters for call to function osal_msg_allocate
        MOV     R2,#0x2
        MOV     R3,#0x0
        LCALL   ??osal_msg_allocate?relay
        MOV     A,R2
        JNZ     ??ZDO_UpdateNwkStatus_5
        MOV     A,R3
??ZDO_UpdateNwkStatus_5:
        JNZ     ??ZDO_UpdateNwkStatus_6
        ; Setup parameters for call to function osal_set_event
        MOV     R2,#0x10
        MOV     R3,#0x0
        MOV     DPTR,#ZDAppTaskID
        MOVX    A,@DPTR
        MOV     R1,A
        LCALL   ??osal_set_event?relay
        SJMP    ??ZDO_UpdateNwkStatus_1
??ZDO_UpdateNwkStatus_6:
        MOV     A,#-0x2f
        MOV     DPL,R2
        MOV     DPH,R3
        MOVX    @DPTR,A
        INC     DPTR
        MOV     A,?V0 + 0
        MOVX    @DPTR,A
        ; Setup parameters for call to function osal_msg_send
        MOV     R1,?V0 + 1
        LCALL   ??osal_msg_send?relay
        SJMP    ??ZDO_UpdateNwkStatus_1
??ZDO_UpdateNwkStatus_3:
        ; Setup parameters for call to function NLME_GetShortAddr
        LCALL   ??NLME_GetShortAddr?relay
        MOV     DPTR,#ZDAppNwkAddr
        LCALL   ?Subroutine26 & 0xFFFF
??CrossCallReturnLabel_38:
        ; Setup parameters for call to function NLME_GetExtAddr
        LCALL   ??NLME_GetExtAddr?relay
        SJMP    ??Subroutine192_0
        CFI EndBlock cfiBlock7

        RSEG BANKED_CODE:CODE:NOROOT(0)
?Subroutine167:
        CFI Block cfiBlock8 Using cfiCommon0
        CFI NoFunction
        CFI CFA_SP SP+0
        CFI CFA_XSP16 add(XSP16, 23)
        CFI VB load(1, XDATA, add(CFA_XSP16, literal(-11)))
        CFI DPL0 load(1, XDATA, add(CFA_XSP16, literal(-2)))
        CFI DPH0 load(1, XDATA, add(CFA_XSP16, literal(-1)))
        CFI R6 load(1, XDATA, add(CFA_XSP16, literal(-12)))
        CFI R7 load(1, XDATA, add(CFA_XSP16, literal(-6)))
        CFI V0 load(1, XDATA, add(CFA_XSP16, literal(-10)))
        CFI V1 load(1, XDATA, add(CFA_XSP16, literal(-9)))
        CFI V2 load(1, XDATA, add(CFA_XSP16, literal(-8)))
        CFI V3 load(1, XDATA, add(CFA_XSP16, literal(-7)))
        CFI ?BRET_EXT load(1, XDATA, add(CFA_XSP16, literal(-3)))
        CFI ?RET_HIGH load(1, XDATA, add(CFA_XSP16, literal(-4)))
        CFI ?RET_LOW load(1, XDATA, add(CFA_XSP16, literal(-5)))
        CFI Invalid
        LCALL   ?DEALLOC_XSTACK8
        CFI EndBlock cfiBlock8
        REQUIRE ??Subroutine192_0
        ; // Fall through to label ??Subroutine192_0

        RSEG BANKED_CODE:CODE:NOROOT(0)
??Subroutine192_0:
        CFI Block cfiBlock9 Using cfiCommon0
        CFI NoFunction
        CFI CFA_SP SP+0
        CFI CFA_XSP16 add(XSP16, 12)
        CFI VB load(1, XDATA, add(CFA_XSP16, literal(-11)))
        CFI DPL0 load(1, XDATA, add(CFA_XSP16, literal(-2)))
        CFI DPH0 load(1, XDATA, add(CFA_XSP16, literal(-1)))
        CFI R6 load(1, XDATA, add(CFA_XSP16, literal(-12)))
        CFI R7 load(1, XDATA, add(CFA_XSP16, literal(-6)))
        CFI V0 load(1, XDATA, add(CFA_XSP16, literal(-10)))
        CFI V1 load(1, XDATA, add(CFA_XSP16, literal(-9)))
        CFI V2 load(1, XDATA, add(CFA_XSP16, literal(-8)))
        CFI V3 load(1, XDATA, add(CFA_XSP16, literal(-7)))
        CFI ?BRET_EXT load(1, XDATA, add(CFA_XSP16, literal(-3)))
        CFI ?RET_HIGH load(1, XDATA, add(CFA_XSP16, literal(-4)))
        CFI ?RET_LOW load(1, XDATA, add(CFA_XSP16, literal(-5)))
        MOV     R7,#0x4
        LJMP    ?BANKED_LEAVE_XDATA
        CFI EndBlock cfiBlock9

        RSEG BANKED_CODE:CODE:NOROOT(0)
ZDO_CompareClusterLists:
        CFI Block cfiBlock10 Using cfiCommon0
        CFI Function ZDO_CompareClusterLists
        MOV     A,#-0xf
        LCALL   ?BANKED_ENTER_XDATA
        CFI DPH0 load(1, XDATA, add(CFA_XSP16, literal(-1)))
        CFI DPL0 load(1, XDATA, add(CFA_XSP16, literal(-2)))
        CFI ?BRET_EXT load(1, XDATA, add(CFA_XSP16, literal(-3)))
        CFI ?RET_HIGH load(1, XDATA, add(CFA_XSP16, literal(-4)))
        CFI ?RET_LOW load(1, XDATA, add(CFA_XSP16, literal(-5)))
        CFI R7 load(1, XDATA, add(CFA_XSP16, literal(-6)))
        CFI V6 load(1, XDATA, add(CFA_XSP16, literal(-7)))
        CFI V5 load(1, XDATA, add(CFA_XSP16, literal(-8)))
        CFI V4 load(1, XDATA, add(CFA_XSP16, literal(-9)))
        CFI V3 load(1, XDATA, add(CFA_XSP16, literal(-10)))
        CFI V2 load(1, XDATA, add(CFA_XSP16, literal(-11)))
        CFI V1 load(1, XDATA, add(CFA_XSP16, literal(-12)))
        CFI V0 load(1, XDATA, add(CFA_XSP16, literal(-13)))
        CFI VB load(1, XDATA, add(CFA_XSP16, literal(-14)))
        CFI R6 load(1, XDATA, add(CFA_XSP16, literal(-15)))
        CFI CFA_SP SP+0
        CFI CFA_XSP16 add(XSP16, 15)
        ; Saved register size: 15
        ; Auto size: 0
        MOV     ?V0 + 1,R1
        MOV     ?V0 + 2,R4
        MOV     A,#0xf
        LCALL   ?XSTACK_DISP0_8
        LCALL   ??Subroutine206_0 & 0xFFFF
??CrossCallReturnLabel_291:
        MOV     A,#0x11
        LCALL   ?XSTACK_DISP0_8
        LCALL   ?Subroutine77 & 0xFFFF
??CrossCallReturnLabel_116:
        MOV     ?V0 + 0,#0x0
        MOV     ?V0 + 6,#0x0
        SJMP    ??ZDO_CompareClusterLists_0
??ZDO_CompareClusterLists_1:
        MOV     A,?V0 + 3
        LCALL   ?Subroutine95 & 0xFFFF
??CrossCallReturnLabel_146:
        MOV     ?V0 + 4,A
        INC     DPTR
        MOVX    A,@DPTR
        MOV     ?V0 + 5,A
        MOV     A,?V0 + 6
        CLR     C
        RLC     A
        MOV     R6,A
        CLR     A
        RLC     A
        MOV     R7,A
        MOV     A,R2
        ADD     A,R6
        MOV     DPL,A
        MOV     A,R3
        ADDC    A,R7
        MOV     DPH,A
        MOVX    A,@DPTR
        XRL     A,?V0 + 4
        JNZ     ??ZDO_CompareClusterLists_2
        INC     DPTR
        MOVX    A,@DPTR
        XRL     A,?V0 + 5
??ZDO_CompareClusterLists_2:
        JNZ     ??ZDO_CompareClusterLists_3
        MOV     A,?V0 + 0
        CLR     C
        RLC     A
        MOV     R6,A
        CLR     A
        RLC     A
        MOV     R7,A
        MOV     A,R4
        ADD     A,R6
        MOV     DPL,A
        MOV     A,R5
        ADDC    A,R7
        MOV     DPH,A
        MOV     A,?V0 + 4
        MOVX    @DPTR,A
        INC     DPTR
        MOV     A,?V0 + 5
        MOVX    @DPTR,A
        INC     ?V0 + 0
??ZDO_CompareClusterLists_3:
        INC     ?V0 + 3
??ZDO_CompareClusterLists_4:
        MOV     A,?V0 + 3
        CLR     C
        SUBB    A,?V0 + 2
        JC      ??ZDO_CompareClusterLists_1
        INC     ?V0 + 6
??ZDO_CompareClusterLists_0:
        MOV     A,?V0 + 6
        CLR     C
        SUBB    A,?V0 + 1
        JNC     ??ZDO_CompareClusterLists_5
        MOV     ?V0 + 3,#0x0
        SJMP    ??ZDO_CompareClusterLists_4
??ZDO_CompareClusterLists_5:
        MOV     R1,?V0 + 0
        LJMP    ??Subroutine213_0 & 0xFFFF
        CFI EndBlock cfiBlock10

        RSEG BANKED_CODE:CODE:NOROOT(0)
ZDO_AnyClusterMatches:
        CFI Block cfiBlock11 Using cfiCommon0
        CFI Function ZDO_AnyClusterMatches
        MOV     A,#-0xc
        LCALL   ?BANKED_ENTER_XDATA
        CFI DPH0 load(1, XDATA, add(CFA_XSP16, literal(-1)))
        CFI DPL0 load(1, XDATA, add(CFA_XSP16, literal(-2)))
        CFI ?BRET_EXT load(1, XDATA, add(CFA_XSP16, literal(-3)))
        CFI ?RET_HIGH load(1, XDATA, add(CFA_XSP16, literal(-4)))
        CFI ?RET_LOW load(1, XDATA, add(CFA_XSP16, literal(-5)))
        CFI R7 load(1, XDATA, add(CFA_XSP16, literal(-6)))
        CFI V3 load(1, XDATA, add(CFA_XSP16, literal(-7)))
        CFI V2 load(1, XDATA, add(CFA_XSP16, literal(-8)))
        CFI V1 load(1, XDATA, add(CFA_XSP16, literal(-9)))
        CFI V0 load(1, XDATA, add(CFA_XSP16, literal(-10)))
        CFI VB load(1, XDATA, add(CFA_XSP16, literal(-11)))
        CFI R6 load(1, XDATA, add(CFA_XSP16, literal(-12)))
        CFI CFA_SP SP+0
        CFI CFA_XSP16 add(XSP16, 12)
        ; Saved register size: 12
        ; Auto size: 0
        MOV     A,R1
        MOV     R5,A
        MOV     A,#0xc
        LCALL   ?XSTACK_DISP0_8
        LCALL   ??Subroutine206_0 & 0xFFFF
??CrossCallReturnLabel_292:
        MOV     ?V0 + 3,#0x0
        SJMP    ??ZDO_AnyClusterMatches_0
??ZDO_AnyClusterMatches_1:
        INC     ?V0 + 3
??ZDO_AnyClusterMatches_0:
        MOV     A,?V0 + 3
        CLR     C
        SUBB    A,R5
        JNC     ??ZDO_AnyClusterMatches_2
        MOV     ?V0 + 2,#0x0
        SJMP    ??ZDO_AnyClusterMatches_3
??ZDO_AnyClusterMatches_4:
        INC     ?V0 + 2
??ZDO_AnyClusterMatches_3:
        MOV     A,?V0 + 2
        CLR     C
        SUBB    A,R4
        JNC     ??ZDO_AnyClusterMatches_1
        MOV     A,?V0 + 3
        CLR     C
        RLC     A
        MOV     R6,A
        CLR     A
        RLC     A
        MOV     R7,A
        MOV     A,R2
        ADD     A,R6
        MOV     DPL,A
        MOV     A,R3
        ADDC    A,R7
        MOV     DPH,A
        LCALL   ?Subroutine68 & 0xFFFF
??CrossCallReturnLabel_103:
        MOV     ?V0 + 1,A
        MOV     A,?V0 + 2
        LCALL   ?Subroutine95 & 0xFFFF
??CrossCallReturnLabel_147:
        XRL     A,?V0 + 0
        JNZ     ??ZDO_AnyClusterMatches_5
        INC     DPTR
        MOVX    A,@DPTR
        XRL     A,?V0 + 1
??ZDO_AnyClusterMatches_5:
        JNZ     ??ZDO_AnyClusterMatches_4
        MOV     R1,#0x1
        SJMP    ??ZDO_AnyClusterMatches_6
??ZDO_AnyClusterMatches_2:
        MOV     R1,#0x0
??ZDO_AnyClusterMatches_6:
        LJMP    ??Subroutine192_0 & 0xFFFF
        CFI EndBlock cfiBlock11

        RSEG BANKED_CODE:CODE:NOROOT(0)
?Subroutine95:
        CFI Block cfiCond12 Using cfiCommon0
        CFI NoFunction
        CFI Conditional ??CrossCallReturnLabel_146
        CFI R6 load(1, XDATA, add(CFA_XSP16, literal(-15)))
        CFI VB load(1, XDATA, add(CFA_XSP16, literal(-14)))
        CFI V0 load(1, XDATA, add(CFA_XSP16, literal(-13)))
        CFI V1 load(1, XDATA, add(CFA_XSP16, literal(-12)))
        CFI V2 load(1, XDATA, add(CFA_XSP16, literal(-11)))
        CFI V3 load(1, XDATA, add(CFA_XSP16, literal(-10)))
        CFI V4 load(1, XDATA, add(CFA_XSP16, literal(-9)))
        CFI V5 load(1, XDATA, add(CFA_XSP16, literal(-8)))
        CFI V6 load(1, XDATA, add(CFA_XSP16, literal(-7)))
        CFI R7 load(1, XDATA, add(CFA_XSP16, literal(-6)))
        CFI ?RET_LOW load(1, XDATA, add(CFA_XSP16, literal(-5)))
        CFI ?RET_HIGH load(1, XDATA, add(CFA_XSP16, literal(-4)))
        CFI ?BRET_EXT load(1, XDATA, add(CFA_XSP16, literal(-3)))
        CFI DPL0 load(1, XDATA, add(CFA_XSP16, literal(-2)))
        CFI DPH0 load(1, XDATA, add(CFA_XSP16, literal(-1)))
        CFI CFA_SP SP+0
        CFI CFA_XSP16 add(XSP16, 15)
        CFI Block cfiCond13 Using cfiCommon0
        CFI (cfiCond13) NoFunction
        CFI (cfiCond13) Conditional ??CrossCallReturnLabel_147
        CFI (cfiCond13) R6 load(1, XDATA, add(CFA_XSP16, literal(-12)))
        CFI (cfiCond13) VB load(1, XDATA, add(CFA_XSP16, literal(-11)))
        CFI (cfiCond13) V0 load(1, XDATA, add(CFA_XSP16, literal(-10)))
        CFI (cfiCond13) V1 load(1, XDATA, add(CFA_XSP16, literal(-9)))
        CFI (cfiCond13) V2 load(1, XDATA, add(CFA_XSP16, literal(-8)))
        CFI (cfiCond13) V3 load(1, XDATA, add(CFA_XSP16, literal(-7)))
        CFI (cfiCond13) R7 load(1, XDATA, add(CFA_XSP16, literal(-6)))
        CFI (cfiCond13) ?RET_LOW load(1, XDATA, add(CFA_XSP16, literal(-5)))
        CFI (cfiCond13) ?RET_HIGH load(1, XDATA, add(CFA_XSP16, literal(-4)))
        CFI (cfiCond13) ?BRET_EXT load(1, XDATA, add(CFA_XSP16, literal(-3)))
        CFI (cfiCond13) DPL0 load(1, XDATA, add(CFA_XSP16, literal(-2)))
        CFI (cfiCond13) DPH0 load(1, XDATA, add(CFA_XSP16, literal(-1)))
        CFI (cfiCond13) CFA_SP SP+0
        CFI (cfiCond13) CFA_XSP16 add(XSP16, 12)
        CFI Block cfiPicker14 Using cfiCommon1
        CFI (cfiPicker14) NoFunction
        CFI (cfiPicker14) Picker
        CLR     C
        RLC     A
        MOV     R6,A
        CLR     A
        RLC     A
        MOV     R7,A
        MOV     A,R0
        ADD     A,R6
        MOV     DPL,A
        MOV     A,R1
        ADDC    A,R7
        MOV     DPH,A
        MOVX    A,@DPTR
        RET
        CFI EndBlock cfiCond12
        CFI EndBlock cfiCond13
        CFI EndBlock cfiPicker14

        RSEG BANKED_CODE:CODE:NOROOT(0)
ZDO_ProcessNodeDescReq:
        CFI Block cfiBlock15 Using cfiCommon0
        CFI Function ZDO_ProcessNodeDescReq
        FUNCALL ZDO_ProcessNodeDescReq, ZDP_NodeDescMsg
        LOCFRAME ISTACK, 0, STACK
        LOCFRAME PSTACK, 0, STACK
        LOCFRAME XSTACK, 12, STACK
        LOCFRAME IOVERLAY, 0, STATIC
        LOCFRAME DOVERLAY, 0, STATIC
        ARGFRAME ISTACK, 0, STACK
        ARGFRAME PSTACK, 0, STACK
        ARGFRAME XSTACK, 12, STACK
        ARGFRAME IOVERLAY, 0, STATIC
        ARGFRAME DOVERLAY, 0, STATIC
        FUNCALL ZDO_ProcessNodeDescReq, ZDP_GenericRsp
        LOCFRAME ISTACK, 0, STACK
        LOCFRAME PSTACK, 0, STACK
        LOCFRAME XSTACK, 14, STACK
        LOCFRAME IOVERLAY, 0, STATIC
        LOCFRAME DOVERLAY, 0, STATIC
        ARGFRAME ISTACK, 0, STACK
        ARGFRAME PSTACK, 0, STACK
        ARGFRAME XSTACK, 14, STACK
        ARGFRAME IOVERLAY, 0, STATIC
        ARGFRAME DOVERLAY, 0, STATIC
        MOV     A,#-0xa
        LCALL   ?BANKED_ENTER_XDATA
        CFI DPH0 load(1, XDATA, add(CFA_XSP16, literal(-1)))
        CFI DPL0 load(1, XDATA, add(CFA_XSP16, literal(-2)))
        CFI ?BRET_EXT load(1, XDATA, add(CFA_XSP16, literal(-3)))
        CFI ?RET_HIGH load(1, XDATA, add(CFA_XSP16, literal(-4)))
        CFI ?RET_LOW load(1, XDATA, add(CFA_XSP16, literal(-5)))
        CFI R7 load(1, XDATA, add(CFA_XSP16, literal(-6)))
        CFI V1 load(1, XDATA, add(CFA_XSP16, literal(-7)))
        CFI V0 load(1, XDATA, add(CFA_XSP16, literal(-8)))
        CFI VB load(1, XDATA, add(CFA_XSP16, literal(-9)))
        CFI R6 load(1, XDATA, add(CFA_XSP16, literal(-10)))
        CFI CFA_SP SP+0
        CFI CFA_XSP16 add(XSP16, 10)
        ; Saved register size: 10
        ; Auto size: 0
        LCALL   ?Subroutine50 & 0xFFFF
??CrossCallReturnLabel_88:
        JNZ     ??ZDO_ProcessNodeDescReq_0
        INC     DPTR
        MOVX    A,@DPTR
        XRL     A,R5
??ZDO_ProcessNodeDescReq_0:
        JNZ     ??ZDO_ProcessNodeDescReq_1
        ; Setup parameters for call to function ZDP_NodeDescMsg
        MOV     ?V0 + 0,#(ZDO_Config_Node_Descriptor & 0xff)
        MOV     ?V0 + 1,#((ZDO_Config_Node_Descriptor >> 8) & 0xff)
        MOV     R0,#?V0 + 0
        LCALL   ?PUSH_XSTACK_I_TWO
        CFI CFA_XSP16 add(XSP16, 12)
        MOV     A,R6
        MOV     R2,A
        LCALL   ??ZDP_NodeDescMsg?relay
        MOV     A,#0x2
        LCALL   ?DEALLOC_XSTACK8
        CFI CFA_XSP16 add(XSP16, 10)
        SJMP    ??ZDO_ProcessNodeDescReq_2
??ZDO_ProcessNodeDescReq_1:
        ; Setup parameters for call to function ZDP_GenericRsp
        MOV     ?V0 + 0,#0x2
        MOV     ?V0 + 1,#-0x80
        MOV     R0,#?V0 + 0
        LCALL   ?PUSH_XSTACK_I_TWO
        CFI CFA_XSP16 add(XSP16, 12)
        MOV     ?V0 + 0,R4
        MOV     ?V0 + 1,R5
        MOV     R0,#?V0 + 0
        LCALL   ?PUSH_XSTACK_I_TWO
        CFI CFA_XSP16 add(XSP16, 14)
        LCALL   ?Subroutine46 & 0xFFFF
??CrossCallReturnLabel_86:
        LCALL   ?DEALLOC_XSTACK8
        CFI CFA_XSP16 add(XSP16, 10)
??ZDO_ProcessNodeDescReq_2:
        SJMP    ??Subroutine194_0
        CFI EndBlock cfiBlock15

        RSEG BANKED_CODE:CODE:NOROOT(0)
ZDO_ProcessPowerDescReq:
        CFI Block cfiBlock16 Using cfiCommon0
        CFI Function ZDO_ProcessPowerDescReq
        FUNCALL ZDO_ProcessPowerDescReq, ZDP_PowerDescMsg
        LOCFRAME ISTACK, 0, STACK
        LOCFRAME PSTACK, 0, STACK
        LOCFRAME XSTACK, 12, STACK
        LOCFRAME IOVERLAY, 0, STATIC
        LOCFRAME DOVERLAY, 0, STATIC
        ARGFRAME ISTACK, 0, STACK
        ARGFRAME PSTACK, 0, STACK
        ARGFRAME XSTACK, 12, STACK
        ARGFRAME IOVERLAY, 0, STATIC
        ARGFRAME DOVERLAY, 0, STATIC
        FUNCALL ZDO_ProcessPowerDescReq, ZDP_GenericRsp
        LOCFRAME ISTACK, 0, STACK
        LOCFRAME PSTACK, 0, STACK
        LOCFRAME XSTACK, 14, STACK
        LOCFRAME IOVERLAY, 0, STATIC
        LOCFRAME DOVERLAY, 0, STATIC
        ARGFRAME ISTACK, 0, STACK
        ARGFRAME PSTACK, 0, STACK
        ARGFRAME XSTACK, 14, STACK
        ARGFRAME IOVERLAY, 0, STATIC
        ARGFRAME DOVERLAY, 0, STATIC
        MOV     A,#-0xa
        LCALL   ?BANKED_ENTER_XDATA
        CFI DPH0 load(1, XDATA, add(CFA_XSP16, literal(-1)))
        CFI DPL0 load(1, XDATA, add(CFA_XSP16, literal(-2)))
        CFI ?BRET_EXT load(1, XDATA, add(CFA_XSP16, literal(-3)))
        CFI ?RET_HIGH load(1, XDATA, add(CFA_XSP16, literal(-4)))
        CFI ?RET_LOW load(1, XDATA, add(CFA_XSP16, literal(-5)))
        CFI R7 load(1, XDATA, add(CFA_XSP16, literal(-6)))
        CFI V1 load(1, XDATA, add(CFA_XSP16, literal(-7)))
        CFI V0 load(1, XDATA, add(CFA_XSP16, literal(-8)))
        CFI VB load(1, XDATA, add(CFA_XSP16, literal(-9)))
        CFI R6 load(1, XDATA, add(CFA_XSP16, literal(-10)))
        CFI CFA_SP SP+0
        CFI CFA_XSP16 add(XSP16, 10)
        ; Saved register size: 10
        ; Auto size: 0
        LCALL   ?Subroutine50 & 0xFFFF
??CrossCallReturnLabel_89:
        JNZ     ??ZDO_ProcessPowerDescReq_0
        INC     DPTR
        MOVX    A,@DPTR
        XRL     A,R5
??ZDO_ProcessPowerDescReq_0:
        JNZ     ??ZDO_ProcessPowerDescReq_1
        ; Setup parameters for call to function ZDP_PowerDescMsg
        MOV     ?V0 + 0,#(ZDO_Config_Power_Descriptor & 0xff)
        MOV     ?V0 + 1,#((ZDO_Config_Power_Descriptor >> 8) & 0xff)
        MOV     R0,#?V0 + 0
        LCALL   ?PUSH_XSTACK_I_TWO
        CFI CFA_XSP16 add(XSP16, 12)
        MOV     A,R6
        MOV     R2,A
        LCALL   ??ZDP_PowerDescMsg?relay
        MOV     A,#0x2
        LCALL   ?DEALLOC_XSTACK8
        CFI CFA_XSP16 add(XSP16, 10)
        SJMP    ??ZDO_ProcessPowerDescReq_2
??ZDO_ProcessPowerDescReq_1:
        ; Setup parameters for call to function ZDP_GenericRsp
        MOV     ?V0 + 0,#0x3
        MOV     ?V0 + 1,#-0x80
        MOV     R0,#?V0 + 0
        LCALL   ?PUSH_XSTACK_I_TWO
        CFI CFA_XSP16 add(XSP16, 12)
        MOV     ?V0 + 0,R4
        MOV     ?V0 + 1,R5
        MOV     R0,#?V0 + 0
        LCALL   ?PUSH_XSTACK_I_TWO
        CFI CFA_XSP16 add(XSP16, 14)
        LCALL   ?Subroutine46 & 0xFFFF
??CrossCallReturnLabel_87:
        LCALL   ?DEALLOC_XSTACK8
        CFI CFA_XSP16 add(XSP16, 10)
??ZDO_ProcessPowerDescReq_2:
        SJMP    ??Subroutine194_0
        CFI EndBlock cfiBlock16

        RSEG BANKED_CODE:CODE:NOROOT(0)
?Subroutine182:
        CFI Block cfiBlock17 Using cfiCommon0
        CFI NoFunction
        CFI CFA_SP SP+0
        CFI CFA_XSP16 add(XSP16, 12)
        CFI VB load(1, XDATA, add(CFA_XSP16, literal(-9)))
        CFI DPL0 load(1, XDATA, add(CFA_XSP16, literal(-2)))
        CFI DPH0 load(1, XDATA, add(CFA_XSP16, literal(-1)))
        CFI R6 load(1, XDATA, add(CFA_XSP16, literal(-10)))
        CFI R7 load(1, XDATA, add(CFA_XSP16, literal(-6)))
        CFI V0 load(1, XDATA, add(CFA_XSP16, literal(-8)))
        CFI V1 load(1, XDATA, add(CFA_XSP16, literal(-7)))
        CFI ?BRET_EXT load(1, XDATA, add(CFA_XSP16, literal(-3)))
        CFI ?RET_HIGH load(1, XDATA, add(CFA_XSP16, literal(-4)))
        CFI ?RET_LOW load(1, XDATA, add(CFA_XSP16, literal(-5)))
        MOV     A,#0x2
        CFI EndBlock cfiBlock17
        REQUIRE ??Subroutine193_0
        ; // Fall through to label ??Subroutine193_0

        RSEG BANKED_CODE:CODE:NOROOT(0)
??Subroutine193_0:
        CFI Block cfiBlock18 Using cfiCommon0
        CFI NoFunction
        CFI CFA_SP SP+0
        CFI CFA_XSP16 add(XSP16, 11)
        CFI VB load(1, XDATA, add(CFA_XSP16, literal(-9)))
        CFI DPL0 load(1, XDATA, add(CFA_XSP16, literal(-2)))
        CFI DPH0 load(1, XDATA, add(CFA_XSP16, literal(-1)))
        CFI R6 load(1, XDATA, add(CFA_XSP16, literal(-10)))
        CFI R7 load(1, XDATA, add(CFA_XSP16, literal(-6)))
        CFI V0 load(1, XDATA, add(CFA_XSP16, literal(-8)))
        CFI V1 load(1, XDATA, add(CFA_XSP16, literal(-7)))
        CFI ?BRET_EXT load(1, XDATA, add(CFA_XSP16, literal(-3)))
        CFI ?RET_HIGH load(1, XDATA, add(CFA_XSP16, literal(-4)))
        CFI ?RET_LOW load(1, XDATA, add(CFA_XSP16, literal(-5)))
        CFI Invalid
        LCALL   ?DEALLOC_XSTACK8
        CFI EndBlock cfiBlock18
        REQUIRE ??Subroutine194_0
        ; // Fall through to label ??Subroutine194_0

        RSEG BANKED_CODE:CODE:NOROOT(0)
??Subroutine194_0:
        CFI Block cfiBlock19 Using cfiCommon0
        CFI NoFunction
        CFI CFA_SP SP+0
        CFI CFA_XSP16 add(XSP16, 10)
        CFI VB load(1, XDATA, add(CFA_XSP16, literal(-9)))
        CFI DPL0 load(1, XDATA, add(CFA_XSP16, literal(-2)))
        CFI DPH0 load(1, XDATA, add(CFA_XSP16, literal(-1)))
        CFI R6 load(1, XDATA, add(CFA_XSP16, literal(-10)))
        CFI R7 load(1, XDATA, add(CFA_XSP16, literal(-6)))
        CFI V0 load(1, XDATA, add(CFA_XSP16, literal(-8)))
        CFI V1 load(1, XDATA, add(CFA_XSP16, literal(-7)))
        CFI ?BRET_EXT load(1, XDATA, add(CFA_XSP16, literal(-3)))
        CFI ?RET_HIGH load(1, XDATA, add(CFA_XSP16, literal(-4)))
        CFI ?RET_LOW load(1, XDATA, add(CFA_XSP16, literal(-5)))
        MOV     R7,#0x2
        LJMP    ?BANKED_LEAVE_XDATA
        CFI EndBlock cfiBlock19

        RSEG BANKED_CODE:CODE:NOROOT(0)
?Subroutine50:
        CFI Block cfiCond20 Using cfiCommon0
        CFI NoFunction
        CFI Conditional ??CrossCallReturnLabel_88
        CFI R6 load(1, XDATA, add(CFA_XSP16, literal(-10)))
        CFI VB load(1, XDATA, add(CFA_XSP16, literal(-9)))
        CFI V0 load(1, XDATA, add(CFA_XSP16, literal(-8)))
        CFI V1 load(1, XDATA, add(CFA_XSP16, literal(-7)))
        CFI R7 load(1, XDATA, add(CFA_XSP16, literal(-6)))
        CFI ?RET_LOW load(1, XDATA, add(CFA_XSP16, literal(-5)))
        CFI ?RET_HIGH load(1, XDATA, add(CFA_XSP16, literal(-4)))
        CFI ?BRET_EXT load(1, XDATA, add(CFA_XSP16, literal(-3)))
        CFI DPL0 load(1, XDATA, add(CFA_XSP16, literal(-2)))
        CFI DPH0 load(1, XDATA, add(CFA_XSP16, literal(-1)))
        CFI CFA_SP SP+0
        CFI CFA_XSP16 add(XSP16, 10)
        CFI Block cfiCond21 Using cfiCommon0
        CFI (cfiCond21) NoFunction
        CFI (cfiCond21) Conditional ??CrossCallReturnLabel_89
        CFI (cfiCond21) R6 load(1, XDATA, add(CFA_XSP16, literal(-10)))
        CFI (cfiCond21) VB load(1, XDATA, add(CFA_XSP16, literal(-9)))
        CFI (cfiCond21) V0 load(1, XDATA, add(CFA_XSP16, literal(-8)))
        CFI (cfiCond21) V1 load(1, XDATA, add(CFA_XSP16, literal(-7)))
        CFI (cfiCond21) R7 load(1, XDATA, add(CFA_XSP16, literal(-6)))
        CFI (cfiCond21) ?RET_LOW load(1, XDATA, add(CFA_XSP16, literal(-5)))
        CFI (cfiCond21) ?RET_HIGH load(1, XDATA, add(CFA_XSP16, literal(-4)))
        CFI (cfiCond21) ?BRET_EXT load(1, XDATA, add(CFA_XSP16, literal(-3)))
        CFI (cfiCond21) DPL0 load(1, XDATA, add(CFA_XSP16, literal(-2)))
        CFI (cfiCond21) DPH0 load(1, XDATA, add(CFA_XSP16, literal(-1)))
        CFI (cfiCond21) CFA_SP SP+0
        CFI (cfiCond21) CFA_XSP16 add(XSP16, 10)
        CFI Block cfiPicker22 Using cfiCommon1
        CFI (cfiPicker22) NoFunction
        CFI (cfiPicker22) Picker
        MOV     A,R2
        MOV     R6,A
        MOV     A,R3
        MOV     R7,A
        LCALL   ?Subroutine130 & 0xFFFF
??CrossCallReturnLabel_549:
        MOV     R4,A
        MOV     A,R1
        MOV     R5,A
        MOV     DPTR,#ZDAppNwkAddr
        MOVX    A,@DPTR
        XRL     A,R4
        RET
        CFI EndBlock cfiCond20
        CFI EndBlock cfiCond21
        CFI EndBlock cfiPicker22

        RSEG BANKED_CODE:CODE:NOROOT(0)
?Subroutine46:
        CFI Block cfiCond23 Using cfiCommon0
        CFI NoFunction
        CFI Conditional ??CrossCallReturnLabel_86
        CFI R6 load(1, XDATA, add(CFA_XSP16, literal(-10)))
        CFI VB load(1, XDATA, add(CFA_XSP16, literal(-9)))
        CFI V0 load(1, XDATA, add(CFA_XSP16, literal(-8)))
        CFI V1 load(1, XDATA, add(CFA_XSP16, literal(-7)))
        CFI R7 load(1, XDATA, add(CFA_XSP16, literal(-6)))
        CFI ?RET_LOW load(1, XDATA, add(CFA_XSP16, literal(-5)))
        CFI ?RET_HIGH load(1, XDATA, add(CFA_XSP16, literal(-4)))
        CFI ?BRET_EXT load(1, XDATA, add(CFA_XSP16, literal(-3)))
        CFI DPL0 load(1, XDATA, add(CFA_XSP16, literal(-2)))
        CFI DPH0 load(1, XDATA, add(CFA_XSP16, literal(-1)))
        CFI CFA_SP SP+0
        CFI CFA_XSP16 add(XSP16, 14)
        CFI Block cfiCond24 Using cfiCommon0
        CFI (cfiCond24) NoFunction
        CFI (cfiCond24) Conditional ??CrossCallReturnLabel_87
        CFI (cfiCond24) R6 load(1, XDATA, add(CFA_XSP16, literal(-10)))
        CFI (cfiCond24) VB load(1, XDATA, add(CFA_XSP16, literal(-9)))
        CFI (cfiCond24) V0 load(1, XDATA, add(CFA_XSP16, literal(-8)))
        CFI (cfiCond24) V1 load(1, XDATA, add(CFA_XSP16, literal(-7)))
        CFI (cfiCond24) R7 load(1, XDATA, add(CFA_XSP16, literal(-6)))
        CFI (cfiCond24) ?RET_LOW load(1, XDATA, add(CFA_XSP16, literal(-5)))
        CFI (cfiCond24) ?RET_HIGH load(1, XDATA, add(CFA_XSP16, literal(-4)))
        CFI (cfiCond24) ?BRET_EXT load(1, XDATA, add(CFA_XSP16, literal(-3)))
        CFI (cfiCond24) DPL0 load(1, XDATA, add(CFA_XSP16, literal(-2)))
        CFI (cfiCond24) DPH0 load(1, XDATA, add(CFA_XSP16, literal(-1)))
        CFI (cfiCond24) CFA_SP SP+0
        CFI (cfiCond24) CFA_XSP16 add(XSP16, 14)
        CFI Block cfiPicker25 Using cfiCommon1
        CFI (cfiPicker25) NoFunction
        CFI (cfiPicker25) Picker
        LCALL   ?Subroutine147 & 0xFFFF
??CrossCallReturnLabel_202:
        LCALL   ?Subroutine142 & 0xFFFF
??CrossCallReturnLabel_253:
        MOV     R5,A
        MOV     R4,#-0x80
        LCALL   ?Subroutine145 & 0xFFFF
??CrossCallReturnLabel_196:
        MOV     A,R6
        ADD     A,#0xf
        MOV     DPL,A
        MOV     A,R7
        LCALL   ?Subroutine141 & 0xFFFF
??CrossCallReturnLabel_373:
        LCALL   ??ZDP_GenericRsp?relay
        MOV     A,#0x4
        RET
        CFI EndBlock cfiCond23
        CFI EndBlock cfiCond24
        CFI EndBlock cfiPicker25

        RSEG BANKED_CODE:CODE:NOROOT(0)
ZDO_ProcessSimpleDescReq:
        CFI Block cfiBlock26 Using cfiCommon0
        CFI Function ZDO_ProcessSimpleDescReq
        FUNCALL ZDO_ProcessSimpleDescReq, afFindSimpleDesc
        LOCFRAME ISTACK, 0, STACK
        LOCFRAME PSTACK, 0, STACK
        LOCFRAME XSTACK, 12, STACK
        LOCFRAME IOVERLAY, 0, STATIC
        LOCFRAME DOVERLAY, 0, STATIC
        ARGFRAME ISTACK, 0, STACK
        ARGFRAME PSTACK, 0, STACK
        ARGFRAME XSTACK, 12, STACK
        ARGFRAME IOVERLAY, 0, STATIC
        ARGFRAME DOVERLAY, 0, STATIC
        FUNCALL ZDO_ProcessSimpleDescReq, ZDP_SimpleDescMsg
        LOCFRAME ISTACK, 0, STACK
        LOCFRAME PSTACK, 0, STACK
        LOCFRAME XSTACK, 12, STACK
        LOCFRAME IOVERLAY, 0, STATIC
        LOCFRAME DOVERLAY, 0, STATIC
        ARGFRAME ISTACK, 0, STACK
        ARGFRAME PSTACK, 0, STACK
        ARGFRAME XSTACK, 12, STACK
        ARGFRAME IOVERLAY, 0, STATIC
        ARGFRAME DOVERLAY, 0, STATIC
        FUNCALL ZDO_ProcessSimpleDescReq, osal_mem_free
        LOCFRAME ISTACK, 0, STACK
        LOCFRAME PSTACK, 0, STACK
        LOCFRAME XSTACK, 12, STACK
        LOCFRAME IOVERLAY, 0, STATIC
        LOCFRAME DOVERLAY, 0, STATIC
        ARGFRAME ISTACK, 0, STACK
        ARGFRAME PSTACK, 0, STACK
        ARGFRAME XSTACK, 12, STACK
        ARGFRAME IOVERLAY, 0, STATIC
        ARGFRAME DOVERLAY, 0, STATIC
        MOV     A,#-0xa
        LCALL   ?BANKED_ENTER_XDATA
        CFI DPH0 load(1, XDATA, add(CFA_XSP16, literal(-1)))
        CFI DPL0 load(1, XDATA, add(CFA_XSP16, literal(-2)))
        CFI ?BRET_EXT load(1, XDATA, add(CFA_XSP16, literal(-3)))
        CFI ?RET_HIGH load(1, XDATA, add(CFA_XSP16, literal(-4)))
        CFI ?RET_LOW load(1, XDATA, add(CFA_XSP16, literal(-5)))
        CFI R7 load(1, XDATA, add(CFA_XSP16, literal(-6)))
        CFI V1 load(1, XDATA, add(CFA_XSP16, literal(-7)))
        CFI V0 load(1, XDATA, add(CFA_XSP16, literal(-8)))
        CFI VB load(1, XDATA, add(CFA_XSP16, literal(-9)))
        CFI R6 load(1, XDATA, add(CFA_XSP16, literal(-10)))
        CFI CFA_SP SP+0
        CFI CFA_XSP16 add(XSP16, 10)
        ; Saved register size: 10
        ; Auto size: 2
        MOV     A,#-0x2
        LCALL   ?ALLOC_XSTACK8
        CFI CFA_XSP16 add(XSP16, 12)
        MOV     A,R2
        MOV     R6,A
        MOV     A,R3
        MOV     R7,A
        MOV     DPL,?XSP + 0
        MOV     DPH,?XSP + 1
        CLR     A
        MOVX    @DPTR,A
        INC     DPTR
        MOVX    @DPTR,A
        LCALL   ?Subroutine60 & 0xFFFF
??CrossCallReturnLabel_93:
        MOV     R2,A
        MOV     DPL,R0
        MOV     DPH,R1
        INC     DPTR
        INC     DPTR
        MOVX    A,@DPTR
        MOV     R1,A
        MOV     ?V0 + 0,#0x0
        MOV     ?V0 + 1,#0x0
        JZ      ??ZDO_ProcessSimpleDescReq_0
        SUBB    A,#-0xf
        JC      ??ZDO_ProcessSimpleDescReq_1
??ZDO_ProcessSimpleDescReq_0:
        MOV     ?V0 + 1,#-0x7e
        SJMP    ??ZDO_ProcessSimpleDescReq_2
??ZDO_ProcessSimpleDescReq_1:
        MOV     DPTR,#ZDAppNwkAddr
        MOVX    A,@DPTR
        XRL     A,R2
        JNZ     ??ZDO_ProcessSimpleDescReq_3
        INC     DPTR
        MOVX    A,@DPTR
        XRL     A,R3
??ZDO_ProcessSimpleDescReq_3:
        JNZ     ??ZDO_ProcessSimpleDescReq_4
        ; Setup parameters for call to function afFindSimpleDesc
        MOV     DPL,?XSP + 0
        MOV     DPH,?XSP + 1
        MOV     R2,DPL
        MOV     R3,DPH
        LCALL   ??afFindSimpleDesc?relay
        MOV     A,R1
        MOV     ?V0 + 0,A
        MOV     DPL,?XSP + 0
        MOV     DPH,?XSP + 1
        MOVX    A,@DPTR
        JNZ     ??ZDO_ProcessSimpleDescReq_5
        INC     DPTR
        MOVX    A,@DPTR
??ZDO_ProcessSimpleDescReq_5:
        JNZ     ??ZDO_ProcessSimpleDescReq_2
        MOV     ?V0 + 1,#-0x7d
        SJMP    ??ZDO_ProcessSimpleDescReq_2
??ZDO_ProcessSimpleDescReq_4:
        MOV     ?V0 + 1,#-0x7f
??ZDO_ProcessSimpleDescReq_2:
        ; Setup parameters for call to function ZDP_SimpleDescMsg
        MOV     DPL,?XSP + 0
        MOV     DPH,?XSP + 1
        LCALL   ?Subroutine77 & 0xFFFF
??CrossCallReturnLabel_117:
        MOV     R1,?V0 + 1
        MOV     A,R6
        MOV     R2,A
        MOV     A,R7
        MOV     R3,A
        LCALL   ??ZDP_SimpleDescMsg?relay
        MOV     A,?V0 + 0
        JZ      ??CrossCallReturnLabel_357
        MOV     DPL,?XSP + 0
        MOV     DPH,?XSP + 1
        MOVX    A,@DPTR
        JNZ     ??ZDO_ProcessSimpleDescReq_6
        INC     DPTR
        MOVX    A,@DPTR
??ZDO_ProcessSimpleDescReq_6:
        JZ      ??CrossCallReturnLabel_357
        ; Setup parameters for call to function osal_mem_free
        LCALL   ?Subroutine49 & 0xFFFF
??CrossCallReturnLabel_357:
        LJMP    ?Subroutine182 & 0xFFFF
        CFI EndBlock cfiBlock26

        RSEG BANKED_CODE:CODE:NOROOT(0)
?Subroutine77:
        CFI Block cfiCond27 Using cfiCommon0
        CFI NoFunction
        CFI Conditional ??CrossCallReturnLabel_116
        CFI R6 load(1, XDATA, add(CFA_XSP16, literal(-15)))
        CFI VB load(1, XDATA, add(CFA_XSP16, literal(-14)))
        CFI V0 load(1, XDATA, add(CFA_XSP16, literal(-13)))
        CFI V1 load(1, XDATA, add(CFA_XSP16, literal(-12)))
        CFI V2 load(1, XDATA, add(CFA_XSP16, literal(-11)))
        CFI V3 load(1, XDATA, add(CFA_XSP16, literal(-10)))
        CFI V4 load(1, XDATA, add(CFA_XSP16, literal(-9)))
        CFI V5 load(1, XDATA, add(CFA_XSP16, literal(-8)))
        CFI V6 load(1, XDATA, add(CFA_XSP16, literal(-7)))
        CFI R7 load(1, XDATA, add(CFA_XSP16, literal(-6)))
        CFI ?RET_LOW load(1, XDATA, add(CFA_XSP16, literal(-5)))
        CFI ?RET_HIGH load(1, XDATA, add(CFA_XSP16, literal(-4)))
        CFI ?BRET_EXT load(1, XDATA, add(CFA_XSP16, literal(-3)))
        CFI DPL0 load(1, XDATA, add(CFA_XSP16, literal(-2)))
        CFI DPH0 load(1, XDATA, add(CFA_XSP16, literal(-1)))
        CFI CFA_SP SP+0
        CFI CFA_XSP16 add(XSP16, 15)
        CFI Block cfiCond28 Using cfiCommon0
        CFI (cfiCond28) NoFunction
        CFI (cfiCond28) Conditional ??CrossCallReturnLabel_117
        CFI (cfiCond28) R6 load(1, XDATA, add(CFA_XSP16, literal(-10)))
        CFI (cfiCond28) VB load(1, XDATA, add(CFA_XSP16, literal(-9)))
        CFI (cfiCond28) V0 load(1, XDATA, add(CFA_XSP16, literal(-8)))
        CFI (cfiCond28) V1 load(1, XDATA, add(CFA_XSP16, literal(-7)))
        CFI (cfiCond28) R7 load(1, XDATA, add(CFA_XSP16, literal(-6)))
        CFI (cfiCond28) ?RET_LOW load(1, XDATA, add(CFA_XSP16, literal(-5)))
        CFI (cfiCond28) ?RET_HIGH load(1, XDATA, add(CFA_XSP16, literal(-4)))
        CFI (cfiCond28) ?BRET_EXT load(1, XDATA, add(CFA_XSP16, literal(-3)))
        CFI (cfiCond28) DPL0 load(1, XDATA, add(CFA_XSP16, literal(-2)))
        CFI (cfiCond28) DPH0 load(1, XDATA, add(CFA_XSP16, literal(-1)))
        CFI (cfiCond28) CFA_SP SP+0
        CFI (cfiCond28) CFA_XSP16 add(XSP16, 12)
        CFI Block cfiCond29 Using cfiCommon0
        CFI (cfiCond29) NoFunction
        CFI (cfiCond29) Conditional ??CrossCallReturnLabel_118
        CFI (cfiCond29) R6 load(1, XDATA, add(CFA_XSP16, literal(-16)))
        CFI (cfiCond29) VB load(1, XDATA, add(CFA_XSP16, literal(-15)))
        CFI (cfiCond29) V0 load(1, XDATA, add(CFA_XSP16, literal(-14)))
        CFI (cfiCond29) V1 load(1, XDATA, add(CFA_XSP16, literal(-13)))
        CFI (cfiCond29) V2 load(1, XDATA, add(CFA_XSP16, literal(-12)))
        CFI (cfiCond29) V3 load(1, XDATA, add(CFA_XSP16, literal(-11)))
        CFI (cfiCond29) V4 load(1, XDATA, add(CFA_XSP16, literal(-10)))
        CFI (cfiCond29) V5 load(1, XDATA, add(CFA_XSP16, literal(-9)))
        CFI (cfiCond29) V6 load(1, XDATA, add(CFA_XSP16, literal(-8)))
        CFI (cfiCond29) V7 load(1, XDATA, add(CFA_XSP16, literal(-7)))
        CFI (cfiCond29) R7 load(1, XDATA, add(CFA_XSP16, literal(-6)))
        CFI (cfiCond29) ?RET_LOW load(1, XDATA, add(CFA_XSP16, literal(-5)))
        CFI (cfiCond29) ?RET_HIGH load(1, XDATA, add(CFA_XSP16, literal(-4)))
        CFI (cfiCond29) ?BRET_EXT load(1, XDATA, add(CFA_XSP16, literal(-3)))
        CFI (cfiCond29) DPL0 load(1, XDATA, add(CFA_XSP16, literal(-2)))
        CFI (cfiCond29) DPH0 load(1, XDATA, add(CFA_XSP16, literal(-1)))
        CFI (cfiCond29) CFA_SP SP+0
        CFI (cfiCond29) CFA_XSP16 add(XSP16, 16)
        CFI Block cfiCond30 Using cfiCommon0
        CFI (cfiCond30) NoFunction
        CFI (cfiCond30) Conditional ??CrossCallReturnLabel_119
        CFI (cfiCond30) R6 load(1, XDATA, add(CFA_XSP16, literal(-16)))
        CFI (cfiCond30) VB load(1, XDATA, add(CFA_XSP16, literal(-15)))
        CFI (cfiCond30) V0 load(1, XDATA, add(CFA_XSP16, literal(-14)))
        CFI (cfiCond30) V1 load(1, XDATA, add(CFA_XSP16, literal(-13)))
        CFI (cfiCond30) V2 load(1, XDATA, add(CFA_XSP16, literal(-12)))
        CFI (cfiCond30) V3 load(1, XDATA, add(CFA_XSP16, literal(-11)))
        CFI (cfiCond30) V4 load(1, XDATA, add(CFA_XSP16, literal(-10)))
        CFI (cfiCond30) V5 load(1, XDATA, add(CFA_XSP16, literal(-9)))
        CFI (cfiCond30) V6 load(1, XDATA, add(CFA_XSP16, literal(-8)))
        CFI (cfiCond30) V7 load(1, XDATA, add(CFA_XSP16, literal(-7)))
        CFI (cfiCond30) R7 load(1, XDATA, add(CFA_XSP16, literal(-6)))
        CFI (cfiCond30) ?RET_LOW load(1, XDATA, add(CFA_XSP16, literal(-5)))
        CFI (cfiCond30) ?RET_HIGH load(1, XDATA, add(CFA_XSP16, literal(-4)))
        CFI (cfiCond30) ?BRET_EXT load(1, XDATA, add(CFA_XSP16, literal(-3)))
        CFI (cfiCond30) DPL0 load(1, XDATA, add(CFA_XSP16, literal(-2)))
        CFI (cfiCond30) DPH0 load(1, XDATA, add(CFA_XSP16, literal(-1)))
        CFI (cfiCond30) CFA_SP SP+0
        CFI (cfiCond30) CFA_XSP16 add(XSP16, 16)
        CFI Block cfiPicker31 Using cfiCommon1
        CFI (cfiPicker31) NoFunction
        CFI (cfiPicker31) Picker
        MOVX    A,@DPTR
        MOV     R4,A
        INC     DPTR
        MOVX    A,@DPTR
        MOV     R5,A
        RET
        CFI EndBlock cfiCond27
        CFI EndBlock cfiCond28
        CFI EndBlock cfiCond29
        CFI EndBlock cfiCond30
        CFI EndBlock cfiPicker31

        RSEG BANKED_CODE:CODE:NOROOT(0)
ZDO_ProcessActiveEPReq:
        CFI Block cfiBlock32 Using cfiCommon0
        CFI Function ZDO_ProcessActiveEPReq
        FUNCALL ZDO_ProcessActiveEPReq, NLME_GetShortAddr
        LOCFRAME ISTACK, 0, STACK
        LOCFRAME PSTACK, 0, STACK
        LOCFRAME XSTACK, 14, STACK
        LOCFRAME IOVERLAY, 0, STATIC
        LOCFRAME DOVERLAY, 0, STATIC
        ARGFRAME ISTACK, 0, STACK
        ARGFRAME PSTACK, 0, STACK
        ARGFRAME XSTACK, 14, STACK
        ARGFRAME IOVERLAY, 0, STATIC
        ARGFRAME DOVERLAY, 0, STATIC
        FUNCALL ZDO_ProcessActiveEPReq, afNumEndPoints
        LOCFRAME ISTACK, 0, STACK
        LOCFRAME PSTACK, 0, STACK
        LOCFRAME XSTACK, 14, STACK
        LOCFRAME IOVERLAY, 0, STATIC
        LOCFRAME DOVERLAY, 0, STATIC
        ARGFRAME ISTACK, 0, STACK
        ARGFRAME PSTACK, 0, STACK
        ARGFRAME XSTACK, 14, STACK
        ARGFRAME IOVERLAY, 0, STATIC
        ARGFRAME DOVERLAY, 0, STATIC
        FUNCALL ZDO_ProcessActiveEPReq, afEndPoints
        LOCFRAME ISTACK, 0, STACK
        LOCFRAME PSTACK, 0, STACK
        LOCFRAME XSTACK, 14, STACK
        LOCFRAME IOVERLAY, 0, STATIC
        LOCFRAME DOVERLAY, 0, STATIC
        ARGFRAME ISTACK, 0, STACK
        ARGFRAME PSTACK, 0, STACK
        ARGFRAME XSTACK, 14, STACK
        ARGFRAME IOVERLAY, 0, STATIC
        ARGFRAME DOVERLAY, 0, STATIC
        FUNCALL ZDO_ProcessActiveEPReq, ZDP_EPRsp
        LOCFRAME ISTACK, 0, STACK
        LOCFRAME PSTACK, 0, STACK
        LOCFRAME XSTACK, 21, STACK
        LOCFRAME IOVERLAY, 0, STATIC
        LOCFRAME DOVERLAY, 0, STATIC
        ARGFRAME ISTACK, 0, STACK
        ARGFRAME PSTACK, 0, STACK
        ARGFRAME XSTACK, 21, STACK
        ARGFRAME IOVERLAY, 0, STATIC
        ARGFRAME DOVERLAY, 0, STATIC
        MOV     A,#-0xe
        LCALL   ?BANKED_ENTER_XDATA
        CFI DPH0 load(1, XDATA, add(CFA_XSP16, literal(-1)))
        CFI DPL0 load(1, XDATA, add(CFA_XSP16, literal(-2)))
        CFI ?BRET_EXT load(1, XDATA, add(CFA_XSP16, literal(-3)))
        CFI ?RET_HIGH load(1, XDATA, add(CFA_XSP16, literal(-4)))
        CFI ?RET_LOW load(1, XDATA, add(CFA_XSP16, literal(-5)))
        CFI R7 load(1, XDATA, add(CFA_XSP16, literal(-6)))
        CFI V5 load(1, XDATA, add(CFA_XSP16, literal(-7)))
        CFI V4 load(1, XDATA, add(CFA_XSP16, literal(-8)))
        CFI V3 load(1, XDATA, add(CFA_XSP16, literal(-9)))
        CFI V2 load(1, XDATA, add(CFA_XSP16, literal(-10)))
        CFI V1 load(1, XDATA, add(CFA_XSP16, literal(-11)))
        CFI V0 load(1, XDATA, add(CFA_XSP16, literal(-12)))
        CFI VB load(1, XDATA, add(CFA_XSP16, literal(-13)))
        CFI R6 load(1, XDATA, add(CFA_XSP16, literal(-14)))
        CFI CFA_SP SP+0
        CFI CFA_XSP16 add(XSP16, 14)
        ; Saved register size: 14
        ; Auto size: 0
        MOV     A,R2
        MOV     R6,A
        MOV     A,R3
        MOV     R7,A
        MOV     ?V0 + 2,#0x0
        MOV     ?V0 + 3,#0x0
        LCALL   ??Subroutine199_0 & 0xFFFF
??CrossCallReturnLabel_270:
        MOV     ?V0 + 0,A
        MOV     A,R1
        MOV     ?V0 + 1,A
        ; Setup parameters for call to function NLME_GetShortAddr
        LCALL   ??NLME_GetShortAddr?relay
        MOV     A,R2
        XRL     A,?V0 + 0
        JNZ     ??ZDO_ProcessActiveEPReq_0
        MOV     A,R3
        XRL     A,?V0 + 1
??ZDO_ProcessActiveEPReq_0:
        JNZ     ??ZDO_ProcessActiveEPReq_1
        ; Setup parameters for call to function afNumEndPoints
        LCALL   ??afNumEndPoints?relay
        MOV     A,R1
        DEC     A
        MOV     ?V0 + 2,A
        ; Setup parameters for call to function afEndPoints
        MOV     R1,#0x1
        MOV     R2,#(ZDOBuildBuf & 0xff)
        MOV     R3,#((ZDOBuildBuf >> 8) & 0xff)
        LCALL   ??afEndPoints?relay
        SJMP    ??ZDO_ProcessActiveEPReq_2
??ZDO_ProcessActiveEPReq_1:
        MOV     ?V0 + 3,#-0x80
??ZDO_ProcessActiveEPReq_2:
        ; Setup parameters for call to function ZDP_EPRsp
        LCALL   ?Subroutine104 & 0xFFFF
??CrossCallReturnLabel_250:
        MOV     ?V0 + 4,A
        MOV     R0,#?V0 + 4
        LCALL   ?PUSH_XSTACK_I_ONE
        CFI CFA_XSP16 add(XSP16, 15)
        MOV     ?V0 + 4,#(ZDOBuildBuf & 0xff)
        MOV     ?V0 + 5,#((ZDOBuildBuf >> 8) & 0xff)
        MOV     R0,#?V0 + 4
        LCALL   ?PUSH_XSTACK_I_TWO
        CFI CFA_XSP16 add(XSP16, 17)
        MOV     R0,#?V0 + 2
        LCALL   ?PUSH_XSTACK_I_ONE
        CFI CFA_XSP16 add(XSP16, 18)
        MOV     R0,#?V0 + 0
        LCALL   ?PUSH_XSTACK_I_TWO
        CFI CFA_XSP16 add(XSP16, 20)
        MOV     A,?V0 + 3
        MOV     ?V0 + 0,A
        MOV     R0,#?V0 + 0
        LCALL   ?PUSH_XSTACK_I_ONE
        CFI CFA_XSP16 add(XSP16, 21)
        LCALL   ?Subroutine146 & 0xFFFF
??CrossCallReturnLabel_197:
        LCALL   ?Subroutine97 & 0xFFFF
??CrossCallReturnLabel_371:
        MOV     R2,#0x5
        MOV     R3,#-0x80
        LCALL   ??ZDP_EPRsp?relay
        MOV     A,#0x7
        LCALL   ?DEALLOC_XSTACK8
        CFI EndBlock cfiBlock32
        REQUIRE ?Subroutine183
        ; // Fall through to label ?Subroutine183

        RSEG BANKED_CODE:CODE:NOROOT(0)
?Subroutine183:
        CFI Block cfiBlock33 Using cfiCommon0
        CFI NoFunction
        CFI CFA_SP SP+0
        CFI CFA_XSP16 add(XSP16, 14)
        CFI VB load(1, XDATA, add(CFA_XSP16, literal(-13)))
        CFI DPL0 load(1, XDATA, add(CFA_XSP16, literal(-2)))
        CFI DPH0 load(1, XDATA, add(CFA_XSP16, literal(-1)))
        CFI R6 load(1, XDATA, add(CFA_XSP16, literal(-14)))
        CFI R7 load(1, XDATA, add(CFA_XSP16, literal(-6)))
        CFI V0 load(1, XDATA, add(CFA_XSP16, literal(-12)))
        CFI V1 load(1, XDATA, add(CFA_XSP16, literal(-11)))
        CFI V2 load(1, XDATA, add(CFA_XSP16, literal(-10)))
        CFI V3 load(1, XDATA, add(CFA_XSP16, literal(-9)))
        CFI V4 load(1, XDATA, add(CFA_XSP16, literal(-8)))
        CFI V5 load(1, XDATA, add(CFA_XSP16, literal(-7)))
        CFI ?BRET_EXT load(1, XDATA, add(CFA_XSP16, literal(-3)))
        CFI ?RET_HIGH load(1, XDATA, add(CFA_XSP16, literal(-4)))
        CFI ?RET_LOW load(1, XDATA, add(CFA_XSP16, literal(-5)))
        MOV     R7,#0x6
        LJMP    ?BANKED_LEAVE_XDATA
        CFI EndBlock cfiBlock33

        RSEG BANKED_CODE:CODE:NOROOT(0)
?Subroutine104:
        CFI Block cfiCond34 Using cfiCommon0
        CFI NoFunction
        CFI Conditional ??CrossCallReturnLabel_250
        CFI R6 load(1, XDATA, add(CFA_XSP16, literal(-14)))
        CFI VB load(1, XDATA, add(CFA_XSP16, literal(-13)))
        CFI V0 load(1, XDATA, add(CFA_XSP16, literal(-12)))
        CFI V1 load(1, XDATA, add(CFA_XSP16, literal(-11)))
        CFI V2 load(1, XDATA, add(CFA_XSP16, literal(-10)))
        CFI V3 load(1, XDATA, add(CFA_XSP16, literal(-9)))
        CFI V4 load(1, XDATA, add(CFA_XSP16, literal(-8)))
        CFI V5 load(1, XDATA, add(CFA_XSP16, literal(-7)))
        CFI R7 load(1, XDATA, add(CFA_XSP16, literal(-6)))
        CFI ?RET_LOW load(1, XDATA, add(CFA_XSP16, literal(-5)))
        CFI ?RET_HIGH load(1, XDATA, add(CFA_XSP16, literal(-4)))
        CFI ?BRET_EXT load(1, XDATA, add(CFA_XSP16, literal(-3)))
        CFI DPL0 load(1, XDATA, add(CFA_XSP16, literal(-2)))
        CFI DPH0 load(1, XDATA, add(CFA_XSP16, literal(-1)))
        CFI CFA_SP SP+0
        CFI CFA_XSP16 add(XSP16, 14)
        CFI Block cfiCond35 Using cfiCommon0
        CFI (cfiCond35) NoFunction
        CFI (cfiCond35) Conditional ??CrossCallReturnLabel_251
        CFI (cfiCond35) R6 load(1, XDATA, add(CFA_XSP16, literal(-10)))
        CFI (cfiCond35) VB load(1, XDATA, add(CFA_XSP16, literal(-9)))
        CFI (cfiCond35) V0 load(1, XDATA, add(CFA_XSP16, literal(-8)))
        CFI (cfiCond35) V1 load(1, XDATA, add(CFA_XSP16, literal(-7)))
        CFI (cfiCond35) R7 load(1, XDATA, add(CFA_XSP16, literal(-6)))
        CFI (cfiCond35) ?RET_LOW load(1, XDATA, add(CFA_XSP16, literal(-5)))
        CFI (cfiCond35) ?RET_HIGH load(1, XDATA, add(CFA_XSP16, literal(-4)))
        CFI (cfiCond35) ?BRET_EXT load(1, XDATA, add(CFA_XSP16, literal(-3)))
        CFI (cfiCond35) DPL0 load(1, XDATA, add(CFA_XSP16, literal(-2)))
        CFI (cfiCond35) DPH0 load(1, XDATA, add(CFA_XSP16, literal(-1)))
        CFI (cfiCond35) CFA_SP SP+0
        CFI (cfiCond35) CFA_XSP16 add(XSP16, 14)
        CFI Block cfiCond36 Using cfiCommon0
        CFI (cfiCond36) NoFunction
        CFI (cfiCond36) Conditional ??CrossCallReturnLabel_252
        CFI (cfiCond36) R6 load(1, XDATA, add(CFA_XSP16, literal(-16)))
        CFI (cfiCond36) VB load(1, XDATA, add(CFA_XSP16, literal(-15)))
        CFI (cfiCond36) V0 load(1, XDATA, add(CFA_XSP16, literal(-14)))
        CFI (cfiCond36) V1 load(1, XDATA, add(CFA_XSP16, literal(-13)))
        CFI (cfiCond36) V2 load(1, XDATA, add(CFA_XSP16, literal(-12)))
        CFI (cfiCond36) V3 load(1, XDATA, add(CFA_XSP16, literal(-11)))
        CFI (cfiCond36) V4 load(1, XDATA, add(CFA_XSP16, literal(-10)))
        CFI (cfiCond36) V5 load(1, XDATA, add(CFA_XSP16, literal(-9)))
        CFI (cfiCond36) V6 load(1, XDATA, add(CFA_XSP16, literal(-8)))
        CFI (cfiCond36) V7 load(1, XDATA, add(CFA_XSP16, literal(-7)))
        CFI (cfiCond36) R7 load(1, XDATA, add(CFA_XSP16, literal(-6)))
        CFI (cfiCond36) ?RET_LOW load(1, XDATA, add(CFA_XSP16, literal(-5)))
        CFI (cfiCond36) ?RET_HIGH load(1, XDATA, add(CFA_XSP16, literal(-4)))
        CFI (cfiCond36) ?BRET_EXT load(1, XDATA, add(CFA_XSP16, literal(-3)))
        CFI (cfiCond36) DPL0 load(1, XDATA, add(CFA_XSP16, literal(-2)))
        CFI (cfiCond36) DPH0 load(1, XDATA, add(CFA_XSP16, literal(-1)))
        CFI (cfiCond36) CFA_SP SP+0
        CFI (cfiCond36) CFA_XSP16 add(XSP16, 37)
        CFI Block cfiPicker37 Using cfiCommon1
        CFI (cfiPicker37) NoFunction
        CFI (cfiPicker37) Picker
        LCALL   ?Subroutine147 & 0xFFFF
        CFI EndBlock cfiCond34
        CFI EndBlock cfiCond35
        CFI EndBlock cfiCond36
        CFI EndBlock cfiPicker37
??CrossCallReturnLabel_203:
        REQUIRE ??Subroutine195_0
        ; // Fall through to label ??Subroutine195_0

        RSEG BANKED_CODE:CODE:NOROOT(0)
??Subroutine195_0:
        CFI Block cfiCond38 Using cfiCommon0
        CFI NoFunction
        CFI Conditional ??CrossCallReturnLabel_248
        CFI R6 load(1, XDATA, add(CFA_XSP16, literal(-16)))
        CFI VB load(1, XDATA, add(CFA_XSP16, literal(-15)))
        CFI V0 load(1, XDATA, add(CFA_XSP16, literal(-14)))
        CFI V1 load(1, XDATA, add(CFA_XSP16, literal(-13)))
        CFI V2 load(1, XDATA, add(CFA_XSP16, literal(-12)))
        CFI V3 load(1, XDATA, add(CFA_XSP16, literal(-11)))
        CFI V4 load(1, XDATA, add(CFA_XSP16, literal(-10)))
        CFI V5 load(1, XDATA, add(CFA_XSP16, literal(-9)))
        CFI V6 load(1, XDATA, add(CFA_XSP16, literal(-8)))
        CFI V7 load(1, XDATA, add(CFA_XSP16, literal(-7)))
        CFI R7 load(1, XDATA, add(CFA_XSP16, literal(-6)))
        CFI ?RET_LOW load(1, XDATA, add(CFA_XSP16, literal(-5)))
        CFI ?RET_HIGH load(1, XDATA, add(CFA_XSP16, literal(-4)))
        CFI ?BRET_EXT load(1, XDATA, add(CFA_XSP16, literal(-3)))
        CFI DPL0 load(1, XDATA, add(CFA_XSP16, literal(-2)))
        CFI DPH0 load(1, XDATA, add(CFA_XSP16, literal(-1)))
        CFI CFA_SP SP+0
        CFI CFA_XSP16 add(XSP16, 23)
        CFI Block cfiCond39 Using cfiCommon0
        CFI (cfiCond39) NoFunction
        CFI (cfiCond39) Conditional ??CrossCallReturnLabel_249
        CFI (cfiCond39) R6 load(1, XDATA, add(CFA_XSP16, literal(-14)))
        CFI (cfiCond39) VB load(1, XDATA, add(CFA_XSP16, literal(-13)))
        CFI (cfiCond39) V0 load(1, XDATA, add(CFA_XSP16, literal(-12)))
        CFI (cfiCond39) V1 load(1, XDATA, add(CFA_XSP16, literal(-11)))
        CFI (cfiCond39) V2 load(1, XDATA, add(CFA_XSP16, literal(-10)))
        CFI (cfiCond39) V3 load(1, XDATA, add(CFA_XSP16, literal(-9)))
        CFI (cfiCond39) V4 load(1, XDATA, add(CFA_XSP16, literal(-8)))
        CFI (cfiCond39) V5 load(1, XDATA, add(CFA_XSP16, literal(-7)))
        CFI (cfiCond39) R7 load(1, XDATA, add(CFA_XSP16, literal(-6)))
        CFI (cfiCond39) ?RET_LOW load(1, XDATA, add(CFA_XSP16, literal(-5)))
        CFI (cfiCond39) ?RET_HIGH load(1, XDATA, add(CFA_XSP16, literal(-4)))
        CFI (cfiCond39) ?BRET_EXT load(1, XDATA, add(CFA_XSP16, literal(-3)))
        CFI (cfiCond39) DPL0 load(1, XDATA, add(CFA_XSP16, literal(-2)))
        CFI (cfiCond39) DPH0 load(1, XDATA, add(CFA_XSP16, literal(-1)))
        CFI (cfiCond39) CFA_SP SP+0
        CFI (cfiCond39) CFA_XSP16 add(XSP16, 14)
        CFI Block cfiCond40 Using cfiCommon0
        CFI (cfiCond40) NoFunction
        CFI (cfiCond40) Conditional ??CrossCallReturnLabel_250
        CFI (cfiCond40) R6 load(1, XDATA, add(CFA_XSP16, literal(-14)))
        CFI (cfiCond40) VB load(1, XDATA, add(CFA_XSP16, literal(-13)))
        CFI (cfiCond40) V0 load(1, XDATA, add(CFA_XSP16, literal(-12)))
        CFI (cfiCond40) V1 load(1, XDATA, add(CFA_XSP16, literal(-11)))
        CFI (cfiCond40) V2 load(1, XDATA, add(CFA_XSP16, literal(-10)))
        CFI (cfiCond40) V3 load(1, XDATA, add(CFA_XSP16, literal(-9)))
        CFI (cfiCond40) V4 load(1, XDATA, add(CFA_XSP16, literal(-8)))
        CFI (cfiCond40) V5 load(1, XDATA, add(CFA_XSP16, literal(-7)))
        CFI (cfiCond40) R7 load(1, XDATA, add(CFA_XSP16, literal(-6)))
        CFI (cfiCond40) ?RET_LOW load(1, XDATA, add(CFA_XSP16, literal(-5)))
        CFI (cfiCond40) ?RET_HIGH load(1, XDATA, add(CFA_XSP16, literal(-4)))
        CFI (cfiCond40) ?BRET_EXT load(1, XDATA, add(CFA_XSP16, literal(-3)))
        CFI (cfiCond40) DPL0 load(1, XDATA, add(CFA_XSP16, literal(-2)))
        CFI (cfiCond40) DPH0 load(1, XDATA, add(CFA_XSP16, literal(-1)))
        CFI (cfiCond40) CFA_SP SP+0
        CFI (cfiCond40) CFA_XSP16 add(XSP16, 14)
        CFI Block cfiCond41 Using cfiCommon0
        CFI (cfiCond41) NoFunction
        CFI (cfiCond41) Conditional ??CrossCallReturnLabel_251
        CFI (cfiCond41) R6 load(1, XDATA, add(CFA_XSP16, literal(-10)))
        CFI (cfiCond41) VB load(1, XDATA, add(CFA_XSP16, literal(-9)))
        CFI (cfiCond41) V0 load(1, XDATA, add(CFA_XSP16, literal(-8)))
        CFI (cfiCond41) V1 load(1, XDATA, add(CFA_XSP16, literal(-7)))
        CFI (cfiCond41) R7 load(1, XDATA, add(CFA_XSP16, literal(-6)))
        CFI (cfiCond41) ?RET_LOW load(1, XDATA, add(CFA_XSP16, literal(-5)))
        CFI (cfiCond41) ?RET_HIGH load(1, XDATA, add(CFA_XSP16, literal(-4)))
        CFI (cfiCond41) ?BRET_EXT load(1, XDATA, add(CFA_XSP16, literal(-3)))
        CFI (cfiCond41) DPL0 load(1, XDATA, add(CFA_XSP16, literal(-2)))
        CFI (cfiCond41) DPH0 load(1, XDATA, add(CFA_XSP16, literal(-1)))
        CFI (cfiCond41) CFA_SP SP+0
        CFI (cfiCond41) CFA_XSP16 add(XSP16, 14)
        CFI Block cfiCond42 Using cfiCommon0
        CFI (cfiCond42) NoFunction
        CFI (cfiCond42) Conditional ??CrossCallReturnLabel_252
        CFI (cfiCond42) R6 load(1, XDATA, add(CFA_XSP16, literal(-16)))
        CFI (cfiCond42) VB load(1, XDATA, add(CFA_XSP16, literal(-15)))
        CFI (cfiCond42) V0 load(1, XDATA, add(CFA_XSP16, literal(-14)))
        CFI (cfiCond42) V1 load(1, XDATA, add(CFA_XSP16, literal(-13)))
        CFI (cfiCond42) V2 load(1, XDATA, add(CFA_XSP16, literal(-12)))
        CFI (cfiCond42) V3 load(1, XDATA, add(CFA_XSP16, literal(-11)))
        CFI (cfiCond42) V4 load(1, XDATA, add(CFA_XSP16, literal(-10)))
        CFI (cfiCond42) V5 load(1, XDATA, add(CFA_XSP16, literal(-9)))
        CFI (cfiCond42) V6 load(1, XDATA, add(CFA_XSP16, literal(-8)))
        CFI (cfiCond42) V7 load(1, XDATA, add(CFA_XSP16, literal(-7)))
        CFI (cfiCond42) R7 load(1, XDATA, add(CFA_XSP16, literal(-6)))
        CFI (cfiCond42) ?RET_LOW load(1, XDATA, add(CFA_XSP16, literal(-5)))
        CFI (cfiCond42) ?RET_HIGH load(1, XDATA, add(CFA_XSP16, literal(-4)))
        CFI (cfiCond42) ?BRET_EXT load(1, XDATA, add(CFA_XSP16, literal(-3)))
        CFI (cfiCond42) DPL0 load(1, XDATA, add(CFA_XSP16, literal(-2)))
        CFI (cfiCond42) DPH0 load(1, XDATA, add(CFA_XSP16, literal(-1)))
        CFI (cfiCond42) CFA_SP SP+0
        CFI (cfiCond42) CFA_XSP16 add(XSP16, 37)
        CFI Block cfiPicker43 Using cfiCommon1
        CFI (cfiPicker43) NoFunction
        CFI (cfiPicker43) Picker
        LCALL   ?Subroutine142 & 0xFFFF
??CrossCallReturnLabel_256:
        RET
        CFI EndBlock cfiCond38
        CFI EndBlock cfiCond39
        CFI EndBlock cfiCond40
        CFI EndBlock cfiCond41
        CFI EndBlock cfiCond42
        CFI EndBlock cfiPicker43

        RSEG BANKED_CODE:CODE:NOROOT(0)
?Subroutine142:
        CFI Block cfiCond44 Using cfiCommon0
        CFI NoFunction
        CFI Conditional ??CrossCallReturnLabel_253, ??CrossCallReturnLabel_86
        CFI R6 load(1, XDATA, add(CFA_XSP16, literal(-10)))
        CFI VB load(1, XDATA, add(CFA_XSP16, literal(-9)))
        CFI V0 load(1, XDATA, add(CFA_XSP16, literal(-8)))
        CFI V1 load(1, XDATA, add(CFA_XSP16, literal(-7)))
        CFI R7 load(1, XDATA, add(CFA_XSP16, literal(-6)))
        CFI ?RET_LOW load(1, XDATA, add(CFA_XSP16, literal(-5)))
        CFI ?RET_HIGH load(1, XDATA, add(CFA_XSP16, literal(-4)))
        CFI ?BRET_EXT load(1, XDATA, add(CFA_XSP16, literal(-3)))
        CFI DPL0 load(1, XDATA, add(CFA_XSP16, literal(-2)))
        CFI DPH0 load(1, XDATA, add(CFA_XSP16, literal(-1)))
        CFI CFA_SP SP+0
        CFI CFA_XSP16 add(XSP16, 14)
        CFI Block cfiCond45 Using cfiCommon0
        CFI (cfiCond45) NoFunction
        CFI (cfiCond45) Conditional ??CrossCallReturnLabel_253, ??CrossCallReturnLabel_87
        CFI (cfiCond45) R6 load(1, XDATA, add(CFA_XSP16, literal(-10)))
        CFI (cfiCond45) VB load(1, XDATA, add(CFA_XSP16, literal(-9)))
        CFI (cfiCond45) V0 load(1, XDATA, add(CFA_XSP16, literal(-8)))
        CFI (cfiCond45) V1 load(1, XDATA, add(CFA_XSP16, literal(-7)))
        CFI (cfiCond45) R7 load(1, XDATA, add(CFA_XSP16, literal(-6)))
        CFI (cfiCond45) ?RET_LOW load(1, XDATA, add(CFA_XSP16, literal(-5)))
        CFI (cfiCond45) ?RET_HIGH load(1, XDATA, add(CFA_XSP16, literal(-4)))
        CFI (cfiCond45) ?BRET_EXT load(1, XDATA, add(CFA_XSP16, literal(-3)))
        CFI (cfiCond45) DPL0 load(1, XDATA, add(CFA_XSP16, literal(-2)))
        CFI (cfiCond45) DPH0 load(1, XDATA, add(CFA_XSP16, literal(-1)))
        CFI (cfiCond45) CFA_SP SP+0
        CFI (cfiCond45) CFA_XSP16 add(XSP16, 14)
        CFI Block cfiCond46 Using cfiCommon0
        CFI (cfiCond46) NoFunction
        CFI (cfiCond46) Conditional ??CrossCallReturnLabel_256, ??CrossCallReturnLabel_250
        CFI (cfiCond46) R6 load(1, XDATA, add(CFA_XSP16, literal(-14)))
        CFI (cfiCond46) VB load(1, XDATA, add(CFA_XSP16, literal(-13)))
        CFI (cfiCond46) V0 load(1, XDATA, add(CFA_XSP16, literal(-12)))
        CFI (cfiCond46) V1 load(1, XDATA, add(CFA_XSP16, literal(-11)))
        CFI (cfiCond46) V2 load(1, XDATA, add(CFA_XSP16, literal(-10)))
        CFI (cfiCond46) V3 load(1, XDATA, add(CFA_XSP16, literal(-9)))
        CFI (cfiCond46) V4 load(1, XDATA, add(CFA_XSP16, literal(-8)))
        CFI (cfiCond46) V5 load(1, XDATA, add(CFA_XSP16, literal(-7)))
        CFI (cfiCond46) R7 load(1, XDATA, add(CFA_XSP16, literal(-6)))
        CFI (cfiCond46) ?RET_LOW load(1, XDATA, add(CFA_XSP16, literal(-5)))
        CFI (cfiCond46) ?RET_HIGH load(1, XDATA, add(CFA_XSP16, literal(-4)))
        CFI (cfiCond46) ?BRET_EXT load(1, XDATA, add(CFA_XSP16, literal(-3)))
        CFI (cfiCond46) DPL0 load(1, XDATA, add(CFA_XSP16, literal(-2)))
        CFI (cfiCond46) DPH0 load(1, XDATA, add(CFA_XSP16, literal(-1)))
        CFI (cfiCond46) CFA_SP SP+0
        CFI (cfiCond46) CFA_XSP16 add(XSP16, 14)
        CFI Block cfiCond47 Using cfiCommon0
        CFI (cfiCond47) NoFunction
        CFI (cfiCond47) Conditional ??CrossCallReturnLabel_256, ??CrossCallReturnLabel_251
        CFI (cfiCond47) R6 load(1, XDATA, add(CFA_XSP16, literal(-10)))
        CFI (cfiCond47) VB load(1, XDATA, add(CFA_XSP16, literal(-9)))
        CFI (cfiCond47) V0 load(1, XDATA, add(CFA_XSP16, literal(-8)))
        CFI (cfiCond47) V1 load(1, XDATA, add(CFA_XSP16, literal(-7)))
        CFI (cfiCond47) R7 load(1, XDATA, add(CFA_XSP16, literal(-6)))
        CFI (cfiCond47) ?RET_LOW load(1, XDATA, add(CFA_XSP16, literal(-5)))
        CFI (cfiCond47) ?RET_HIGH load(1, XDATA, add(CFA_XSP16, literal(-4)))
        CFI (cfiCond47) ?BRET_EXT load(1, XDATA, add(CFA_XSP16, literal(-3)))
        CFI (cfiCond47) DPL0 load(1, XDATA, add(CFA_XSP16, literal(-2)))
        CFI (cfiCond47) DPH0 load(1, XDATA, add(CFA_XSP16, literal(-1)))
        CFI (cfiCond47) CFA_SP SP+0
        CFI (cfiCond47) CFA_XSP16 add(XSP16, 14)
        CFI Block cfiCond48 Using cfiCommon0
        CFI (cfiCond48) NoFunction
        CFI (cfiCond48) Conditional ??CrossCallReturnLabel_256, ??CrossCallReturnLabel_252
        CFI (cfiCond48) R6 load(1, XDATA, add(CFA_XSP16, literal(-16)))
        CFI (cfiCond48) VB load(1, XDATA, add(CFA_XSP16, literal(-15)))
        CFI (cfiCond48) V0 load(1, XDATA, add(CFA_XSP16, literal(-14)))
        CFI (cfiCond48) V1 load(1, XDATA, add(CFA_XSP16, literal(-13)))
        CFI (cfiCond48) V2 load(1, XDATA, add(CFA_XSP16, literal(-12)))
        CFI (cfiCond48) V3 load(1, XDATA, add(CFA_XSP16, literal(-11)))
        CFI (cfiCond48) V4 load(1, XDATA, add(CFA_XSP16, literal(-10)))
        CFI (cfiCond48) V5 load(1, XDATA, add(CFA_XSP16, literal(-9)))
        CFI (cfiCond48) V6 load(1, XDATA, add(CFA_XSP16, literal(-8)))
        CFI (cfiCond48) V7 load(1, XDATA, add(CFA_XSP16, literal(-7)))
        CFI (cfiCond48) R7 load(1, XDATA, add(CFA_XSP16, literal(-6)))
        CFI (cfiCond48) ?RET_LOW load(1, XDATA, add(CFA_XSP16, literal(-5)))
        CFI (cfiCond48) ?RET_HIGH load(1, XDATA, add(CFA_XSP16, literal(-4)))
        CFI (cfiCond48) ?BRET_EXT load(1, XDATA, add(CFA_XSP16, literal(-3)))
        CFI (cfiCond48) DPL0 load(1, XDATA, add(CFA_XSP16, literal(-2)))
        CFI (cfiCond48) DPH0 load(1, XDATA, add(CFA_XSP16, literal(-1)))
        CFI (cfiCond48) CFA_SP SP+0
        CFI (cfiCond48) CFA_XSP16 add(XSP16, 37)
        CFI Block cfiCond49 Using cfiCommon0
        CFI (cfiCond49) NoFunction
        CFI (cfiCond49) Conditional ??CrossCallReturnLabel_256, ??CrossCallReturnLabel_248
        CFI (cfiCond49) R6 load(1, XDATA, add(CFA_XSP16, literal(-16)))
        CFI (cfiCond49) VB load(1, XDATA, add(CFA_XSP16, literal(-15)))
        CFI (cfiCond49) V0 load(1, XDATA, add(CFA_XSP16, literal(-14)))
        CFI (cfiCond49) V1 load(1, XDATA, add(CFA_XSP16, literal(-13)))
        CFI (cfiCond49) V2 load(1, XDATA, add(CFA_XSP16, literal(-12)))
        CFI (cfiCond49) V3 load(1, XDATA, add(CFA_XSP16, literal(-11)))
        CFI (cfiCond49) V4 load(1, XDATA, add(CFA_XSP16, literal(-10)))
        CFI (cfiCond49) V5 load(1, XDATA, add(CFA_XSP16, literal(-9)))
        CFI (cfiCond49) V6 load(1, XDATA, add(CFA_XSP16, literal(-8)))
        CFI (cfiCond49) V7 load(1, XDATA, add(CFA_XSP16, literal(-7)))
        CFI (cfiCond49) R7 load(1, XDATA, add(CFA_XSP16, literal(-6)))
        CFI (cfiCond49) ?RET_LOW load(1, XDATA, add(CFA_XSP16, literal(-5)))
        CFI (cfiCond49) ?RET_HIGH load(1, XDATA, add(CFA_XSP16, literal(-4)))
        CFI (cfiCond49) ?BRET_EXT load(1, XDATA, add(CFA_XSP16, literal(-3)))
        CFI (cfiCond49) DPL0 load(1, XDATA, add(CFA_XSP16, literal(-2)))
        CFI (cfiCond49) DPH0 load(1, XDATA, add(CFA_XSP16, literal(-1)))
        CFI (cfiCond49) CFA_SP SP+0
        CFI (cfiCond49) CFA_XSP16 add(XSP16, 23)
        CFI Block cfiCond50 Using cfiCommon0
        CFI (cfiCond50) NoFunction
        CFI (cfiCond50) Conditional ??CrossCallReturnLabel_256, ??CrossCallReturnLabel_249
        CFI (cfiCond50) R6 load(1, XDATA, add(CFA_XSP16, literal(-14)))
        CFI (cfiCond50) VB load(1, XDATA, add(CFA_XSP16, literal(-13)))
        CFI (cfiCond50) V0 load(1, XDATA, add(CFA_XSP16, literal(-12)))
        CFI (cfiCond50) V1 load(1, XDATA, add(CFA_XSP16, literal(-11)))
        CFI (cfiCond50) V2 load(1, XDATA, add(CFA_XSP16, literal(-10)))
        CFI (cfiCond50) V3 load(1, XDATA, add(CFA_XSP16, literal(-9)))
        CFI (cfiCond50) V4 load(1, XDATA, add(CFA_XSP16, literal(-8)))
        CFI (cfiCond50) V5 load(1, XDATA, add(CFA_XSP16, literal(-7)))
        CFI (cfiCond50) R7 load(1, XDATA, add(CFA_XSP16, literal(-6)))
        CFI (cfiCond50) ?RET_LOW load(1, XDATA, add(CFA_XSP16, literal(-5)))
        CFI (cfiCond50) ?RET_HIGH load(1, XDATA, add(CFA_XSP16, literal(-4)))
        CFI (cfiCond50) ?BRET_EXT load(1, XDATA, add(CFA_XSP16, literal(-3)))
        CFI (cfiCond50) DPL0 load(1, XDATA, add(CFA_XSP16, literal(-2)))
        CFI (cfiCond50) DPH0 load(1, XDATA, add(CFA_XSP16, literal(-1)))
        CFI (cfiCond50) CFA_SP SP+0
        CFI (cfiCond50) CFA_XSP16 add(XSP16, 14)
        CFI Block cfiCond51 Using cfiCommon0
        CFI (cfiCond51) NoFunction
        CFI (cfiCond51) Conditional ??CrossCallReturnLabel_254, ??CrossCallReturnLabel_120
        CFI (cfiCond51) R6 load(1, XDATA, add(CFA_XSP16, literal(-20)))
        CFI (cfiCond51) VB load(1, XDATA, add(CFA_XSP16, literal(-19)))
        CFI (cfiCond51) V0 load(1, XDATA, add(CFA_XSP16, literal(-18)))
        CFI (cfiCond51) V1 load(1, XDATA, add(CFA_XSP16, literal(-17)))
        CFI (cfiCond51) V2 load(1, XDATA, add(CFA_XSP16, literal(-16)))
        CFI (cfiCond51) V3 load(1, XDATA, add(CFA_XSP16, literal(-15)))
        CFI (cfiCond51) V4 load(1, XDATA, add(CFA_XSP16, literal(-14)))
        CFI (cfiCond51) V5 load(1, XDATA, add(CFA_XSP16, literal(-13)))
        CFI (cfiCond51) V6 load(1, XDATA, add(CFA_XSP16, literal(-12)))
        CFI (cfiCond51) V7 load(1, XDATA, add(CFA_XSP16, literal(-11)))
        CFI (cfiCond51) V8 load(1, XDATA, add(CFA_XSP16, literal(-10)))
        CFI (cfiCond51) V9 load(1, XDATA, add(CFA_XSP16, literal(-9)))
        CFI (cfiCond51) V10 load(1, XDATA, add(CFA_XSP16, literal(-8)))
        CFI (cfiCond51) V11 load(1, XDATA, add(CFA_XSP16, literal(-7)))
        CFI (cfiCond51) R7 load(1, XDATA, add(CFA_XSP16, literal(-6)))
        CFI (cfiCond51) ?RET_LOW load(1, XDATA, add(CFA_XSP16, literal(-5)))
        CFI (cfiCond51) ?RET_HIGH load(1, XDATA, add(CFA_XSP16, literal(-4)))
        CFI (cfiCond51) ?BRET_EXT load(1, XDATA, add(CFA_XSP16, literal(-3)))
        CFI (cfiCond51) DPL0 load(1, XDATA, add(CFA_XSP16, literal(-2)))
        CFI (cfiCond51) DPH0 load(1, XDATA, add(CFA_XSP16, literal(-1)))
        CFI (cfiCond51) CFA_SP SP+0
        CFI (cfiCond51) CFA_XSP16 add(XSP16, 20)
        CFI Block cfiCond52 Using cfiCommon0
        CFI (cfiCond52) NoFunction
        CFI (cfiCond52) Conditional ??CrossCallReturnLabel_254, ??CrossCallReturnLabel_121
        CFI (cfiCond52) R6 load(1, XDATA, add(CFA_XSP16, literal(-20)))
        CFI (cfiCond52) VB load(1, XDATA, add(CFA_XSP16, literal(-19)))
        CFI (cfiCond52) V0 load(1, XDATA, add(CFA_XSP16, literal(-18)))
        CFI (cfiCond52) V1 load(1, XDATA, add(CFA_XSP16, literal(-17)))
        CFI (cfiCond52) V2 load(1, XDATA, add(CFA_XSP16, literal(-16)))
        CFI (cfiCond52) V3 load(1, XDATA, add(CFA_XSP16, literal(-15)))
        CFI (cfiCond52) V4 load(1, XDATA, add(CFA_XSP16, literal(-14)))
        CFI (cfiCond52) V5 load(1, XDATA, add(CFA_XSP16, literal(-13)))
        CFI (cfiCond52) V6 load(1, XDATA, add(CFA_XSP16, literal(-12)))
        CFI (cfiCond52) V7 load(1, XDATA, add(CFA_XSP16, literal(-11)))
        CFI (cfiCond52) V8 load(1, XDATA, add(CFA_XSP16, literal(-10)))
        CFI (cfiCond52) V9 load(1, XDATA, add(CFA_XSP16, literal(-9)))
        CFI (cfiCond52) V10 load(1, XDATA, add(CFA_XSP16, literal(-8)))
        CFI (cfiCond52) V11 load(1, XDATA, add(CFA_XSP16, literal(-7)))
        CFI (cfiCond52) R7 load(1, XDATA, add(CFA_XSP16, literal(-6)))
        CFI (cfiCond52) ?RET_LOW load(1, XDATA, add(CFA_XSP16, literal(-5)))
        CFI (cfiCond52) ?RET_HIGH load(1, XDATA, add(CFA_XSP16, literal(-4)))
        CFI (cfiCond52) ?BRET_EXT load(1, XDATA, add(CFA_XSP16, literal(-3)))
        CFI (cfiCond52) DPL0 load(1, XDATA, add(CFA_XSP16, literal(-2)))
        CFI (cfiCond52) DPH0 load(1, XDATA, add(CFA_XSP16, literal(-1)))
        CFI (cfiCond52) CFA_SP SP+0
        CFI (cfiCond52) CFA_XSP16 add(XSP16, 20)
        CFI Block cfiCond53 Using cfiCommon0
        CFI (cfiCond53) NoFunction
        CFI (cfiCond53) Conditional ??CrossCallReturnLabel_255, ??CrossCallReturnLabel_364
        CFI (cfiCond53) R6 load(1, XDATA, add(CFA_XSP16, literal(-16)))
        CFI (cfiCond53) VB load(1, XDATA, add(CFA_XSP16, literal(-15)))
        CFI (cfiCond53) V0 load(1, XDATA, add(CFA_XSP16, literal(-14)))
        CFI (cfiCond53) V1 load(1, XDATA, add(CFA_XSP16, literal(-13)))
        CFI (cfiCond53) V2 load(1, XDATA, add(CFA_XSP16, literal(-12)))
        CFI (cfiCond53) V3 load(1, XDATA, add(CFA_XSP16, literal(-11)))
        CFI (cfiCond53) V4 load(1, XDATA, add(CFA_XSP16, literal(-10)))
        CFI (cfiCond53) V5 load(1, XDATA, add(CFA_XSP16, literal(-9)))
        CFI (cfiCond53) V6 load(1, XDATA, add(CFA_XSP16, literal(-8)))
        CFI (cfiCond53) V7 load(1, XDATA, add(CFA_XSP16, literal(-7)))
        CFI (cfiCond53) R7 load(1, XDATA, add(CFA_XSP16, literal(-6)))
        CFI (cfiCond53) ?RET_LOW load(1, XDATA, add(CFA_XSP16, literal(-5)))
        CFI (cfiCond53) ?RET_HIGH load(1, XDATA, add(CFA_XSP16, literal(-4)))
        CFI (cfiCond53) ?BRET_EXT load(1, XDATA, add(CFA_XSP16, literal(-3)))
        CFI (cfiCond53) DPL0 load(1, XDATA, add(CFA_XSP16, literal(-2)))
        CFI (cfiCond53) DPH0 load(1, XDATA, add(CFA_XSP16, literal(-1)))
        CFI (cfiCond53) CFA_SP SP+0
        CFI (cfiCond53) CFA_XSP16 add(XSP16, 16)
        CFI Block cfiCond54 Using cfiCommon0
        CFI (cfiCond54) NoFunction
        CFI (cfiCond54) Conditional ??CrossCallReturnLabel_255, ??CrossCallReturnLabel_365
        CFI (cfiCond54) R6 load(1, XDATA, add(CFA_XSP16, literal(-16)))
        CFI (cfiCond54) VB load(1, XDATA, add(CFA_XSP16, literal(-15)))
        CFI (cfiCond54) V0 load(1, XDATA, add(CFA_XSP16, literal(-14)))
        CFI (cfiCond54) V1 load(1, XDATA, add(CFA_XSP16, literal(-13)))
        CFI (cfiCond54) V2 load(1, XDATA, add(CFA_XSP16, literal(-12)))
        CFI (cfiCond54) V3 load(1, XDATA, add(CFA_XSP16, literal(-11)))
        CFI (cfiCond54) V4 load(1, XDATA, add(CFA_XSP16, literal(-10)))
        CFI (cfiCond54) V5 load(1, XDATA, add(CFA_XSP16, literal(-9)))
        CFI (cfiCond54) V6 load(1, XDATA, add(CFA_XSP16, literal(-8)))
        CFI (cfiCond54) V7 load(1, XDATA, add(CFA_XSP16, literal(-7)))
        CFI (cfiCond54) R7 load(1, XDATA, add(CFA_XSP16, literal(-6)))
        CFI (cfiCond54) ?RET_LOW load(1, XDATA, add(CFA_XSP16, literal(-5)))
        CFI (cfiCond54) ?RET_HIGH load(1, XDATA, add(CFA_XSP16, literal(-4)))
        CFI (cfiCond54) ?BRET_EXT load(1, XDATA, add(CFA_XSP16, literal(-3)))
        CFI (cfiCond54) DPL0 load(1, XDATA, add(CFA_XSP16, literal(-2)))
        CFI (cfiCond54) DPH0 load(1, XDATA, add(CFA_XSP16, literal(-1)))
        CFI (cfiCond54) CFA_SP SP+0
        CFI (cfiCond54) CFA_XSP16 add(XSP16, 16)
        CFI Block cfiPicker55 Using cfiCommon1
        CFI (cfiPicker55) NoFunction
        CFI (cfiPicker55) Picker
        LCALL   ??Subroutine243_0 & 0xFFFF
??CrossCallReturnLabel_522:
        MOVX    A,@DPTR
        RET
        CFI EndBlock cfiCond44
        CFI EndBlock cfiCond45
        CFI EndBlock cfiCond46
        CFI EndBlock cfiCond47
        CFI EndBlock cfiCond48
        CFI EndBlock cfiCond49
        CFI EndBlock cfiCond50
        CFI EndBlock cfiCond51
        CFI EndBlock cfiCond52
        CFI EndBlock cfiCond53
        CFI EndBlock cfiCond54
        CFI EndBlock cfiPicker55

        RSEG BANKED_CODE:CODE:NOROOT(0)
ZDO_ConvertOTAClusters:
        CFI Block cfiBlock56 Using cfiCommon0
        CFI Function ZDO_ConvertOTAClusters
        MOV     A,#-0xb
        LCALL   ?BANKED_ENTER_XDATA
        CFI DPH0 load(1, XDATA, add(CFA_XSP16, literal(-1)))
        CFI DPL0 load(1, XDATA, add(CFA_XSP16, literal(-2)))
        CFI ?BRET_EXT load(1, XDATA, add(CFA_XSP16, literal(-3)))
        CFI ?RET_HIGH load(1, XDATA, add(CFA_XSP16, literal(-4)))
        CFI ?RET_LOW load(1, XDATA, add(CFA_XSP16, literal(-5)))
        CFI R7 load(1, XDATA, add(CFA_XSP16, literal(-6)))
        CFI V2 load(1, XDATA, add(CFA_XSP16, literal(-7)))
        CFI V1 load(1, XDATA, add(CFA_XSP16, literal(-8)))
        CFI V0 load(1, XDATA, add(CFA_XSP16, literal(-9)))
        CFI VB load(1, XDATA, add(CFA_XSP16, literal(-10)))
        CFI R6 load(1, XDATA, add(CFA_XSP16, literal(-11)))
        CFI CFA_SP SP+0
        CFI CFA_XSP16 add(XSP16, 11)
        ; Saved register size: 11
        ; Auto size: 0
        MOV     A,R1
        MOV     R6,A
        MOV     R7,#0x0
        SJMP    ??ZDO_ConvertOTAClusters_0
??ZDO_ConvertOTAClusters_1:
        MOV     DPL,R2
        MOV     DPH,R3
        LCALL   ?Subroutine68 & 0xFFFF
??CrossCallReturnLabel_104:
        MOV     R1,A
        CLR     A
        ADD     A,?V0 + 0
        MOV     A,R1
        MOV     ?V0 + 1,A
        MOV     A,R7
        RLC     A
        MOV     R0,A
        CLR     A
        RLC     A
        MOV     R1,A
        MOV     A,R4
        ADD     A,R0
        MOV     DPL,A
        MOV     A,R5
        ADDC    A,R1
        MOV     DPH,A
        MOV     A,?V0 + 0
        MOVX    @DPTR,A
        INC     DPTR
        MOV     A,?V0 + 1
        MOVX    @DPTR,A
        LCALL   ?Subroutine111 & 0xFFFF
??CrossCallReturnLabel_160:
        INC     R7
??ZDO_ConvertOTAClusters_0:
        MOV     A,R7
        CLR     C
        SUBB    A,R6
        JC      ??ZDO_ConvertOTAClusters_1
        MOV     R7,#0x3
        LJMP    ?BANKED_LEAVE_XDATA
        CFI EndBlock cfiBlock56

        RSEG BANKED_CODE:CODE:NOROOT(0)
ZDO_ProcessMatchDescReq:
        CFI Block cfiBlock57 Using cfiCommon0
        CFI Function ZDO_ProcessMatchDescReq
        FUNCALL ZDO_ProcessMatchDescReq, NLME_IsAddressBroadcast
        LOCFRAME ISTACK, 0, STACK
        LOCFRAME PSTACK, 0, STACK
        LOCFRAME XSTACK, 28, STACK
        LOCFRAME IOVERLAY, 0, STATIC
        LOCFRAME DOVERLAY, 0, STATIC
        ARGFRAME ISTACK, 0, STACK
        ARGFRAME PSTACK, 0, STACK
        ARGFRAME XSTACK, 28, STACK
        ARGFRAME IOVERLAY, 0, STATIC
        ARGFRAME DOVERLAY, 0, STATIC
        FUNCALL ZDO_ProcessMatchDescReq, ZDP_EPRsp
        LOCFRAME ISTACK, 0, STACK
        LOCFRAME PSTACK, 0, STACK
        LOCFRAME XSTACK, 35, STACK
        LOCFRAME IOVERLAY, 0, STATIC
        LOCFRAME DOVERLAY, 0, STATIC
        ARGFRAME ISTACK, 0, STACK
        ARGFRAME PSTACK, 0, STACK
        ARGFRAME XSTACK, 35, STACK
        ARGFRAME IOVERLAY, 0, STATIC
        ARGFRAME DOVERLAY, 0, STATIC
        FUNCALL ZDO_ProcessMatchDescReq, NLME_IsAddressBroadcast
        LOCFRAME ISTACK, 0, STACK
        LOCFRAME PSTACK, 0, STACK
        LOCFRAME XSTACK, 28, STACK
        LOCFRAME IOVERLAY, 0, STATIC
        LOCFRAME DOVERLAY, 0, STATIC
        ARGFRAME ISTACK, 0, STACK
        ARGFRAME PSTACK, 0, STACK
        ARGFRAME XSTACK, 28, STACK
        ARGFRAME IOVERLAY, 0, STATIC
        ARGFRAME DOVERLAY, 0, STATIC
        FUNCALL ZDO_ProcessMatchDescReq, osal_mem_alloc
        LOCFRAME ISTACK, 0, STACK
        LOCFRAME PSTACK, 0, STACK
        LOCFRAME XSTACK, 28, STACK
        LOCFRAME IOVERLAY, 0, STATIC
        LOCFRAME DOVERLAY, 0, STATIC
        ARGFRAME ISTACK, 0, STACK
        ARGFRAME PSTACK, 0, STACK
        ARGFRAME XSTACK, 28, STACK
        ARGFRAME IOVERLAY, 0, STATIC
        ARGFRAME DOVERLAY, 0, STATIC
        FUNCALL ZDO_ProcessMatchDescReq, ZDO_ConvertOTAClusters
        LOCFRAME ISTACK, 0, STACK
        LOCFRAME PSTACK, 0, STACK
        LOCFRAME XSTACK, 28, STACK
        LOCFRAME IOVERLAY, 0, STATIC
        LOCFRAME DOVERLAY, 0, STATIC
        ARGFRAME ISTACK, 0, STACK
        ARGFRAME PSTACK, 0, STACK
        ARGFRAME XSTACK, 28, STACK
        ARGFRAME IOVERLAY, 0, STATIC
        ARGFRAME DOVERLAY, 0, STATIC
        FUNCALL ZDO_ProcessMatchDescReq, osal_mem_alloc
        LOCFRAME ISTACK, 0, STACK
        LOCFRAME PSTACK, 0, STACK
        LOCFRAME XSTACK, 28, STACK
        LOCFRAME IOVERLAY, 0, STATIC
        LOCFRAME DOVERLAY, 0, STATIC
        ARGFRAME ISTACK, 0, STACK
        ARGFRAME PSTACK, 0, STACK
        ARGFRAME XSTACK, 28, STACK
        ARGFRAME IOVERLAY, 0, STATIC
        ARGFRAME DOVERLAY, 0, STATIC
        FUNCALL ZDO_ProcessMatchDescReq, ZDO_ConvertOTAClusters
        LOCFRAME ISTACK, 0, STACK
        LOCFRAME PSTACK, 0, STACK
        LOCFRAME XSTACK, 28, STACK
        LOCFRAME IOVERLAY, 0, STATIC
        LOCFRAME DOVERLAY, 0, STATIC
        ARGFRAME ISTACK, 0, STACK
        ARGFRAME PSTACK, 0, STACK
        ARGFRAME XSTACK, 28, STACK
        ARGFRAME IOVERLAY, 0, STATIC
        ARGFRAME DOVERLAY, 0, STATIC
        FUNCALL ZDO_ProcessMatchDescReq, osal_msg_send
        LOCFRAME ISTACK, 0, STACK
        LOCFRAME PSTACK, 0, STACK
        LOCFRAME XSTACK, 28, STACK
        LOCFRAME IOVERLAY, 0, STATIC
        LOCFRAME DOVERLAY, 0, STATIC
        ARGFRAME ISTACK, 0, STACK
        ARGFRAME PSTACK, 0, STACK
        ARGFRAME XSTACK, 28, STACK
        ARGFRAME IOVERLAY, 0, STATIC
        ARGFRAME DOVERLAY, 0, STATIC
        FUNCALL ZDO_ProcessMatchDescReq, osal_mem_free
        LOCFRAME ISTACK, 0, STACK
        LOCFRAME PSTACK, 0, STACK
        LOCFRAME XSTACK, 28, STACK
        LOCFRAME IOVERLAY, 0, STATIC
        LOCFRAME DOVERLAY, 0, STATIC
        ARGFRAME ISTACK, 0, STACK
        ARGFRAME PSTACK, 0, STACK
        ARGFRAME XSTACK, 28, STACK
        ARGFRAME IOVERLAY, 0, STATIC
        ARGFRAME DOVERLAY, 0, STATIC
        FUNCALL ZDO_ProcessMatchDescReq, ZDO_AnyClusterMatches
        LOCFRAME ISTACK, 0, STACK
        LOCFRAME PSTACK, 0, STACK
        LOCFRAME XSTACK, 30, STACK
        LOCFRAME IOVERLAY, 0, STATIC
        LOCFRAME DOVERLAY, 0, STATIC
        ARGFRAME ISTACK, 0, STACK
        ARGFRAME PSTACK, 0, STACK
        ARGFRAME XSTACK, 30, STACK
        ARGFRAME IOVERLAY, 0, STATIC
        ARGFRAME DOVERLAY, 0, STATIC
        FUNCALL ZDO_ProcessMatchDescReq, ZDO_AnyClusterMatches
        LOCFRAME ISTACK, 0, STACK
        LOCFRAME PSTACK, 0, STACK
        LOCFRAME XSTACK, 30, STACK
        LOCFRAME IOVERLAY, 0, STATIC
        LOCFRAME DOVERLAY, 0, STATIC
        ARGFRAME ISTACK, 0, STACK
        ARGFRAME PSTACK, 0, STACK
        ARGFRAME XSTACK, 30, STACK
        ARGFRAME IOVERLAY, 0, STATIC
        ARGFRAME DOVERLAY, 0, STATIC
        FUNCALL ZDO_ProcessMatchDescReq, osal_msg_allocate
        LOCFRAME ISTACK, 0, STACK
        LOCFRAME PSTACK, 0, STACK
        LOCFRAME XSTACK, 28, STACK
        LOCFRAME IOVERLAY, 0, STATIC
        LOCFRAME DOVERLAY, 0, STATIC
        ARGFRAME ISTACK, 0, STACK
        ARGFRAME PSTACK, 0, STACK
        ARGFRAME XSTACK, 28, STACK
        ARGFRAME IOVERLAY, 0, STATIC
        ARGFRAME DOVERLAY, 0, STATIC
        FUNCALL ZDO_ProcessMatchDescReq, osal_memcpy
        LOCFRAME ISTACK, 0, STACK
        LOCFRAME PSTACK, 0, STACK
        LOCFRAME XSTACK, 31, STACK
        LOCFRAME IOVERLAY, 0, STATIC
        LOCFRAME DOVERLAY, 0, STATIC
        ARGFRAME ISTACK, 0, STACK
        ARGFRAME PSTACK, 0, STACK
        ARGFRAME XSTACK, 31, STACK
        ARGFRAME IOVERLAY, 0, STATIC
        ARGFRAME DOVERLAY, 0, STATIC
        FUNCALL ZDO_ProcessMatchDescReq, osal_memcpy
        LOCFRAME ISTACK, 0, STACK
        LOCFRAME PSTACK, 0, STACK
        LOCFRAME XSTACK, 31, STACK
        LOCFRAME IOVERLAY, 0, STATIC
        LOCFRAME DOVERLAY, 0, STATIC
        ARGFRAME ISTACK, 0, STACK
        ARGFRAME PSTACK, 0, STACK
        ARGFRAME XSTACK, 31, STACK
        ARGFRAME IOVERLAY, 0, STATIC
        ARGFRAME DOVERLAY, 0, STATIC
        FUNCALL ZDO_ProcessMatchDescReq, ZDP_EPRsp
        LOCFRAME ISTACK, 0, STACK
        LOCFRAME PSTACK, 0, STACK
        LOCFRAME XSTACK, 35, STACK
        LOCFRAME IOVERLAY, 0, STATIC
        LOCFRAME DOVERLAY, 0, STATIC
        ARGFRAME ISTACK, 0, STACK
        ARGFRAME PSTACK, 0, STACK
        ARGFRAME XSTACK, 35, STACK
        ARGFRAME IOVERLAY, 0, STATIC
        ARGFRAME DOVERLAY, 0, STATIC
        FUNCALL ZDO_ProcessMatchDescReq, HalLcdWriteScreen
        LOCFRAME ISTACK, 0, STACK
        LOCFRAME PSTACK, 0, STACK
        LOCFRAME XSTACK, 28, STACK
        LOCFRAME IOVERLAY, 0, STATIC
        LOCFRAME DOVERLAY, 0, STATIC
        ARGFRAME ISTACK, 0, STACK
        ARGFRAME PSTACK, 0, STACK
        ARGFRAME XSTACK, 28, STACK
        ARGFRAME IOVERLAY, 0, STATIC
        ARGFRAME DOVERLAY, 0, STATIC
        FUNCALL ZDO_ProcessMatchDescReq, HalLcdWriteScreen
        LOCFRAME ISTACK, 0, STACK
        LOCFRAME PSTACK, 0, STACK
        LOCFRAME XSTACK, 28, STACK
        LOCFRAME IOVERLAY, 0, STATIC
        LOCFRAME DOVERLAY, 0, STATIC
        ARGFRAME ISTACK, 0, STACK
        ARGFRAME PSTACK, 0, STACK
        ARGFRAME XSTACK, 28, STACK
        ARGFRAME IOVERLAY, 0, STATIC
        ARGFRAME DOVERLAY, 0, STATIC
        FUNCALL ZDO_ProcessMatchDescReq, osal_mem_free
        LOCFRAME ISTACK, 0, STACK
        LOCFRAME PSTACK, 0, STACK
        LOCFRAME XSTACK, 28, STACK
        LOCFRAME IOVERLAY, 0, STATIC
        LOCFRAME DOVERLAY, 0, STATIC
        ARGFRAME ISTACK, 0, STACK
        ARGFRAME PSTACK, 0, STACK
        ARGFRAME XSTACK, 28, STACK
        ARGFRAME IOVERLAY, 0, STATIC
        ARGFRAME DOVERLAY, 0, STATIC
        FUNCALL ZDO_ProcessMatchDescReq, osal_mem_free
        LOCFRAME ISTACK, 0, STACK
        LOCFRAME PSTACK, 0, STACK
        LOCFRAME XSTACK, 28, STACK
        LOCFRAME IOVERLAY, 0, STATIC
        LOCFRAME DOVERLAY, 0, STATIC
        ARGFRAME ISTACK, 0, STACK
        ARGFRAME PSTACK, 0, STACK
        ARGFRAME XSTACK, 28, STACK
        ARGFRAME IOVERLAY, 0, STATIC
        ARGFRAME DOVERLAY, 0, STATIC
        MOV     A,#-0x18
        LCALL   ?BANKED_ENTER_XDATA
        CFI DPH0 load(1, XDATA, add(CFA_XSP16, literal(-1)))
        CFI DPL0 load(1, XDATA, add(CFA_XSP16, literal(-2)))
        CFI ?BRET_EXT load(1, XDATA, add(CFA_XSP16, literal(-3)))
        CFI ?RET_HIGH load(1, XDATA, add(CFA_XSP16, literal(-4)))
        CFI ?RET_LOW load(1, XDATA, add(CFA_XSP16, literal(-5)))
        CFI R7 load(1, XDATA, add(CFA_XSP16, literal(-6)))
        CFI V15 load(1, XDATA, add(CFA_XSP16, literal(-7)))
        CFI V14 load(1, XDATA, add(CFA_XSP16, literal(-8)))
        CFI V13 load(1, XDATA, add(CFA_XSP16, literal(-9)))
        CFI V12 load(1, XDATA, add(CFA_XSP16, literal(-10)))
        CFI V11 load(1, XDATA, add(CFA_XSP16, literal(-11)))
        CFI V10 load(1, XDATA, add(CFA_XSP16, literal(-12)))
        CFI V9 load(1, XDATA, add(CFA_XSP16, literal(-13)))
        CFI V8 load(1, XDATA, add(CFA_XSP16, literal(-14)))
        CFI V7 load(1, XDATA, add(CFA_XSP16, literal(-15)))
        CFI V6 load(1, XDATA, add(CFA_XSP16, literal(-16)))
        CFI V5 load(1, XDATA, add(CFA_XSP16, literal(-17)))
        CFI V4 load(1, XDATA, add(CFA_XSP16, literal(-18)))
        CFI V3 load(1, XDATA, add(CFA_XSP16, literal(-19)))
        CFI V2 load(1, XDATA, add(CFA_XSP16, literal(-20)))
        CFI V1 load(1, XDATA, add(CFA_XSP16, literal(-21)))
        CFI V0 load(1, XDATA, add(CFA_XSP16, literal(-22)))
        CFI VB load(1, XDATA, add(CFA_XSP16, literal(-23)))
        CFI R6 load(1, XDATA, add(CFA_XSP16, literal(-24)))
        CFI CFA_SP SP+0
        CFI CFA_XSP16 add(XSP16, 24)
        ; Saved register size: 24
        ; Auto size: 4
        MOV     A,#-0x4
        LCALL   ?ALLOC_XSTACK8
        CFI CFA_XSP16 add(XSP16, 28)
        MOV     ?V0 + 14,R2
        MOV     ?V0 + 15,R3
        MOV     ?V0 + 7,#0x0
        MOV     A,#0x2
        LCALL   ?XSTACK_DISP0_8
        CLR     A
        MOVX    @DPTR,A
        INC     DPTR
        LCALL   ?Subroutine124 & 0xFFFF
??CrossCallReturnLabel_260:
        MOVX    @DPTR,A
        LCALL   ?Subroutine4 & 0xFFFF
??CrossCallReturnLabel_2:
        MOV     ?V0 + 0,A
        MOV     A,R1
        MOV     ?V0 + 1,A
        MOV     DPL,?V0 + 2
        MOV     DPH,?V0 + 3
        INC     DPTR
        LCALL   ?Subroutine79 & 0xFFFF
??CrossCallReturnLabel_122:
        INC     DPTR
        INC     DPTR
        MOVX    A,@DPTR
        MOV     R1,A
        MOV     A,R2
        MOV     R6,A
        MOV     A,R1
        MOV     R7,A
        MOV     A,?V0 + 2
        ADD     A,#0x4
        LCALL   ?Subroutine162 & 0xFFFF
??CrossCallReturnLabel_515:
        ; Setup parameters for call to function NLME_IsAddressBroadcast
        MOV     R2,?V0 + 0
        MOV     R3,?V0 + 1
        LCALL   ??NLME_IsAddressBroadcast?relay
        MOV     A,R1
        XRL     A,#0x1
        JNZ     ??ZDO_ProcessMatchDescReq_0
??ZDO_ProcessMatchDescReq_1:
        ; Setup parameters for call to function ZDP_EPRsp
        LCALL   ?Subroutine71 & 0xFFFF
??CrossCallReturnLabel_328:
        LCALL   ?PUSH_XSTACK_I_ONE
        CFI CFA_XSP16 add(XSP16, 29)
        MOV     ?V0 + 0,#0x0
        MOV     ?V0 + 1,#0x0
        MOV     R0,#?V0 + 0
        LCALL   ?PUSH_XSTACK_I_TWO
        CFI CFA_XSP16 add(XSP16, 31)
        MOV     R0,#?V0 + 0
        LCALL   ?PUSH_XSTACK_I_ONE
        CFI CFA_XSP16 add(XSP16, 32)
        MOV     DPTR,#ZDAppNwkAddr
        LCALL   ?PUSH_XSTACK8_X_TWO
        CFI CFA_XSP16 add(XSP16, 34)
        MOV     ?V0 + 0,#-0x80
        MOV     R0,#?V0 + 0
        LCALL   ?PUSH_XSTACK_I_ONE
        CFI CFA_XSP16 add(XSP16, 35)
        LCALL   ?Subroutine70 & 0xFFFF
??CrossCallReturnLabel_108:
        LCALL   ?DEALLOC_XSTACK8
        CFI CFA_XSP16 add(XSP16, 28)
        LJMP    ??CrossCallReturnLabel_358 & 0xFFFF
??ZDO_ProcessMatchDescReq_0:
        ; Setup parameters for call to function NLME_IsAddressBroadcast
        MOV     R2,?V0 + 0
        MOV     R3,?V0 + 1
        LCALL   ??NLME_IsAddressBroadcast?relay
        MOV     A,R1
        JNZ     ??ZDO_ProcessMatchDescReq_2
        MOV     DPTR,#ZDAppNwkAddr
        MOVX    A,@DPTR
        XRL     A,?V0 + 0
        JNZ     ??ZDO_ProcessMatchDescReq_3
        INC     DPTR
        MOVX    A,@DPTR
        XRL     A,?V0 + 1
??ZDO_ProcessMatchDescReq_3:
        JNZ     ??ZDO_ProcessMatchDescReq_1
??ZDO_ProcessMatchDescReq_2:
        LCALL   ?Subroutine80 & 0xFFFF
??CrossCallReturnLabel_465:
        MOV     ?V0 + 1,R2
        JZ      ??ZDO_ProcessMatchDescReq_4
        ; Setup parameters for call to function osal_mem_alloc
        CLR     C
        RLC     A
        MOV     R2,A
        CLR     A
        RLC     A
        MOV     R3,A
        LCALL   ??osal_mem_alloc?relay
        MOV     A,#0x2
        LCALL   ?XSTACK_DISP0_8
        LCALL   ?Subroutine26 & 0xFFFF
??CrossCallReturnLabel_39:
        MOV     A,#0x2
        LCALL   ?XSTACK_DISP0_8
        MOVX    A,@DPTR
        JNZ     ??ZDO_ProcessMatchDescReq_5
        INC     DPTR
        MOVX    A,@DPTR
??ZDO_ProcessMatchDescReq_5:
        JZ      ??ZDO_ProcessMatchDescReq_4
        ; Setup parameters for call to function ZDO_ConvertOTAClusters
        MOV     A,#0x2
        LCALL   ?XSTACK_DISP0_8
        LCALL   ?Subroutine76 & 0xFFFF
??CrossCallReturnLabel_114:
        MOV     R1,?V0 + 1
        LCALL   ??ZDO_ConvertOTAClusters?relay
        MOV     ?V0 + 2,R2
        MOV     ?V0 + 3,R3
        SJMP    ??ZDO_ProcessMatchDescReq_6
??ZDO_ProcessMatchDescReq_4:
        MOV     ?V0 + 1,#0x0
??ZDO_ProcessMatchDescReq_6:
        LCALL   ?Subroutine80 & 0xFFFF
??CrossCallReturnLabel_466:
        MOV     ?V0 + 0,R2
        JZ      ??ZDO_ProcessMatchDescReq_7
        ; Setup parameters for call to function osal_mem_alloc
        CLR     C
        RLC     A
        MOV     R2,A
        CLR     A
        RLC     A
        MOV     R3,A
        LCALL   ??osal_mem_alloc?relay
        MOV     DPL,?XSP + 0
        MOV     DPH,?XSP + 1
        LCALL   ?Subroutine25 & 0xFFFF
??CrossCallReturnLabel_259:
        JNZ     ??ZDO_ProcessMatchDescReq_8
        INC     DPTR
        MOVX    A,@DPTR
??ZDO_ProcessMatchDescReq_8:
        JZ      ??ZDO_ProcessMatchDescReq_7
        ; Setup parameters for call to function ZDO_ConvertOTAClusters
        MOV     DPL,?XSP + 0
        MOV     DPH,?XSP + 1
        LCALL   ?Subroutine76 & 0xFFFF
??CrossCallReturnLabel_115:
        MOV     R1,?V0 + 0
        LCALL   ??ZDO_ConvertOTAClusters?relay
        SJMP    ??ZDO_ProcessMatchDescReq_9
??ZDO_ProcessMatchDescReq_7:
        MOV     ?V0 + 0,#0x0
??ZDO_ProcessMatchDescReq_9:
        MOV     DPTR,#epList
        SJMP    ??ZDO_ProcessMatchDescReq_10
??ZDO_ProcessMatchDescReq_11:
        CLR     A
        MOVX    @DPTR,A
        INC     DPTR
        MOVX    @DPTR,A
??ZDO_ProcessMatchDescReq_12:
        ; Setup parameters for call to function osal_msg_send
        MOV     R2,?V0 + 2
        MOV     R3,?V0 + 3
        MOV     DPL,?V0 + 10
        MOV     DPH,?V0 + 11
        LCALL   ?Subroutine138 & 0xFFFF
??CrossCallReturnLabel_188:
        LCALL   ??Subroutine212_0 & 0xFFFF
??CrossCallReturnLabel_315:
        MOV     R1,A
        LCALL   ??osal_msg_send?relay
??ZDO_ProcessMatchDescReq_13:
        MOV     DPL,?V0 + 8
        MOV     DPH,?V0 + 9
        MOVX    A,@DPTR
        PUSH    A
        CFI CFA_SP SP+-1
        MOV     ?V0 + 2,?V0 + 7
        MOV     A,?V0 + 2
        ADD     A,#(ZDOBuildBuf & 0xff)
        MOV     DPL,A
        CLR     A
        ADDC    A,#((ZDOBuildBuf >> 8) & 0xff)
        MOV     DPH,A
        POP     A
        CFI CFA_SP SP+0
        MOVX    @DPTR,A
        INC     ?V0 + 7
??ZDO_ProcessMatchDescReq_14:
        MOV     A,?V0 + 12
        JZ      ??ZDO_ProcessMatchDescReq_15
        ; Setup parameters for call to function osal_mem_free
        MOV     R2,?V0 + 8
        MOV     R3,?V0 + 9
        LCALL   ??osal_mem_free?relay
??ZDO_ProcessMatchDescReq_15:
        MOV     DPL,?V0 + 10
        MOV     DPH,?V0 + 11
        INC     DPTR
        INC     DPTR
        INC     DPTR
        INC     DPTR
        INC     DPTR
??ZDO_ProcessMatchDescReq_10:
        MOVX    A,@DPTR
        MOV     ?V0 + 10,A
        INC     DPTR
        MOVX    A,@DPTR
        MOV     ?V0 + 11,A
        MOV     A,?V0 + 10
        JNZ     ??ZDO_ProcessMatchDescReq_16
        MOV     A,?V0 + 11
??ZDO_ProcessMatchDescReq_16:
        JNZ     $+5
        LJMP    ??ZDO_ProcessMatchDescReq_17 & 0xFFFF
        MOV     DPL,?V0 + 10
        MOV     DPH,?V0 + 11
        LCALL   ?Subroutine88 & 0xFFFF
??CrossCallReturnLabel_135:
        MOV     R2,A
        MOV     A,R1
        MOV     R3,A
        MOV     DPL,R2
        MOV     DPH,R3
        MOVX    A,@DPTR
        JZ      ??ZDO_ProcessMatchDescReq_15
        MOV     DPL,?V0 + 10
        MOV     DPH,?V0 + 11
        INC     DPTR
        INC     DPTR
        MOVX    A,@DPTR
        MOV     C,0xE0 /* A   */.0
        JNC     ??ZDO_ProcessMatchDescReq_15
        MOV     DPL,?V0 + 10
        MOV     DPH,?V0 + 11
        INC     DPTR
        INC     DPTR
        INC     DPTR
        LCALL   ?Subroutine88 & 0xFFFF
??CrossCallReturnLabel_136:
        MOV     R4,A
        MOV     A,R1
        MOV     R5,A
        MOV     A,R4
        JNZ     ??ZDO_ProcessMatchDescReq_18
        MOV     A,R5
??ZDO_ProcessMatchDescReq_18:
        MOV     DPL,R2
        MOV     DPH,R3
        JZ      ??ZDO_ProcessMatchDescReq_19
        ; Setup parameters for indirect call
        MOVX    A,@DPTR
        MOV     R2,A
        MOV     R1,#0x1
        MOV     DPL,R4
        MOV     DPH,R5
        LCALL   ?CALL_IND
        MOV     ?V0 + 8,R2
        MOV     ?V0 + 9,R3
        MOV     ?V0 + 12,#0x1
        SJMP    ??ZDO_ProcessMatchDescReq_20
??ZDO_ProcessMatchDescReq_19:
        INC     DPTR
        INC     DPTR
        INC     DPTR
        MOVX    A,@DPTR
        MOV     ?V0 + 8,A
        INC     DPTR
        MOVX    A,@DPTR
        MOV     ?V0 + 9,A
        MOV     ?V0 + 12,#0x0
??ZDO_ProcessMatchDescReq_20:
        MOV     A,?V0 + 8
        JNZ     ??ZDO_ProcessMatchDescReq_21
        MOV     A,?V0 + 9
??ZDO_ProcessMatchDescReq_21:
        JNZ     $+5
        LJMP    ??ZDO_ProcessMatchDescReq_14 & 0xFFFF
        MOV     DPL,?V0 + 8
        MOV     DPH,?V0 + 9
        INC     DPTR
        MOVX    A,@DPTR
        XRL     A,R6
        JNZ     ??ZDO_ProcessMatchDescReq_22
        INC     DPTR
        MOVX    A,@DPTR
        XRL     A,R7
??ZDO_ProcessMatchDescReq_22:
        JZ      $+5
        LJMP    ??ZDO_ProcessMatchDescReq_14 & 0xFFFF
        MOV     A,?V0 + 1
        JNZ     ??ZDO_ProcessMatchDescReq_23
        MOV     A,?V0 + 0
        JZ      ??ZDO_ProcessMatchDescReq_24
??ZDO_ProcessMatchDescReq_23:
        ; Setup parameters for call to function ZDO_AnyClusterMatches
        MOV     DPL,?V0 + 8
        MOV     DPH,?V0 + 9
        INC     DPTR
        INC     DPTR
        INC     DPTR
        INC     DPTR
        INC     DPTR
        INC     DPTR
        INC     DPTR
        LCALL   ?PUSH_XSTACK8_X_TWO
        CFI CFA_XSP16 add(XSP16, 30)
        MOV     DPL,?V0 + 8
        MOV     DPH,?V0 + 9
        INC     DPTR
        INC     DPTR
        INC     DPTR
        INC     DPTR
        INC     DPTR
        INC     DPTR
        MOVX    A,@DPTR
        MOV     R4,A
        MOV     A,#0x4
        LCALL   ?XSTACK_DISP0_8
        LCALL   ??Subroutine217_0 & 0xFFFF
??CrossCallReturnLabel_338:
        MOV     R1,?V0 + 1
        LCALL   ??ZDO_AnyClusterMatches?relay
        MOV     A,#0x2
        LCALL   ?DEALLOC_XSTACK8
        CFI CFA_XSP16 add(XSP16, 28)
        MOV     A,R1
        JNZ     ??ZDO_ProcessMatchDescReq_24
        ; Setup parameters for call to function ZDO_AnyClusterMatches
        MOV     DPL,?V0 + 8
        MOV     DPH,?V0 + 9
        INC     DPTR
        INC     DPTR
        INC     DPTR
        INC     DPTR
        INC     DPTR
        INC     DPTR
        INC     DPTR
        INC     DPTR
        INC     DPTR
        INC     DPTR
        LCALL   ?PUSH_XSTACK8_X_TWO
        CFI CFA_XSP16 add(XSP16, 30)
        MOV     DPL,?V0 + 8
        MOV     DPH,?V0 + 9
        INC     DPTR
        INC     DPTR
        INC     DPTR
        INC     DPTR
        INC     DPTR
        INC     DPTR
        INC     DPTR
        INC     DPTR
        INC     DPTR
        MOVX    A,@DPTR
        MOV     R4,A
        MOV     A,#0x2
        LCALL   ?XSTACK_DISP0_8
        LCALL   ??Subroutine217_0 & 0xFFFF
??CrossCallReturnLabel_339:
        MOV     R1,?V0 + 0
        LCALL   ??ZDO_AnyClusterMatches?relay
        MOV     A,#0x2
        LCALL   ?DEALLOC_XSTACK8
        CFI CFA_XSP16 add(XSP16, 28)
        MOV     A,R1
        JNZ     $+5
        LJMP    ??ZDO_ProcessMatchDescReq_14 & 0xFFFF
??ZDO_ProcessMatchDescReq_24:
        ; Setup parameters for call to function osal_msg_allocate
        MOV     A,?V0 + 1
        ADD     A,?V0 + 0
        CLR     C
        RLC     A
        ADD     A,#0xa
        MOV     R2,A
        MOV     R3,#0x0
        LCALL   ??osal_msg_allocate?relay
        MOV     ?V0 + 2,R2
        MOV     ?V0 + 3,R3
        MOV     A,R2
        JNZ     ??ZDO_ProcessMatchDescReq_25
        MOV     A,R3
??ZDO_ProcessMatchDescReq_25:
        JNZ     $+5
        LJMP    ??ZDO_ProcessMatchDescReq_13 & 0xFFFF
        MOV     A,#-0x2e
        MOV     DPL,R2
        MOV     DPH,R3
        MOVX    @DPTR,A
        MOV     DPL,?V0 + 14
        MOV     DPH,?V0 + 15
        INC     DPTR
        INC     DPTR
        LCALL   ??Subroutine206_0 & 0xFFFF
??CrossCallReturnLabel_293:
        MOV     DPL,R2
        MOV     DPH,R3
        INC     DPTR
        INC     DPTR
        MOV     A,R0
        MOVX    @DPTR,A
        INC     DPTR
        MOV     A,R1
        LCALL   ?Subroutine14 & 0xFFFF
??CrossCallReturnLabel_17:
        LCALL   ?Subroutine7 & 0xFFFF
??CrossCallReturnLabel_552:
        MOV     A,?V0 + 0
        MOVX    @DPTR,A
        MOV     A,R2
        ADD     A,#0x5
        MOV     R2,A
        MOV     A,R3
        ADDC    A,#0x0
        MOV     R3,A
        MOV     A,?V0 + 1
        JZ      ??ZDO_ProcessMatchDescReq_26
        MOV     A,?V0 + 2
        ADD     A,#0xa
        MOV     R0,A
        MOV     A,?V0 + 3
        ADDC    A,#0x0
        MOV     R1,A
        MOV     DPL,R2
        MOV     DPH,R3
        LCALL   ??Subroutine203_0 & 0xFFFF
??CrossCallReturnLabel_275:
        ; Setup parameters for call to function osal_memcpy
        MOV     A,#0x2
        LCALL   ?XSTACK_DISP0_8
        MOVX    A,@DPTR
        LCALL   ?Subroutine90 & 0xFFFF
??CrossCallReturnLabel_139:
        LCALL   ?PUSH_XSTACK_I_THREE
        CFI CFA_XSP16 add(XSP16, 31)
        MOV     A,?V0 + 1
        CLR     C
        RLC     A
        MOV     R4,A
        CLR     A
        RLC     A
        MOV     R5,A
        MOV     DPL,R2
        MOV     DPH,R3
        LCALL   ??Subroutine217_0 & 0xFFFF
??CrossCallReturnLabel_340:
        LCALL   ?Subroutine175 & 0xFFFF
??CrossCallReturnLabel_445:
        LCALL   ?DEALLOC_XSTACK8
        CFI CFA_XSP16 add(XSP16, 28)
        SJMP    ??ZDO_ProcessMatchDescReq_27
??ZDO_ProcessMatchDescReq_26:
        MOV     DPL,R2
        MOV     DPH,R3
        CLR     A
        MOVX    @DPTR,A
        INC     DPTR
        MOVX    @DPTR,A
??ZDO_ProcessMatchDescReq_27:
        MOV     A,?V0 + 2
        ADD     A,#0x8
        MOV     DPL,A
        MOV     A,?V0 + 3
        LCALL   ??Subroutine240_0 & 0xFFFF
??CrossCallReturnLabel_483:
        MOV     A,?V0 + 0
        JNZ     $+5
        LJMP    ??ZDO_ProcessMatchDescReq_11 & 0xFFFF
        MOV     A,?V0 + 1
        CLR     C
        RLC     A
        MOV     R0,A
        CLR     A
        RLC     A
        MOV     R1,A
        MOV     A,?V0 + 2
        ADD     A,R0
        MOV     R0,A
        MOV     A,?V0 + 3
        ADDC    A,R1
        MOV     R1,A
        MOV     A,#0xa
        ADD     A,R0
        MOV     R2,A
        CLR     A
        ADDC    A,R1
        MOV     R3,A
        LCALL   ?Subroutine25 & 0xFFFF
??CrossCallReturnLabel_257:
        LCALL   ?Subroutine90 & 0xFFFF
??CrossCallReturnLabel_140:
        LCALL   ?PUSH_XSTACK_I_THREE
        CFI CFA_XSP16 add(XSP16, 31)
        MOV     A,?V0 + 0
        CLR     C
        RLC     A
        MOV     R4,A
        CLR     A
        RLC     A
        MOV     R5,A
        LCALL   ?Subroutine175 & 0xFFFF
??CrossCallReturnLabel_446:
        LCALL   ?DEALLOC_XSTACK8
        CFI CFA_XSP16 add(XSP16, 28)
        LJMP    ??ZDO_ProcessMatchDescReq_12 & 0xFFFF
??ZDO_ProcessMatchDescReq_17:
        MOV     A,?V0 + 7
        JZ      ??ZDO_ProcessMatchDescReq_28
        ; Setup parameters for call to function ZDP_EPRsp
        LCALL   ?Subroutine71 & 0xFFFF
??CrossCallReturnLabel_329:
        LCALL   ?PUSH_XSTACK_I_ONE
        CFI CFA_XSP16 add(XSP16, 29)
        MOV     ?V0 + 0,#(ZDOBuildBuf & 0xff)
        MOV     ?V0 + 1,#((ZDOBuildBuf >> 8) & 0xff)
        MOV     R0,#?V0 + 0
        LCALL   ?PUSH_XSTACK_I_TWO
        CFI CFA_XSP16 add(XSP16, 31)
        MOV     A,?V0 + 7
        MOV     ?V0 + 0,A
        MOV     R0,#?V0 + 0
        LCALL   ?PUSH_XSTACK_I_ONE
        CFI CFA_XSP16 add(XSP16, 32)
        MOV     DPTR,#ZDAppNwkAddr
        LCALL   ?PUSH_XSTACK8_X_TWO
        CFI CFA_XSP16 add(XSP16, 34)
        MOV     ?V0 + 0,#0x0
        MOV     R0,#?V0 + 0
        LCALL   ?PUSH_XSTACK_I_ONE
        CFI CFA_XSP16 add(XSP16, 35)
        LCALL   ?Subroutine70 & 0xFFFF
??CrossCallReturnLabel_109:
        LCALL   ?DEALLOC_XSTACK8
        CFI CFA_XSP16 add(XSP16, 28)
        MOV     A,R1
        JNZ     ??ZDO_ProcessMatchDescReq_29
        ; Setup parameters for call to function HalLcdWriteScreen
        MOV     R4,#(`?<Constant "Rsp Sent">` & 0xff)
        MOV     R5,#((`?<Constant "Rsp Sent">` >> 8) & 0xff)
        SJMP    ??ZDO_ProcessMatchDescReq_30
??ZDO_ProcessMatchDescReq_28:
        ; Setup parameters for call to function HalLcdWriteScreen
        MOV     R4,#(`?<Constant "Non Matched">` & 0xff)
        MOV     R5,#((`?<Constant "Non Matched">` >> 8) & 0xff)
??ZDO_ProcessMatchDescReq_30:
        MOV     R2,#(`?<Constant "Match Desc Req">` & 0xff)
        MOV     R3,#((`?<Constant "Match Desc Req">` >> 8) & 0xff)
        LCALL   ??HalLcdWriteScreen?relay
??ZDO_ProcessMatchDescReq_29:
        MOV     A,#0x2
        LCALL   ?XSTACK_DISP0_8
        MOVX    A,@DPTR
        JNZ     ??ZDO_ProcessMatchDescReq_31
        INC     DPTR
        MOVX    A,@DPTR
??ZDO_ProcessMatchDescReq_31:
        JZ      ??CrossCallReturnLabel_359
        ; Setup parameters for call to function osal_mem_free
        MOV     A,#0x2
        LCALL   ?XSTACK_DISP0_8
        LCALL   ??Subroutine221_0 & 0xFFFF
??CrossCallReturnLabel_359:
        MOV     DPL,?XSP + 0
        MOV     DPH,?XSP + 1
        MOVX    A,@DPTR
        JNZ     ??ZDO_ProcessMatchDescReq_32
        INC     DPTR
        MOVX    A,@DPTR
??ZDO_ProcessMatchDescReq_32:
        JZ      ??CrossCallReturnLabel_358
        ; Setup parameters for call to function osal_mem_free
        LCALL   ?Subroutine49 & 0xFFFF
??CrossCallReturnLabel_358:
        MOV     A,#0x4
        CFI EndBlock cfiBlock57
        REQUIRE ?Subroutine184
        ; // Fall through to label ?Subroutine184

        RSEG BANKED_CODE:CODE:NOROOT(0)
?Subroutine184:
        CFI Block cfiBlock58 Using cfiCommon0
        CFI NoFunction
        CFI CFA_SP SP+0
        CFI CFA_XSP16 add(XSP16, 28)
        CFI VB load(1, XDATA, add(CFA_XSP16, literal(-23)))
        CFI DPL0 load(1, XDATA, add(CFA_XSP16, literal(-2)))
        CFI DPH0 load(1, XDATA, add(CFA_XSP16, literal(-1)))
        CFI R6 load(1, XDATA, add(CFA_XSP16, literal(-24)))
        CFI R7 load(1, XDATA, add(CFA_XSP16, literal(-6)))
        CFI V0 load(1, XDATA, add(CFA_XSP16, literal(-22)))
        CFI V1 load(1, XDATA, add(CFA_XSP16, literal(-21)))
        CFI V2 load(1, XDATA, add(CFA_XSP16, literal(-20)))
        CFI V3 load(1, XDATA, add(CFA_XSP16, literal(-19)))
        CFI V4 load(1, XDATA, add(CFA_XSP16, literal(-18)))
        CFI V5 load(1, XDATA, add(CFA_XSP16, literal(-17)))
        CFI V6 load(1, XDATA, add(CFA_XSP16, literal(-16)))
        CFI V7 load(1, XDATA, add(CFA_XSP16, literal(-15)))
        CFI V8 load(1, XDATA, add(CFA_XSP16, literal(-14)))
        CFI V9 load(1, XDATA, add(CFA_XSP16, literal(-13)))
        CFI V10 load(1, XDATA, add(CFA_XSP16, literal(-12)))
        CFI V11 load(1, XDATA, add(CFA_XSP16, literal(-11)))
        CFI V12 load(1, XDATA, add(CFA_XSP16, literal(-10)))
        CFI V13 load(1, XDATA, add(CFA_XSP16, literal(-9)))
        CFI V14 load(1, XDATA, add(CFA_XSP16, literal(-8)))
        CFI V15 load(1, XDATA, add(CFA_XSP16, literal(-7)))
        CFI ?BRET_EXT load(1, XDATA, add(CFA_XSP16, literal(-3)))
        CFI ?RET_HIGH load(1, XDATA, add(CFA_XSP16, literal(-4)))
        CFI ?RET_LOW load(1, XDATA, add(CFA_XSP16, literal(-5)))
        CFI Invalid
        LCALL   ?DEALLOC_XSTACK8
        CFI EndBlock cfiBlock58
        REQUIRE ??Subroutine196_0
        ; // Fall through to label ??Subroutine196_0

        RSEG BANKED_CODE:CODE:NOROOT(0)
??Subroutine196_0:
        CFI Block cfiBlock59 Using cfiCommon0
        CFI NoFunction
        CFI CFA_SP SP+0
        CFI CFA_XSP16 add(XSP16, 24)
        CFI VB load(1, XDATA, add(CFA_XSP16, literal(-23)))
        CFI DPL0 load(1, XDATA, add(CFA_XSP16, literal(-2)))
        CFI DPH0 load(1, XDATA, add(CFA_XSP16, literal(-1)))
        CFI R6 load(1, XDATA, add(CFA_XSP16, literal(-24)))
        CFI R7 load(1, XDATA, add(CFA_XSP16, literal(-6)))
        CFI V0 load(1, XDATA, add(CFA_XSP16, literal(-22)))
        CFI V1 load(1, XDATA, add(CFA_XSP16, literal(-21)))
        CFI V2 load(1, XDATA, add(CFA_XSP16, literal(-20)))
        CFI V3 load(1, XDATA, add(CFA_XSP16, literal(-19)))
        CFI V4 load(1, XDATA, add(CFA_XSP16, literal(-18)))
        CFI V5 load(1, XDATA, add(CFA_XSP16, literal(-17)))
        CFI V6 load(1, XDATA, add(CFA_XSP16, literal(-16)))
        CFI V7 load(1, XDATA, add(CFA_XSP16, literal(-15)))
        CFI V8 load(1, XDATA, add(CFA_XSP16, literal(-14)))
        CFI V9 load(1, XDATA, add(CFA_XSP16, literal(-13)))
        CFI V10 load(1, XDATA, add(CFA_XSP16, literal(-12)))
        CFI V11 load(1, XDATA, add(CFA_XSP16, literal(-11)))
        CFI V12 load(1, XDATA, add(CFA_XSP16, literal(-10)))
        CFI V13 load(1, XDATA, add(CFA_XSP16, literal(-9)))
        CFI V14 load(1, XDATA, add(CFA_XSP16, literal(-8)))
        CFI V15 load(1, XDATA, add(CFA_XSP16, literal(-7)))
        CFI ?BRET_EXT load(1, XDATA, add(CFA_XSP16, literal(-3)))
        CFI ?RET_HIGH load(1, XDATA, add(CFA_XSP16, literal(-4)))
        CFI ?RET_LOW load(1, XDATA, add(CFA_XSP16, literal(-5)))
        MOV     R7,#0x10
        LJMP    ?BANKED_LEAVE_XDATA
        CFI EndBlock cfiBlock59

        RSEG BANKED_CODE:CODE:NOROOT(0)
?Subroutine90:
        CFI Block cfiCond60 Using cfiCommon0
        CFI NoFunction
        CFI Conditional ??CrossCallReturnLabel_139
        CFI R6 load(1, XDATA, add(CFA_XSP16, literal(-24)))
        CFI VB load(1, XDATA, add(CFA_XSP16, literal(-23)))
        CFI V0 load(1, XDATA, add(CFA_XSP16, literal(-22)))
        CFI V1 load(1, XDATA, add(CFA_XSP16, literal(-21)))
        CFI V2 load(1, XDATA, add(CFA_XSP16, literal(-20)))
        CFI V3 load(1, XDATA, add(CFA_XSP16, literal(-19)))
        CFI V4 load(1, XDATA, add(CFA_XSP16, literal(-18)))
        CFI V5 load(1, XDATA, add(CFA_XSP16, literal(-17)))
        CFI V6 load(1, XDATA, add(CFA_XSP16, literal(-16)))
        CFI V7 load(1, XDATA, add(CFA_XSP16, literal(-15)))
        CFI V8 load(1, XDATA, add(CFA_XSP16, literal(-14)))
        CFI V9 load(1, XDATA, add(CFA_XSP16, literal(-13)))
        CFI V10 load(1, XDATA, add(CFA_XSP16, literal(-12)))
        CFI V11 load(1, XDATA, add(CFA_XSP16, literal(-11)))
        CFI V12 load(1, XDATA, add(CFA_XSP16, literal(-10)))
        CFI V13 load(1, XDATA, add(CFA_XSP16, literal(-9)))
        CFI V14 load(1, XDATA, add(CFA_XSP16, literal(-8)))
        CFI V15 load(1, XDATA, add(CFA_XSP16, literal(-7)))
        CFI R7 load(1, XDATA, add(CFA_XSP16, literal(-6)))
        CFI ?RET_LOW load(1, XDATA, add(CFA_XSP16, literal(-5)))
        CFI ?RET_HIGH load(1, XDATA, add(CFA_XSP16, literal(-4)))
        CFI ?BRET_EXT load(1, XDATA, add(CFA_XSP16, literal(-3)))
        CFI DPL0 load(1, XDATA, add(CFA_XSP16, literal(-2)))
        CFI DPH0 load(1, XDATA, add(CFA_XSP16, literal(-1)))
        CFI CFA_SP SP+0
        CFI CFA_XSP16 add(XSP16, 28)
        CFI Block cfiCond61 Using cfiCommon0
        CFI (cfiCond61) NoFunction
        CFI (cfiCond61) Conditional ??CrossCallReturnLabel_140
        CFI (cfiCond61) R6 load(1, XDATA, add(CFA_XSP16, literal(-24)))
        CFI (cfiCond61) VB load(1, XDATA, add(CFA_XSP16, literal(-23)))
        CFI (cfiCond61) V0 load(1, XDATA, add(CFA_XSP16, literal(-22)))
        CFI (cfiCond61) V1 load(1, XDATA, add(CFA_XSP16, literal(-21)))
        CFI (cfiCond61) V2 load(1, XDATA, add(CFA_XSP16, literal(-20)))
        CFI (cfiCond61) V3 load(1, XDATA, add(CFA_XSP16, literal(-19)))
        CFI (cfiCond61) V4 load(1, XDATA, add(CFA_XSP16, literal(-18)))
        CFI (cfiCond61) V5 load(1, XDATA, add(CFA_XSP16, literal(-17)))
        CFI (cfiCond61) V6 load(1, XDATA, add(CFA_XSP16, literal(-16)))
        CFI (cfiCond61) V7 load(1, XDATA, add(CFA_XSP16, literal(-15)))
        CFI (cfiCond61) V8 load(1, XDATA, add(CFA_XSP16, literal(-14)))
        CFI (cfiCond61) V9 load(1, XDATA, add(CFA_XSP16, literal(-13)))
        CFI (cfiCond61) V10 load(1, XDATA, add(CFA_XSP16, literal(-12)))
        CFI (cfiCond61) V11 load(1, XDATA, add(CFA_XSP16, literal(-11)))
        CFI (cfiCond61) V12 load(1, XDATA, add(CFA_XSP16, literal(-10)))
        CFI (cfiCond61) V13 load(1, XDATA, add(CFA_XSP16, literal(-9)))
        CFI (cfiCond61) V14 load(1, XDATA, add(CFA_XSP16, literal(-8)))
        CFI (cfiCond61) V15 load(1, XDATA, add(CFA_XSP16, literal(-7)))
        CFI (cfiCond61) R7 load(1, XDATA, add(CFA_XSP16, literal(-6)))
        CFI (cfiCond61) ?RET_LOW load(1, XDATA, add(CFA_XSP16, literal(-5)))
        CFI (cfiCond61) ?RET_HIGH load(1, XDATA, add(CFA_XSP16, literal(-4)))
        CFI (cfiCond61) ?BRET_EXT load(1, XDATA, add(CFA_XSP16, literal(-3)))
        CFI (cfiCond61) DPL0 load(1, XDATA, add(CFA_XSP16, literal(-2)))
        CFI (cfiCond61) DPH0 load(1, XDATA, add(CFA_XSP16, literal(-1)))
        CFI (cfiCond61) CFA_SP SP+0
        CFI (cfiCond61) CFA_XSP16 add(XSP16, 28)
        CFI Block cfiPicker62 Using cfiCommon1
        CFI (cfiPicker62) NoFunction
        CFI (cfiPicker62) Picker
        MOV     ?V0 + 4,A
        INC     DPTR
        MOVX    A,@DPTR
        MOV     ?V0 + 5,A
        MOV     ?V0 + 6,#0x0
        MOV     R0,#?V0 + 4
        RET
        CFI EndBlock cfiCond60
        CFI EndBlock cfiCond61
        CFI EndBlock cfiPicker62

        RSEG BANKED_CODE:CODE:NOROOT(0)
?Subroutine80:
        CFI Block cfiCond63 Using cfiCommon0
        CFI NoFunction
        CFI Conditional ??CrossCallReturnLabel_465
        CFI R6 load(1, XDATA, add(CFA_XSP16, literal(-24)))
        CFI VB load(1, XDATA, add(CFA_XSP16, literal(-23)))
        CFI V0 load(1, XDATA, add(CFA_XSP16, literal(-22)))
        CFI V1 load(1, XDATA, add(CFA_XSP16, literal(-21)))
        CFI V2 load(1, XDATA, add(CFA_XSP16, literal(-20)))
        CFI V3 load(1, XDATA, add(CFA_XSP16, literal(-19)))
        CFI V4 load(1, XDATA, add(CFA_XSP16, literal(-18)))
        CFI V5 load(1, XDATA, add(CFA_XSP16, literal(-17)))
        CFI V6 load(1, XDATA, add(CFA_XSP16, literal(-16)))
        CFI V7 load(1, XDATA, add(CFA_XSP16, literal(-15)))
        CFI V8 load(1, XDATA, add(CFA_XSP16, literal(-14)))
        CFI V9 load(1, XDATA, add(CFA_XSP16, literal(-13)))
        CFI V10 load(1, XDATA, add(CFA_XSP16, literal(-12)))
        CFI V11 load(1, XDATA, add(CFA_XSP16, literal(-11)))
        CFI V12 load(1, XDATA, add(CFA_XSP16, literal(-10)))
        CFI V13 load(1, XDATA, add(CFA_XSP16, literal(-9)))
        CFI V14 load(1, XDATA, add(CFA_XSP16, literal(-8)))
        CFI V15 load(1, XDATA, add(CFA_XSP16, literal(-7)))
        CFI R7 load(1, XDATA, add(CFA_XSP16, literal(-6)))
        CFI ?RET_LOW load(1, XDATA, add(CFA_XSP16, literal(-5)))
        CFI ?RET_HIGH load(1, XDATA, add(CFA_XSP16, literal(-4)))
        CFI ?BRET_EXT load(1, XDATA, add(CFA_XSP16, literal(-3)))
        CFI DPL0 load(1, XDATA, add(CFA_XSP16, literal(-2)))
        CFI DPH0 load(1, XDATA, add(CFA_XSP16, literal(-1)))
        CFI CFA_SP SP+0
        CFI CFA_XSP16 add(XSP16, 28)
        CFI Block cfiCond64 Using cfiCommon0
        CFI (cfiCond64) NoFunction
        CFI (cfiCond64) Conditional ??CrossCallReturnLabel_466
        CFI (cfiCond64) R6 load(1, XDATA, add(CFA_XSP16, literal(-24)))
        CFI (cfiCond64) VB load(1, XDATA, add(CFA_XSP16, literal(-23)))
        CFI (cfiCond64) V0 load(1, XDATA, add(CFA_XSP16, literal(-22)))
        CFI (cfiCond64) V1 load(1, XDATA, add(CFA_XSP16, literal(-21)))
        CFI (cfiCond64) V2 load(1, XDATA, add(CFA_XSP16, literal(-20)))
        CFI (cfiCond64) V3 load(1, XDATA, add(CFA_XSP16, literal(-19)))
        CFI (cfiCond64) V4 load(1, XDATA, add(CFA_XSP16, literal(-18)))
        CFI (cfiCond64) V5 load(1, XDATA, add(CFA_XSP16, literal(-17)))
        CFI (cfiCond64) V6 load(1, XDATA, add(CFA_XSP16, literal(-16)))
        CFI (cfiCond64) V7 load(1, XDATA, add(CFA_XSP16, literal(-15)))
        CFI (cfiCond64) V8 load(1, XDATA, add(CFA_XSP16, literal(-14)))
        CFI (cfiCond64) V9 load(1, XDATA, add(CFA_XSP16, literal(-13)))
        CFI (cfiCond64) V10 load(1, XDATA, add(CFA_XSP16, literal(-12)))
        CFI (cfiCond64) V11 load(1, XDATA, add(CFA_XSP16, literal(-11)))
        CFI (cfiCond64) V12 load(1, XDATA, add(CFA_XSP16, literal(-10)))
        CFI (cfiCond64) V13 load(1, XDATA, add(CFA_XSP16, literal(-9)))
        CFI (cfiCond64) V14 load(1, XDATA, add(CFA_XSP16, literal(-8)))
        CFI (cfiCond64) V15 load(1, XDATA, add(CFA_XSP16, literal(-7)))
        CFI (cfiCond64) R7 load(1, XDATA, add(CFA_XSP16, literal(-6)))
        CFI (cfiCond64) ?RET_LOW load(1, XDATA, add(CFA_XSP16, literal(-5)))
        CFI (cfiCond64) ?RET_HIGH load(1, XDATA, add(CFA_XSP16, literal(-4)))
        CFI (cfiCond64) ?BRET_EXT load(1, XDATA, add(CFA_XSP16, literal(-3)))
        CFI (cfiCond64) DPL0 load(1, XDATA, add(CFA_XSP16, literal(-2)))
        CFI (cfiCond64) DPH0 load(1, XDATA, add(CFA_XSP16, literal(-1)))
        CFI (cfiCond64) CFA_SP SP+0
        CFI (cfiCond64) CFA_XSP16 add(XSP16, 28)
        CFI Block cfiPicker65 Using cfiCommon1
        CFI (cfiPicker65) NoFunction
        CFI (cfiPicker65) Picker
        MOV     DPL,?V0 + 2
        MOV     DPH,?V0 + 3
        MOVX    A,@DPTR
        MOV     R2,A
        LJMP    ?Subroutine169 & 0xFFFF
        CFI EndBlock cfiCond63
        CFI EndBlock cfiCond64
        CFI EndBlock cfiPicker65

        RSEG BANKED_CODE:CODE:NOROOT(0)
?Subroutine76:
        CFI Block cfiCond66 Using cfiCommon0
        CFI NoFunction
        CFI Conditional ??CrossCallReturnLabel_114
        CFI R6 load(1, XDATA, add(CFA_XSP16, literal(-24)))
        CFI VB load(1, XDATA, add(CFA_XSP16, literal(-23)))
        CFI V0 load(1, XDATA, add(CFA_XSP16, literal(-22)))
        CFI V1 load(1, XDATA, add(CFA_XSP16, literal(-21)))
        CFI V2 load(1, XDATA, add(CFA_XSP16, literal(-20)))
        CFI V3 load(1, XDATA, add(CFA_XSP16, literal(-19)))
        CFI V4 load(1, XDATA, add(CFA_XSP16, literal(-18)))
        CFI V5 load(1, XDATA, add(CFA_XSP16, literal(-17)))
        CFI V6 load(1, XDATA, add(CFA_XSP16, literal(-16)))
        CFI V7 load(1, XDATA, add(CFA_XSP16, literal(-15)))
        CFI V8 load(1, XDATA, add(CFA_XSP16, literal(-14)))
        CFI V9 load(1, XDATA, add(CFA_XSP16, literal(-13)))
        CFI V10 load(1, XDATA, add(CFA_XSP16, literal(-12)))
        CFI V11 load(1, XDATA, add(CFA_XSP16, literal(-11)))
        CFI V12 load(1, XDATA, add(CFA_XSP16, literal(-10)))
        CFI V13 load(1, XDATA, add(CFA_XSP16, literal(-9)))
        CFI V14 load(1, XDATA, add(CFA_XSP16, literal(-8)))
        CFI V15 load(1, XDATA, add(CFA_XSP16, literal(-7)))
        CFI R7 load(1, XDATA, add(CFA_XSP16, literal(-6)))
        CFI ?RET_LOW load(1, XDATA, add(CFA_XSP16, literal(-5)))
        CFI ?RET_HIGH load(1, XDATA, add(CFA_XSP16, literal(-4)))
        CFI ?BRET_EXT load(1, XDATA, add(CFA_XSP16, literal(-3)))
        CFI DPL0 load(1, XDATA, add(CFA_XSP16, literal(-2)))
        CFI DPH0 load(1, XDATA, add(CFA_XSP16, literal(-1)))
        CFI CFA_SP SP+0
        CFI CFA_XSP16 add(XSP16, 28)
        CFI Block cfiCond67 Using cfiCommon0
        CFI (cfiCond67) NoFunction
        CFI (cfiCond67) Conditional ??CrossCallReturnLabel_115
        CFI (cfiCond67) R6 load(1, XDATA, add(CFA_XSP16, literal(-24)))
        CFI (cfiCond67) VB load(1, XDATA, add(CFA_XSP16, literal(-23)))
        CFI (cfiCond67) V0 load(1, XDATA, add(CFA_XSP16, literal(-22)))
        CFI (cfiCond67) V1 load(1, XDATA, add(CFA_XSP16, literal(-21)))
        CFI (cfiCond67) V2 load(1, XDATA, add(CFA_XSP16, literal(-20)))
        CFI (cfiCond67) V3 load(1, XDATA, add(CFA_XSP16, literal(-19)))
        CFI (cfiCond67) V4 load(1, XDATA, add(CFA_XSP16, literal(-18)))
        CFI (cfiCond67) V5 load(1, XDATA, add(CFA_XSP16, literal(-17)))
        CFI (cfiCond67) V6 load(1, XDATA, add(CFA_XSP16, literal(-16)))
        CFI (cfiCond67) V7 load(1, XDATA, add(CFA_XSP16, literal(-15)))
        CFI (cfiCond67) V8 load(1, XDATA, add(CFA_XSP16, literal(-14)))
        CFI (cfiCond67) V9 load(1, XDATA, add(CFA_XSP16, literal(-13)))
        CFI (cfiCond67) V10 load(1, XDATA, add(CFA_XSP16, literal(-12)))
        CFI (cfiCond67) V11 load(1, XDATA, add(CFA_XSP16, literal(-11)))
        CFI (cfiCond67) V12 load(1, XDATA, add(CFA_XSP16, literal(-10)))
        CFI (cfiCond67) V13 load(1, XDATA, add(CFA_XSP16, literal(-9)))
        CFI (cfiCond67) V14 load(1, XDATA, add(CFA_XSP16, literal(-8)))
        CFI (cfiCond67) V15 load(1, XDATA, add(CFA_XSP16, literal(-7)))
        CFI (cfiCond67) R7 load(1, XDATA, add(CFA_XSP16, literal(-6)))
        CFI (cfiCond67) ?RET_LOW load(1, XDATA, add(CFA_XSP16, literal(-5)))
        CFI (cfiCond67) ?RET_HIGH load(1, XDATA, add(CFA_XSP16, literal(-4)))
        CFI (cfiCond67) ?BRET_EXT load(1, XDATA, add(CFA_XSP16, literal(-3)))
        CFI (cfiCond67) DPL0 load(1, XDATA, add(CFA_XSP16, literal(-2)))
        CFI (cfiCond67) DPH0 load(1, XDATA, add(CFA_XSP16, literal(-1)))
        CFI (cfiCond67) CFA_SP SP+0
        CFI (cfiCond67) CFA_XSP16 add(XSP16, 28)
        CFI Block cfiPicker68 Using cfiCommon1
        CFI (cfiPicker68) NoFunction
        CFI (cfiPicker68) Picker
        MOVX    A,@DPTR
        MOV     R4,A
        INC     DPTR
        MOVX    A,@DPTR
        MOV     R5,A
        MOV     R2,?V0 + 2
        MOV     R3,?V0 + 3
        RET
        CFI EndBlock cfiCond66
        CFI EndBlock cfiCond67
        CFI EndBlock cfiPicker68

        RSEG BANKED_CODE:CODE:NOROOT(0)
?Subroutine70:
        CFI Block cfiCond69 Using cfiCommon0
        CFI NoFunction
        CFI Conditional ??CrossCallReturnLabel_108
        CFI R6 load(1, XDATA, add(CFA_XSP16, literal(-24)))
        CFI VB load(1, XDATA, add(CFA_XSP16, literal(-23)))
        CFI V0 load(1, XDATA, add(CFA_XSP16, literal(-22)))
        CFI V1 load(1, XDATA, add(CFA_XSP16, literal(-21)))
        CFI V2 load(1, XDATA, add(CFA_XSP16, literal(-20)))
        CFI V3 load(1, XDATA, add(CFA_XSP16, literal(-19)))
        CFI V4 load(1, XDATA, add(CFA_XSP16, literal(-18)))
        CFI V5 load(1, XDATA, add(CFA_XSP16, literal(-17)))
        CFI V6 load(1, XDATA, add(CFA_XSP16, literal(-16)))
        CFI V7 load(1, XDATA, add(CFA_XSP16, literal(-15)))
        CFI V8 load(1, XDATA, add(CFA_XSP16, literal(-14)))
        CFI V9 load(1, XDATA, add(CFA_XSP16, literal(-13)))
        CFI V10 load(1, XDATA, add(CFA_XSP16, literal(-12)))
        CFI V11 load(1, XDATA, add(CFA_XSP16, literal(-11)))
        CFI V12 load(1, XDATA, add(CFA_XSP16, literal(-10)))
        CFI V13 load(1, XDATA, add(CFA_XSP16, literal(-9)))
        CFI V14 load(1, XDATA, add(CFA_XSP16, literal(-8)))
        CFI V15 load(1, XDATA, add(CFA_XSP16, literal(-7)))
        CFI R7 load(1, XDATA, add(CFA_XSP16, literal(-6)))
        CFI ?RET_LOW load(1, XDATA, add(CFA_XSP16, literal(-5)))
        CFI ?RET_HIGH load(1, XDATA, add(CFA_XSP16, literal(-4)))
        CFI ?BRET_EXT load(1, XDATA, add(CFA_XSP16, literal(-3)))
        CFI DPL0 load(1, XDATA, add(CFA_XSP16, literal(-2)))
        CFI DPH0 load(1, XDATA, add(CFA_XSP16, literal(-1)))
        CFI CFA_SP SP+0
        CFI CFA_XSP16 add(XSP16, 35)
        CFI Block cfiCond70 Using cfiCommon0
        CFI (cfiCond70) NoFunction
        CFI (cfiCond70) Conditional ??CrossCallReturnLabel_109
        CFI (cfiCond70) R6 load(1, XDATA, add(CFA_XSP16, literal(-24)))
        CFI (cfiCond70) VB load(1, XDATA, add(CFA_XSP16, literal(-23)))
        CFI (cfiCond70) V0 load(1, XDATA, add(CFA_XSP16, literal(-22)))
        CFI (cfiCond70) V1 load(1, XDATA, add(CFA_XSP16, literal(-21)))
        CFI (cfiCond70) V2 load(1, XDATA, add(CFA_XSP16, literal(-20)))
        CFI (cfiCond70) V3 load(1, XDATA, add(CFA_XSP16, literal(-19)))
        CFI (cfiCond70) V4 load(1, XDATA, add(CFA_XSP16, literal(-18)))
        CFI (cfiCond70) V5 load(1, XDATA, add(CFA_XSP16, literal(-17)))
        CFI (cfiCond70) V6 load(1, XDATA, add(CFA_XSP16, literal(-16)))
        CFI (cfiCond70) V7 load(1, XDATA, add(CFA_XSP16, literal(-15)))
        CFI (cfiCond70) V8 load(1, XDATA, add(CFA_XSP16, literal(-14)))
        CFI (cfiCond70) V9 load(1, XDATA, add(CFA_XSP16, literal(-13)))
        CFI (cfiCond70) V10 load(1, XDATA, add(CFA_XSP16, literal(-12)))
        CFI (cfiCond70) V11 load(1, XDATA, add(CFA_XSP16, literal(-11)))
        CFI (cfiCond70) V12 load(1, XDATA, add(CFA_XSP16, literal(-10)))
        CFI (cfiCond70) V13 load(1, XDATA, add(CFA_XSP16, literal(-9)))
        CFI (cfiCond70) V14 load(1, XDATA, add(CFA_XSP16, literal(-8)))
        CFI (cfiCond70) V15 load(1, XDATA, add(CFA_XSP16, literal(-7)))
        CFI (cfiCond70) R7 load(1, XDATA, add(CFA_XSP16, literal(-6)))
        CFI (cfiCond70) ?RET_LOW load(1, XDATA, add(CFA_XSP16, literal(-5)))
        CFI (cfiCond70) ?RET_HIGH load(1, XDATA, add(CFA_XSP16, literal(-4)))
        CFI (cfiCond70) ?BRET_EXT load(1, XDATA, add(CFA_XSP16, literal(-3)))
        CFI (cfiCond70) DPL0 load(1, XDATA, add(CFA_XSP16, literal(-2)))
        CFI (cfiCond70) DPH0 load(1, XDATA, add(CFA_XSP16, literal(-1)))
        CFI (cfiCond70) CFA_SP SP+0
        CFI (cfiCond70) CFA_XSP16 add(XSP16, 35)
        CFI Block cfiPicker71 Using cfiCommon1
        CFI (cfiPicker71) NoFunction
        CFI (cfiPicker71) Picker
        MOV     A,?V0 + 14
        ADD     A,#0x2
        MOV     R4,A
        MOV     A,?V0 + 15
        ADDC    A,#0x0
        MOV     R5,A
        MOV     A,?V0 + 14
        ADD     A,#0xf
        MOV     DPL,A
        MOV     A,?V0 + 15
        LCALL   ?Subroutine141 & 0xFFFF
??CrossCallReturnLabel_374:
        MOV     R2,#0x6
        MOV     R3,#-0x80
        LCALL   ??ZDP_EPRsp?relay
        MOV     A,#0x7
        RET
        CFI EndBlock cfiCond69
        CFI EndBlock cfiCond70
        CFI EndBlock cfiPicker71

        RSEG BANKED_CODE:CODE:NOROOT(0)
?Subroutine25:
        CFI Block cfiCond72 Using cfiCommon0
        CFI NoFunction
        CFI Conditional ??CrossCallReturnLabel_259
        CFI R6 load(1, XDATA, add(CFA_XSP16, literal(-24)))
        CFI VB load(1, XDATA, add(CFA_XSP16, literal(-23)))
        CFI V0 load(1, XDATA, add(CFA_XSP16, literal(-22)))
        CFI V1 load(1, XDATA, add(CFA_XSP16, literal(-21)))
        CFI V2 load(1, XDATA, add(CFA_XSP16, literal(-20)))
        CFI V3 load(1, XDATA, add(CFA_XSP16, literal(-19)))
        CFI V4 load(1, XDATA, add(CFA_XSP16, literal(-18)))
        CFI V5 load(1, XDATA, add(CFA_XSP16, literal(-17)))
        CFI V6 load(1, XDATA, add(CFA_XSP16, literal(-16)))
        CFI V7 load(1, XDATA, add(CFA_XSP16, literal(-15)))
        CFI V8 load(1, XDATA, add(CFA_XSP16, literal(-14)))
        CFI V9 load(1, XDATA, add(CFA_XSP16, literal(-13)))
        CFI V10 load(1, XDATA, add(CFA_XSP16, literal(-12)))
        CFI V11 load(1, XDATA, add(CFA_XSP16, literal(-11)))
        CFI V12 load(1, XDATA, add(CFA_XSP16, literal(-10)))
        CFI V13 load(1, XDATA, add(CFA_XSP16, literal(-9)))
        CFI V14 load(1, XDATA, add(CFA_XSP16, literal(-8)))
        CFI V15 load(1, XDATA, add(CFA_XSP16, literal(-7)))
        CFI R7 load(1, XDATA, add(CFA_XSP16, literal(-6)))
        CFI ?RET_LOW load(1, XDATA, add(CFA_XSP16, literal(-5)))
        CFI ?RET_HIGH load(1, XDATA, add(CFA_XSP16, literal(-4)))
        CFI ?BRET_EXT load(1, XDATA, add(CFA_XSP16, literal(-3)))
        CFI DPL0 load(1, XDATA, add(CFA_XSP16, literal(-2)))
        CFI DPH0 load(1, XDATA, add(CFA_XSP16, literal(-1)))
        CFI CFA_SP SP+0
        CFI CFA_XSP16 add(XSP16, 28)
        CFI Block cfiCond73 Using cfiCommon0
        CFI (cfiCond73) NoFunction
        CFI (cfiCond73) Conditional ??CrossCallReturnLabel_257
        CFI (cfiCond73) R6 load(1, XDATA, add(CFA_XSP16, literal(-24)))
        CFI (cfiCond73) VB load(1, XDATA, add(CFA_XSP16, literal(-23)))
        CFI (cfiCond73) V0 load(1, XDATA, add(CFA_XSP16, literal(-22)))
        CFI (cfiCond73) V1 load(1, XDATA, add(CFA_XSP16, literal(-21)))
        CFI (cfiCond73) V2 load(1, XDATA, add(CFA_XSP16, literal(-20)))
        CFI (cfiCond73) V3 load(1, XDATA, add(CFA_XSP16, literal(-19)))
        CFI (cfiCond73) V4 load(1, XDATA, add(CFA_XSP16, literal(-18)))
        CFI (cfiCond73) V5 load(1, XDATA, add(CFA_XSP16, literal(-17)))
        CFI (cfiCond73) V6 load(1, XDATA, add(CFA_XSP16, literal(-16)))
        CFI (cfiCond73) V7 load(1, XDATA, add(CFA_XSP16, literal(-15)))
        CFI (cfiCond73) V8 load(1, XDATA, add(CFA_XSP16, literal(-14)))
        CFI (cfiCond73) V9 load(1, XDATA, add(CFA_XSP16, literal(-13)))
        CFI (cfiCond73) V10 load(1, XDATA, add(CFA_XSP16, literal(-12)))
        CFI (cfiCond73) V11 load(1, XDATA, add(CFA_XSP16, literal(-11)))
        CFI (cfiCond73) V12 load(1, XDATA, add(CFA_XSP16, literal(-10)))
        CFI (cfiCond73) V13 load(1, XDATA, add(CFA_XSP16, literal(-9)))
        CFI (cfiCond73) V14 load(1, XDATA, add(CFA_XSP16, literal(-8)))
        CFI (cfiCond73) V15 load(1, XDATA, add(CFA_XSP16, literal(-7)))
        CFI (cfiCond73) R7 load(1, XDATA, add(CFA_XSP16, literal(-6)))
        CFI (cfiCond73) ?RET_LOW load(1, XDATA, add(CFA_XSP16, literal(-5)))
        CFI (cfiCond73) ?RET_HIGH load(1, XDATA, add(CFA_XSP16, literal(-4)))
        CFI (cfiCond73) ?BRET_EXT load(1, XDATA, add(CFA_XSP16, literal(-3)))
        CFI (cfiCond73) DPL0 load(1, XDATA, add(CFA_XSP16, literal(-2)))
        CFI (cfiCond73) DPH0 load(1, XDATA, add(CFA_XSP16, literal(-1)))
        CFI (cfiCond73) CFA_SP SP+0
        CFI (cfiCond73) CFA_XSP16 add(XSP16, 28)
        CFI Block cfiPicker74 Using cfiCommon1
        CFI (cfiPicker74) NoFunction
        CFI (cfiPicker74) Picker
        MOV     A,R2
        MOVX    @DPTR,A
        INC     DPTR
        MOV     A,R3
        CFI EndBlock cfiCond72
        CFI EndBlock cfiCond73
        CFI EndBlock cfiPicker74
        REQUIRE ??Subroutine197_0
        ; // Fall through to label ??Subroutine197_0

        RSEG BANKED_CODE:CODE:NOROOT(0)
??Subroutine197_0:
        CFI Block cfiCond75 Using cfiCommon0
        CFI NoFunction
        CFI Conditional ??CrossCallReturnLabel_258
        CFI R6 load(1, XDATA, add(CFA_XSP16, literal(-16)))
        CFI VB load(1, XDATA, add(CFA_XSP16, literal(-15)))
        CFI V0 load(1, XDATA, add(CFA_XSP16, literal(-14)))
        CFI V1 load(1, XDATA, add(CFA_XSP16, literal(-13)))
        CFI V2 load(1, XDATA, add(CFA_XSP16, literal(-12)))
        CFI V3 load(1, XDATA, add(CFA_XSP16, literal(-11)))
        CFI V4 load(1, XDATA, add(CFA_XSP16, literal(-10)))
        CFI V5 load(1, XDATA, add(CFA_XSP16, literal(-9)))
        CFI V6 load(1, XDATA, add(CFA_XSP16, literal(-8)))
        CFI V7 load(1, XDATA, add(CFA_XSP16, literal(-7)))
        CFI R7 load(1, XDATA, add(CFA_XSP16, literal(-6)))
        CFI ?RET_LOW load(1, XDATA, add(CFA_XSP16, literal(-5)))
        CFI ?RET_HIGH load(1, XDATA, add(CFA_XSP16, literal(-4)))
        CFI ?BRET_EXT load(1, XDATA, add(CFA_XSP16, literal(-3)))
        CFI DPL0 load(1, XDATA, add(CFA_XSP16, literal(-2)))
        CFI DPH0 load(1, XDATA, add(CFA_XSP16, literal(-1)))
        CFI CFA_SP SP+0
        CFI CFA_XSP16 add(XSP16, 35)
        CFI Block cfiCond76 Using cfiCommon0
        CFI (cfiCond76) NoFunction
        CFI (cfiCond76) Conditional ??CrossCallReturnLabel_259
        CFI (cfiCond76) R6 load(1, XDATA, add(CFA_XSP16, literal(-24)))
        CFI (cfiCond76) VB load(1, XDATA, add(CFA_XSP16, literal(-23)))
        CFI (cfiCond76) V0 load(1, XDATA, add(CFA_XSP16, literal(-22)))
        CFI (cfiCond76) V1 load(1, XDATA, add(CFA_XSP16, literal(-21)))
        CFI (cfiCond76) V2 load(1, XDATA, add(CFA_XSP16, literal(-20)))
        CFI (cfiCond76) V3 load(1, XDATA, add(CFA_XSP16, literal(-19)))
        CFI (cfiCond76) V4 load(1, XDATA, add(CFA_XSP16, literal(-18)))
        CFI (cfiCond76) V5 load(1, XDATA, add(CFA_XSP16, literal(-17)))
        CFI (cfiCond76) V6 load(1, XDATA, add(CFA_XSP16, literal(-16)))
        CFI (cfiCond76) V7 load(1, XDATA, add(CFA_XSP16, literal(-15)))
        CFI (cfiCond76) V8 load(1, XDATA, add(CFA_XSP16, literal(-14)))
        CFI (cfiCond76) V9 load(1, XDATA, add(CFA_XSP16, literal(-13)))
        CFI (cfiCond76) V10 load(1, XDATA, add(CFA_XSP16, literal(-12)))
        CFI (cfiCond76) V11 load(1, XDATA, add(CFA_XSP16, literal(-11)))
        CFI (cfiCond76) V12 load(1, XDATA, add(CFA_XSP16, literal(-10)))
        CFI (cfiCond76) V13 load(1, XDATA, add(CFA_XSP16, literal(-9)))
        CFI (cfiCond76) V14 load(1, XDATA, add(CFA_XSP16, literal(-8)))
        CFI (cfiCond76) V15 load(1, XDATA, add(CFA_XSP16, literal(-7)))
        CFI (cfiCond76) R7 load(1, XDATA, add(CFA_XSP16, literal(-6)))
        CFI (cfiCond76) ?RET_LOW load(1, XDATA, add(CFA_XSP16, literal(-5)))
        CFI (cfiCond76) ?RET_HIGH load(1, XDATA, add(CFA_XSP16, literal(-4)))
        CFI (cfiCond76) ?BRET_EXT load(1, XDATA, add(CFA_XSP16, literal(-3)))
        CFI (cfiCond76) DPL0 load(1, XDATA, add(CFA_XSP16, literal(-2)))
        CFI (cfiCond76) DPH0 load(1, XDATA, add(CFA_XSP16, literal(-1)))
        CFI (cfiCond76) CFA_SP SP+0
        CFI (cfiCond76) CFA_XSP16 add(XSP16, 28)
        CFI Block cfiCond77 Using cfiCommon0
        CFI (cfiCond77) NoFunction
        CFI (cfiCond77) Conditional ??CrossCallReturnLabel_257
        CFI (cfiCond77) R6 load(1, XDATA, add(CFA_XSP16, literal(-24)))
        CFI (cfiCond77) VB load(1, XDATA, add(CFA_XSP16, literal(-23)))
        CFI (cfiCond77) V0 load(1, XDATA, add(CFA_XSP16, literal(-22)))
        CFI (cfiCond77) V1 load(1, XDATA, add(CFA_XSP16, literal(-21)))
        CFI (cfiCond77) V2 load(1, XDATA, add(CFA_XSP16, literal(-20)))
        CFI (cfiCond77) V3 load(1, XDATA, add(CFA_XSP16, literal(-19)))
        CFI (cfiCond77) V4 load(1, XDATA, add(CFA_XSP16, literal(-18)))
        CFI (cfiCond77) V5 load(1, XDATA, add(CFA_XSP16, literal(-17)))
        CFI (cfiCond77) V6 load(1, XDATA, add(CFA_XSP16, literal(-16)))
        CFI (cfiCond77) V7 load(1, XDATA, add(CFA_XSP16, literal(-15)))
        CFI (cfiCond77) V8 load(1, XDATA, add(CFA_XSP16, literal(-14)))
        CFI (cfiCond77) V9 load(1, XDATA, add(CFA_XSP16, literal(-13)))
        CFI (cfiCond77) V10 load(1, XDATA, add(CFA_XSP16, literal(-12)))
        CFI (cfiCond77) V11 load(1, XDATA, add(CFA_XSP16, literal(-11)))
        CFI (cfiCond77) V12 load(1, XDATA, add(CFA_XSP16, literal(-10)))
        CFI (cfiCond77) V13 load(1, XDATA, add(CFA_XSP16, literal(-9)))
        CFI (cfiCond77) V14 load(1, XDATA, add(CFA_XSP16, literal(-8)))
        CFI (cfiCond77) V15 load(1, XDATA, add(CFA_XSP16, literal(-7)))
        CFI (cfiCond77) R7 load(1, XDATA, add(CFA_XSP16, literal(-6)))
        CFI (cfiCond77) ?RET_LOW load(1, XDATA, add(CFA_XSP16, literal(-5)))
        CFI (cfiCond77) ?RET_HIGH load(1, XDATA, add(CFA_XSP16, literal(-4)))
        CFI (cfiCond77) ?BRET_EXT load(1, XDATA, add(CFA_XSP16, literal(-3)))
        CFI (cfiCond77) DPL0 load(1, XDATA, add(CFA_XSP16, literal(-2)))
        CFI (cfiCond77) DPH0 load(1, XDATA, add(CFA_XSP16, literal(-1)))
        CFI (cfiCond77) CFA_SP SP+0
        CFI (cfiCond77) CFA_XSP16 add(XSP16, 28)
        CFI Block cfiPicker78 Using cfiCommon1
        CFI (cfiPicker78) NoFunction
        CFI (cfiPicker78) Picker
        LCALL   ?Subroutine124 & 0xFFFF
??CrossCallReturnLabel_261:
        MOVX    A,@DPTR
        RET
        CFI EndBlock cfiCond75
        CFI EndBlock cfiCond76
        CFI EndBlock cfiCond77
        CFI EndBlock cfiPicker78

        RSEG BANKED_CODE:CODE:NOROOT(0)
?Subroutine124:
        CFI Block cfiCond79 Using cfiCommon0
        CFI NoFunction
        CFI Conditional ??CrossCallReturnLabel_260
        CFI R6 load(1, XDATA, add(CFA_XSP16, literal(-24)))
        CFI VB load(1, XDATA, add(CFA_XSP16, literal(-23)))
        CFI V0 load(1, XDATA, add(CFA_XSP16, literal(-22)))
        CFI V1 load(1, XDATA, add(CFA_XSP16, literal(-21)))
        CFI V2 load(1, XDATA, add(CFA_XSP16, literal(-20)))
        CFI V3 load(1, XDATA, add(CFA_XSP16, literal(-19)))
        CFI V4 load(1, XDATA, add(CFA_XSP16, literal(-18)))
        CFI V5 load(1, XDATA, add(CFA_XSP16, literal(-17)))
        CFI V6 load(1, XDATA, add(CFA_XSP16, literal(-16)))
        CFI V7 load(1, XDATA, add(CFA_XSP16, literal(-15)))
        CFI V8 load(1, XDATA, add(CFA_XSP16, literal(-14)))
        CFI V9 load(1, XDATA, add(CFA_XSP16, literal(-13)))
        CFI V10 load(1, XDATA, add(CFA_XSP16, literal(-12)))
        CFI V11 load(1, XDATA, add(CFA_XSP16, literal(-11)))
        CFI V12 load(1, XDATA, add(CFA_XSP16, literal(-10)))
        CFI V13 load(1, XDATA, add(CFA_XSP16, literal(-9)))
        CFI V14 load(1, XDATA, add(CFA_XSP16, literal(-8)))
        CFI V15 load(1, XDATA, add(CFA_XSP16, literal(-7)))
        CFI R7 load(1, XDATA, add(CFA_XSP16, literal(-6)))
        CFI ?RET_LOW load(1, XDATA, add(CFA_XSP16, literal(-5)))
        CFI ?RET_HIGH load(1, XDATA, add(CFA_XSP16, literal(-4)))
        CFI ?BRET_EXT load(1, XDATA, add(CFA_XSP16, literal(-3)))
        CFI DPL0 load(1, XDATA, add(CFA_XSP16, literal(-2)))
        CFI DPH0 load(1, XDATA, add(CFA_XSP16, literal(-1)))
        CFI CFA_SP SP+0
        CFI CFA_XSP16 add(XSP16, 28)
        CFI Block cfiCond80 Using cfiCommon0
        CFI (cfiCond80) NoFunction
        CFI (cfiCond80) Conditional ??CrossCallReturnLabel_261, ??CrossCallReturnLabel_259
        CFI (cfiCond80) R6 load(1, XDATA, add(CFA_XSP16, literal(-24)))
        CFI (cfiCond80) VB load(1, XDATA, add(CFA_XSP16, literal(-23)))
        CFI (cfiCond80) V0 load(1, XDATA, add(CFA_XSP16, literal(-22)))
        CFI (cfiCond80) V1 load(1, XDATA, add(CFA_XSP16, literal(-21)))
        CFI (cfiCond80) V2 load(1, XDATA, add(CFA_XSP16, literal(-20)))
        CFI (cfiCond80) V3 load(1, XDATA, add(CFA_XSP16, literal(-19)))
        CFI (cfiCond80) V4 load(1, XDATA, add(CFA_XSP16, literal(-18)))
        CFI (cfiCond80) V5 load(1, XDATA, add(CFA_XSP16, literal(-17)))
        CFI (cfiCond80) V6 load(1, XDATA, add(CFA_XSP16, literal(-16)))
        CFI (cfiCond80) V7 load(1, XDATA, add(CFA_XSP16, literal(-15)))
        CFI (cfiCond80) V8 load(1, XDATA, add(CFA_XSP16, literal(-14)))
        CFI (cfiCond80) V9 load(1, XDATA, add(CFA_XSP16, literal(-13)))
        CFI (cfiCond80) V10 load(1, XDATA, add(CFA_XSP16, literal(-12)))
        CFI (cfiCond80) V11 load(1, XDATA, add(CFA_XSP16, literal(-11)))
        CFI (cfiCond80) V12 load(1, XDATA, add(CFA_XSP16, literal(-10)))
        CFI (cfiCond80) V13 load(1, XDATA, add(CFA_XSP16, literal(-9)))
        CFI (cfiCond80) V14 load(1, XDATA, add(CFA_XSP16, literal(-8)))
        CFI (cfiCond80) V15 load(1, XDATA, add(CFA_XSP16, literal(-7)))
        CFI (cfiCond80) R7 load(1, XDATA, add(CFA_XSP16, literal(-6)))
        CFI (cfiCond80) ?RET_LOW load(1, XDATA, add(CFA_XSP16, literal(-5)))
        CFI (cfiCond80) ?RET_HIGH load(1, XDATA, add(CFA_XSP16, literal(-4)))
        CFI (cfiCond80) ?BRET_EXT load(1, XDATA, add(CFA_XSP16, literal(-3)))
